---
triple:          'arm64-apple-darwin'
binary-path:     '/Users/cody/code/dkdc-io/home/crates/dkdc-home-py/target/debug/deps/lib_core.dylib'
relocations:
  - { offsetInCU: 0x1E, offset: 0x1E, size: 0x8, addend: 0x0, symName: '__ZN5alloc3vec12Vec$LT$T$GT$3new17hb362a7e235c20495E', symObjAddr: 0x0, symBinAddr: 0x2350, symSize: 0x14 }
  - { offsetInCU: 0x3F7, offset: 0x3F7, size: 0x8, addend: 0x0, symName: '__ZN5alloc3vec12Vec$LT$T$GT$3new17hb362a7e235c20495E', symObjAddr: 0x0, symBinAddr: 0x2350, symSize: 0x14 }
  - { offsetInCU: 0x421, offset: 0x421, size: 0x8, addend: 0x0, symName: '__ZN5alloc3vec16Vec$LT$T$C$A$GT$4push17h8438f4b492eadaaaE', symObjAddr: 0x14, symBinAddr: 0x2364, symSize: 0x30 }
  - { offsetInCU: 0x586, offset: 0x586, size: 0x8, addend: 0x0, symName: '__ZN5alloc3vec16Vec$LT$T$C$A$GT$8push_mut17h5a2783764c046182E', symObjAddr: 0x44, symBinAddr: 0x2394, symSize: 0xE0 }
  - { offsetInCU: 0x1E, offset: 0x72F, size: 0x8, addend: 0x0, symName: __ZN3std2fs10DirBuilder6create17hdf933468e3f07759E, symObjAddr: 0x0, symBinAddr: 0x2474, symSize: 0x74 }
  - { offsetInCU: 0x2FD, offset: 0xA0E, size: 0x8, addend: 0x0, symName: __ZN3std2fs14create_dir_all17h248ab4979c3a6c6aE, symObjAddr: 0x74, symBinAddr: 0x24E8, symSize: 0x80 }
  - { offsetInCU: 0x674, offset: 0xD85, size: 0x8, addend: 0x0, symName: __ZN3std2fs10DirBuilder6create17hdf933468e3f07759E, symObjAddr: 0x0, symBinAddr: 0x2474, symSize: 0x74 }
  - { offsetInCU: 0x1E, offset: 0xEE7, size: 0x8, addend: 0x0, symName: __ZN4core5slice3raw14from_raw_parts17h97487d467d542f1aE, symObjAddr: 0x0, symBinAddr: 0x2568, symSize: 0x58 }
  - { offsetInCU: 0xA1, offset: 0xF6A, size: 0x8, addend: 0x0, symName: __ZN4core5slice3raw14from_raw_parts17h97487d467d542f1aE, symObjAddr: 0x0, symBinAddr: 0x2568, symSize: 0x58 }
  - { offsetInCU: 0xE4, offset: 0xFAD, size: 0x8, addend: 0x0, symName: __ZN4core5slice3raw14from_raw_parts17hc6f97781a80205d3E, symObjAddr: 0x58, symBinAddr: 0x25C0, symSize: 0x58 }
  - { offsetInCU: 0x1E, offset: 0x1322, size: 0x8, addend: 0x0, symName: __ZN4pyo35impl_10trampoline6noargs5inner17h85b84b742e1fe72eE, symObjAddr: 0x0, symBinAddr: 0x2618, symSize: 0x30 }
  - { offsetInCU: 0xA6, offset: 0x13AA, size: 0x8, addend: 0x0, symName: __ZN4pyo35impl_10trampoline6noargs5inner17h85b84b742e1fe72eE, symObjAddr: 0x0, symBinAddr: 0x2618, symSize: 0x30 }
  - { offsetInCU: 0x1E, offset: 0x1CB6, size: 0x8, addend: 0x0, symName: __ZN4pyo35impl_16extract_argument16extract_argument17h82d86a8a4792a839E, symObjAddr: 0x0, symBinAddr: 0x2648, symSize: 0x168 }
  - { offsetInCU: 0x9F4, offset: 0x268C, size: 0x8, addend: 0x0, symName: __ZN4pyo35impl_16extract_argument16extract_argument17h82d86a8a4792a839E, symObjAddr: 0x0, symBinAddr: 0x2648, symSize: 0x168 }
  - { offsetInCU: 0xB82, offset: 0x281A, size: 0x8, addend: 0x0, symName: '__ZN4pyo35impl_16extract_argument19FunctionDescription26extract_arguments_fastcall28_$u7b$$u7b$closure$u7d$$u7d$17hfedcc64039a5fa2eE', symObjAddr: 0xEAC, symBinAddr: 0x34F4, symSize: 0x24 }
  - { offsetInCU: 0xBDA, offset: 0x2872, size: 0x8, addend: 0x0, symName: '__ZN4pyo35impl_16extract_argument19FunctionDescription36find_keyword_parameter_in_positional28_$u7b$$u7b$closure$u7d$$u7d$17h8bb9574dc46e10ffE', symObjAddr: 0xED0, symBinAddr: 0x3518, symSize: 0x48 }
  - { offsetInCU: 0xC3A, offset: 0x28D2, size: 0x8, addend: 0x0, symName: '__ZN4pyo35impl_16extract_argument19FunctionDescription38find_keyword_parameter_in_keyword_only28_$u7b$$u7b$closure$u7d$$u7d$17h69853567bee10259E', symObjAddr: 0xF18, symBinAddr: 0x3560, symSize: 0x38 }
  - { offsetInCU: 0xC81, offset: 0x2919, size: 0x8, addend: 0x0, symName: '__ZN80_$LT$T$u20$as$u20$pyo3..impl_..extract_argument..PyFunctionArgument$LT$_$GT$$GT$7extract17h4764972276ffb84cE', symObjAddr: 0xF50, symBinAddr: 0x3598, symSize: 0x28 }
  - { offsetInCU: 0x1370, offset: 0x3008, size: 0x8, addend: 0x0, symName: __ZN4pyo35impl_16extract_argument19FunctionDescription13handle_kwargs17h1eae495a61d7d1edE, symObjAddr: 0x168, symBinAddr: 0x27B0, symSize: 0x70C }
  - { offsetInCU: 0x15A9, offset: 0x3241, size: 0x8, addend: 0x0, symName: __ZN4pyo35impl_16extract_argument19FunctionDescription26extract_arguments_fastcall17hcc29f33457277a92E, symObjAddr: 0x874, symBinAddr: 0x2EBC, symSize: 0x638 }
  - { offsetInCU: 0x1E, offset: 0x36C7, size: 0x8, addend: 0x0, symName: __ZN3std9panicking12catch_unwind7do_call17h7b2eb1c22f355dceE, symObjAddr: 0x0, symBinAddr: 0x35C0, symSize: 0x78 }
  - { offsetInCU: 0xCD4, offset: 0x437D, size: 0x8, addend: 0x0, symName: __ZN3std9panicking12catch_unwind7do_call17h7b2eb1c22f355dceE, symObjAddr: 0x0, symBinAddr: 0x35C0, symSize: 0x78 }
  - { offsetInCU: 0xDBB, offset: 0x4464, size: 0x8, addend: 0x0, symName: __ZN3std9panicking12catch_unwind7do_call17h9bed55c6393c2f74E, symObjAddr: 0x78, symBinAddr: 0x3638, symSize: 0x80 }
  - { offsetInCU: 0xEA2, offset: 0x454B, size: 0x8, addend: 0x0, symName: __ZN3std9panicking12catch_unwind7do_call17hf59cd353a82b0432E, symObjAddr: 0xF8, symBinAddr: 0x36B8, symSize: 0x78 }
  - { offsetInCU: 0xF89, offset: 0x4632, size: 0x8, addend: 0x0, symName: __ZN3std9panicking12catch_unwind8do_catch17h3c539d3d6ec90041E, symObjAddr: 0x170, symBinAddr: 0x3730, symSize: 0x70 }
  - { offsetInCU: 0x101E, offset: 0x46C7, size: 0x8, addend: 0x0, symName: __ZN3std9panicking12catch_unwind8do_catch17h7e94a412321ae772E, symObjAddr: 0x1E0, symBinAddr: 0x37A0, symSize: 0x70 }
  - { offsetInCU: 0x10B3, offset: 0x475C, size: 0x8, addend: 0x0, symName: __ZN3std9panicking12catch_unwind8do_catch17hc61e4a5b33b919e0E, symObjAddr: 0x250, symBinAddr: 0x3810, symSize: 0x70 }
  - { offsetInCU: 0x1E, offset: 0x4B69, size: 0x8, addend: 0x0, symName: '__ZN153_$LT$core..result..Result$LT$T$C$F$GT$$u20$as$u20$core..ops..try_trait..FromResidual$LT$core..result..Result$LT$core..convert..Infallible$C$E$GT$$GT$$GT$13from_residual17haae9107c4b65c3c3E', symObjAddr: 0x0, symBinAddr: 0x3880, symSize: 0x6C }
  - { offsetInCU: 0x49B, offset: 0x4FE6, size: 0x8, addend: 0x0, symName: '__ZN153_$LT$core..result..Result$LT$T$C$F$GT$$u20$as$u20$core..ops..try_trait..FromResidual$LT$core..result..Result$LT$core..convert..Infallible$C$E$GT$$GT$$GT$13from_residual17haae9107c4b65c3c3E', symObjAddr: 0x0, symBinAddr: 0x3880, symSize: 0x6C }
  - { offsetInCU: 0x502, offset: 0x504D, size: 0x8, addend: 0x0, symName: '__ZN153_$LT$core..result..Result$LT$T$C$F$GT$$u20$as$u20$core..ops..try_trait..FromResidual$LT$core..result..Result$LT$core..convert..Infallible$C$E$GT$$GT$$GT$13from_residual17hba4a027fb36751c9E', symObjAddr: 0x6C, symBinAddr: 0x38EC, symSize: 0x6C }
  - { offsetInCU: 0x588, offset: 0x50D3, size: 0x8, addend: 0x0, symName: '__ZN153_$LT$core..result..Result$LT$T$C$F$GT$$u20$as$u20$core..ops..try_trait..FromResidual$LT$core..result..Result$LT$core..convert..Infallible$C$E$GT$$GT$$GT$13from_residual17he5de6625fcbdc07eE', symObjAddr: 0xD8, symBinAddr: 0x3958, symSize: 0x34 }
  - { offsetInCU: 0xB3E, offset: 0x5689, size: 0x8, addend: 0x0, symName: '__ZN79_$LT$core..result..Result$LT$T$C$E$GT$$u20$as$u20$core..ops..try_trait..Try$GT$6branch17h36955fe0ab64c40aE', symObjAddr: 0x4D0, symBinAddr: 0x3D50, symSize: 0x90 }
  - { offsetInCU: 0xBBB, offset: 0x5706, size: 0x8, addend: 0x0, symName: '__ZN79_$LT$core..result..Result$LT$T$C$E$GT$$u20$as$u20$core..ops..try_trait..Try$GT$6branch17h82e4447cb063552dE', symObjAddr: 0x560, symBinAddr: 0x3DE0, symSize: 0x40 }
  - { offsetInCU: 0xC37, offset: 0x5782, size: 0x8, addend: 0x0, symName: '__ZN79_$LT$core..result..Result$LT$T$C$E$GT$$u20$as$u20$core..ops..try_trait..Try$GT$6branch17hab886e904ce1d539E', symObjAddr: 0x5A0, symBinAddr: 0x3E20, symSize: 0x68 }
  - { offsetInCU: 0x1C7F, offset: 0x67CA, size: 0x8, addend: 0x0, symName: '__ZN4core6result19Result$LT$T$C$E$GT$3map17h65eb0535d06c4f60E', symObjAddr: 0x10C, symBinAddr: 0x398C, symSize: 0xA4 }
  - { offsetInCU: 0x1D51, offset: 0x689C, size: 0x8, addend: 0x0, symName: '__ZN4core6result19Result$LT$T$C$E$GT$3map17h7356ec73e837510fE', symObjAddr: 0x1B0, symBinAddr: 0x3A30, symSize: 0x90 }
  - { offsetInCU: 0x1E1D, offset: 0x6968, size: 0x8, addend: 0x0, symName: '__ZN4core6result19Result$LT$T$C$E$GT$6is_err17h0b79b0191c827ba0E', symObjAddr: 0x240, symBinAddr: 0x3AC0, symSize: 0x20 }
  - { offsetInCU: 0x1E70, offset: 0x69BB, size: 0x8, addend: 0x0, symName: '__ZN4core6result19Result$LT$T$C$E$GT$7map_err17h0a4c0ea4441b9a76E', symObjAddr: 0x260, symBinAddr: 0x3AE0, symSize: 0xAC }
  - { offsetInCU: 0x1F1B, offset: 0x6A66, size: 0x8, addend: 0x0, symName: '__ZN4core6result19Result$LT$T$C$E$GT$7map_err17h3c956be1b7d25522E', symObjAddr: 0x30C, symBinAddr: 0x3B8C, symSize: 0xCC }
  - { offsetInCU: 0x1FC7, offset: 0x6B12, size: 0x8, addend: 0x0, symName: '__ZN4core6result19Result$LT$T$C$E$GT$7map_err17hc5c3d27ff7df6571E', symObjAddr: 0x3D8, symBinAddr: 0x3C58, symSize: 0x48 }
  - { offsetInCU: 0x204A, offset: 0x6B95, size: 0x8, addend: 0x0, symName: '__ZN4core6result19Result$LT$T$C$E$GT$8and_then17h4cfeb55294fdd621E', symObjAddr: 0x420, symBinAddr: 0x3CA0, symSize: 0xB0 }
  - { offsetInCU: 0x1E, offset: 0x6C7F, size: 0x8, addend: 0x0, symName: '__ZN4core3ptr9const_ptr33_$LT$impl$u20$$BP$const$u20$T$GT$6offset18precondition_check17h067f2cc3f3007531E', symObjAddr: 0x0, symBinAddr: 0x3E88, symSize: 0xC4 }
  - { offsetInCU: 0xD4, offset: 0x6D35, size: 0x8, addend: 0x0, symName: '__ZN4core3ptr9const_ptr33_$LT$impl$u20$$BP$const$u20$T$GT$6offset18precondition_check17h067f2cc3f3007531E', symObjAddr: 0x0, symBinAddr: 0x3E88, symSize: 0xC4 }
  - { offsetInCU: 0x1E, offset: 0x711C, size: 0x8, addend: 0x0, symName: __ZN4pyo35impl_5panic9PanicTrap3new17h98dc40f8abd68cceE, symObjAddr: 0x0, symBinAddr: 0x3F4C, symSize: 0x18 }
  - { offsetInCU: 0xAD, offset: 0x71AB, size: 0x8, addend: 0x0, symName: __ZN4pyo35impl_5panic9PanicTrap3new17h98dc40f8abd68cceE, symObjAddr: 0x0, symBinAddr: 0x3F4C, symSize: 0x18 }
  - { offsetInCU: 0xCF, offset: 0x71CD, size: 0x8, addend: 0x0, symName: __ZN4pyo35impl_5panic9PanicTrap6disarm17hd469f9c121d3be76E, symObjAddr: 0x18, symBinAddr: 0x3F64, symSize: 0x28 }
  - { offsetInCU: 0x1E, offset: 0x720D, size: 0x8, addend: 0x0, symName: '__ZN5_core6ensure28_$u7b$$u7b$closure$u7d$$u7d$17h34ebe2ed72c87040E', symObjAddr: 0x0, symBinAddr: 0x3F8C, symSize: 0x84 }
  - { offsetInCU: 0x42F, offset: 0x761E, size: 0x8, addend: 0x0, symName: '__ZN5_core6ensure28_$u7b$$u7b$closure$u7d$$u7d$17h34ebe2ed72c87040E', symObjAddr: 0x0, symBinAddr: 0x3F8C, symSize: 0x84 }
  - { offsetInCU: 0x466, offset: 0x7655, size: 0x8, addend: 0x0, symName: '__ZN5_core6ensure28_$u7b$$u7b$closure$u7d$$u7d$17hd14dfc62add8806eE', symObjAddr: 0x84, symBinAddr: 0x4010, symSize: 0x74 }
  - { offsetInCU: 0x1E, offset: 0x7EFC, size: 0x8, addend: 0x0, symName: '__ZN4pyo35impl_4wrap30IntoPyObjectConverter$LT$T$GT$4wrap17h110a471b37a33881E', symObjAddr: 0x0, symBinAddr: 0x4084, symSize: 0x24 }
  - { offsetInCU: 0x1DF, offset: 0x80BD, size: 0x8, addend: 0x0, symName: '__ZN4pyo35impl_4wrap62IntoPyObjectConverter$LT$core..result..Result$LT$T$C$E$GT$$GT$12map_into_ptr28_$u7b$$u7b$closure$u7d$$u7d$17h3851de291fa00b5dE', symObjAddr: 0x78, symBinAddr: 0x40FC, symSize: 0x34 }
  - { offsetInCU: 0x24C, offset: 0x812A, size: 0x8, addend: 0x0, symName: __ZN4pyo35impl_4wrap9converter17hb83b41d700142a04E, symObjAddr: 0xE0, symBinAddr: 0x4164, symSize: 0x10 }
  - { offsetInCU: 0x279, offset: 0x8157, size: 0x8, addend: 0x0, symName: __ZN4pyo35impl_4wrap9converter17hbe13d74fa8d7f7f3E, symObjAddr: 0xF0, symBinAddr: 0x4174, symSize: 0x10 }
  - { offsetInCU: 0x2AB, offset: 0x8189, size: 0x8, addend: 0x0, symName: '__ZN81_$LT$pyo3..impl_..wrap..Converter$LT$T$GT$$u20$as$u20$core..ops..deref..Deref$GT$5deref17h09df27d8f90a7202E', symObjAddr: 0x100, symBinAddr: 0x4184, symSize: 0x14 }
  - { offsetInCU: 0x2E0, offset: 0x81BE, size: 0x8, addend: 0x0, symName: '__ZN81_$LT$pyo3..impl_..wrap..Converter$LT$T$GT$$u20$as$u20$core..ops..deref..Deref$GT$5deref17h532cd109190724dcE', symObjAddr: 0x114, symBinAddr: 0x4198, symSize: 0x14 }
  - { offsetInCU: 0x31B, offset: 0x81F9, size: 0x8, addend: 0x0, symName: '__ZN91_$LT$pyo3..impl_..wrap..EmptyTupleConverter$LT$T$GT$$u20$as$u20$core..ops..deref..Deref$GT$5deref17h9b41354929977ed7E', symObjAddr: 0x128, symBinAddr: 0x41AC, symSize: 0x14 }
  - { offsetInCU: 0x350, offset: 0x822E, size: 0x8, addend: 0x0, symName: '__ZN91_$LT$pyo3..impl_..wrap..EmptyTupleConverter$LT$T$GT$$u20$as$u20$core..ops..deref..Deref$GT$5deref17hca0db571328e4957E', symObjAddr: 0x13C, symBinAddr: 0x41C0, symSize: 0x14 }
  - { offsetInCU: 0xDDA, offset: 0x8CB8, size: 0x8, addend: 0x0, symName: '__ZN4pyo35impl_4wrap30IntoPyObjectConverter$LT$T$GT$4wrap17h110a471b37a33881E', symObjAddr: 0x0, symBinAddr: 0x4084, symSize: 0x24 }
  - { offsetInCU: 0x1077, offset: 0x8F55, size: 0x8, addend: 0x0, symName: '__ZN4pyo35impl_4wrap62IntoPyObjectConverter$LT$core..result..Result$LT$T$C$E$GT$$GT$12map_into_ptr17h1abca8ab33f05233E', symObjAddr: 0x24, symBinAddr: 0x40A8, symSize: 0x54 }
  - { offsetInCU: 0x10D5, offset: 0x8FB3, size: 0x8, addend: 0x0, symName: '__ZN4pyo35impl_4wrap62IntoPyObjectConverter$LT$core..result..Result$LT$T$C$E$GT$$GT$4wrap17hdc270e1aca806a48E', symObjAddr: 0xAC, symBinAddr: 0x4130, symSize: 0x34 }
  - { offsetInCU: 0x1E, offset: 0x906F, size: 0x8, addend: 0x0, symName: '__ZN55_$LT$$RF$T$u20$as$u20$core..convert..AsRef$LT$U$GT$$GT$6as_ref17h7da82ad9f25aad73E', symObjAddr: 0x0, symBinAddr: 0x41D4, symSize: 0x28 }
  - { offsetInCU: 0x3A, offset: 0x908B, size: 0x8, addend: 0x0, symName: '__ZN55_$LT$$RF$T$u20$as$u20$core..convert..AsRef$LT$U$GT$$GT$6as_ref17h7da82ad9f25aad73E', symObjAddr: 0x0, symBinAddr: 0x41D4, symSize: 0x28 }
  - { offsetInCU: 0x7A, offset: 0x90CB, size: 0x8, addend: 0x0, symName: '__ZN55_$LT$$RF$T$u20$as$u20$core..convert..AsRef$LT$U$GT$$GT$6as_ref17ha34e7072d8fa3a05E', symObjAddr: 0x28, symBinAddr: 0x41FC, symSize: 0x30 }
  - { offsetInCU: 0x1E, offset: 0x938C, size: 0x8, addend: 0x0, symName: __ZN4pyo35impl_10trampoline11module_exec17hbf77ebc4cab4fd30E, symObjAddr: 0x0, symBinAddr: 0x422C, symSize: 0x34 }
  - { offsetInCU: 0xA1, offset: 0x940F, size: 0x8, addend: 0x0, symName: __ZN4pyo35impl_10trampoline11module_exec17hbf77ebc4cab4fd30E, symObjAddr: 0x0, symBinAddr: 0x422C, symSize: 0x34 }
  - { offsetInCU: 0x1E, offset: 0x9DD4, size: 0x8, addend: 0x0, symName: '__ZN87_$LT$$BP$mut$u20$pyo3_ffi..object..PyObject$u20$as$u20$pyo3..ffi_ptr_ext..FfiPtrExt$GT$22assume_borrowed_or_err17he0e4fc12d221d794E', symObjAddr: 0x0, symBinAddr: 0x4260, symSize: 0x24 }
  - { offsetInCU: 0xA1, offset: 0x9E57, size: 0x8, addend: 0x0, symName: '__ZN87_$LT$$BP$mut$u20$pyo3_ffi..object..PyObject$u20$as$u20$pyo3..ffi_ptr_ext..FfiPtrExt$GT$22assume_borrowed_or_err17he0e4fc12d221d794E', symObjAddr: 0x0, symBinAddr: 0x4260, symSize: 0x24 }
  - { offsetInCU: 0x1E, offset: 0xA7E1, size: 0x8, addend: 0x0, symName: __ZN9dkdc_home6ensure17h4788f3fe236c2c3aE, symObjAddr: 0x0, symBinAddr: 0x4284, symSize: 0x174 }
  - { offsetInCU: 0x2F8, offset: 0xAABB, size: 0x8, addend: 0x0, symName: __ZN9dkdc_home6ensure17h4788f3fe236c2c3aE, symObjAddr: 0x0, symBinAddr: 0x4284, symSize: 0x174 }
  - { offsetInCU: 0x1E, offset: 0xAEA3, size: 0x8, addend: 0x0, symName: '__ZN4core3ptr9const_ptr33_$LT$impl$u20$$BP$const$u20$T$GT$7is_null17hca3d7f9f2ace085bE', symObjAddr: 0x0, symBinAddr: 0x43F8, symSize: 0x18 }
  - { offsetInCU: 0xBD, offset: 0xAF42, size: 0x8, addend: 0x0, symName: '__ZN4core3ptr9const_ptr33_$LT$impl$u20$$BP$const$u20$T$GT$7is_null17hca3d7f9f2ace085bE', symObjAddr: 0x0, symBinAddr: 0x43F8, symSize: 0x18 }
  - { offsetInCU: 0x1D2, offset: 0xB057, size: 0x8, addend: 0x0, symName: '__ZN4core5slice29_$LT$impl$u20$$u5b$T$u5d$$GT$15copy_from_slice17hbded555dc2fe8511E', symObjAddr: 0x18, symBinAddr: 0x4410, symSize: 0x34 }
  - { offsetInCU: 0x23B, offset: 0xB0C0, size: 0x8, addend: 0x0, symName: '__ZN4core5slice29_$LT$impl$u20$$u5b$T$u5d$$GT$18split_at_unchecked17h368e40d66c666354E', symObjAddr: 0x4C, symBinAddr: 0x4444, symSize: 0xE8 }
  - { offsetInCU: 0x3C8, offset: 0xB24D, size: 0x8, addend: 0x0, symName: '__ZN4core5slice29_$LT$impl$u20$$u5b$T$u5d$$GT$8split_at17h26671dccaa80432dE', symObjAddr: 0x134, symBinAddr: 0x452C, symSize: 0xAC }
  - { offsetInCU: 0xA44, offset: 0xB8C9, size: 0x8, addend: 0x0, symName: '__ZN4core6option15Option$LT$T$GT$3map17h174d64dea65ebf94E', symObjAddr: 0x1E0, symBinAddr: 0x45D8, symSize: 0x5C }
  - { offsetInCU: 0xABC, offset: 0xB941, size: 0x8, addend: 0x0, symName: '__ZN4core6option15Option$LT$T$GT$3map17h9bd41b013df94a26E', symObjAddr: 0x23C, symBinAddr: 0x4634, symSize: 0x50 }
  - { offsetInCU: 0xB34, offset: 0xB9B9, size: 0x8, addend: 0x0, symName: '__ZN4core6option15Option$LT$T$GT$7is_some17h1f7898fcb57006eeE', symObjAddr: 0x28C, symBinAddr: 0x4684, symSize: 0x28 }
  - { offsetInCU: 0xB6D, offset: 0xB9F2, size: 0x8, addend: 0x0, symName: '__ZN4core6option15Option$LT$T$GT$7replace17hc4261cf8b58b3829E', symObjAddr: 0x2B4, symBinAddr: 0x46AC, symSize: 0x28 }
  - { offsetInCU: 0x1E, offset: 0xBA87, size: 0x8, addend: 0x0, symName: '__ZN106_$LT$core..ops..range..Range$LT$usize$GT$$u20$as$u20$core..slice..index..SliceIndex$LT$$u5b$T$u5d$$GT$$GT$9index_mut17h05f06ccae813bbfbE', symObjAddr: 0x0, symBinAddr: 0x46D4, symSize: 0xBC }
  - { offsetInCU: 0x1E0, offset: 0xBC49, size: 0x8, addend: 0x0, symName: '__ZN106_$LT$core..ops..range..Range$LT$usize$GT$$u20$as$u20$core..slice..index..SliceIndex$LT$$u5b$T$u5d$$GT$$GT$9index_mut17h05f06ccae813bbfbE', symObjAddr: 0x0, symBinAddr: 0x46D4, symSize: 0xBC }
  - { offsetInCU: 0x291, offset: 0xBCFA, size: 0x8, addend: 0x0, symName: '__ZN108_$LT$core..ops..range..RangeTo$LT$usize$GT$$u20$as$u20$core..slice..index..SliceIndex$LT$$u5b$T$u5d$$GT$$GT$9index_mut17h84040543b9948fcfE', symObjAddr: 0xBC, symBinAddr: 0x4790, symSize: 0x54 }
  - { offsetInCU: 0x318, offset: 0xBD81, size: 0x8, addend: 0x0, symName: '__ZN110_$LT$core..ops..range..RangeFrom$LT$usize$GT$$u20$as$u20$core..slice..index..SliceIndex$LT$$u5b$T$u5d$$GT$$GT$5index17hb38de45c5bda9abdE', symObjAddr: 0x110, symBinAddr: 0x47E4, symSize: 0x70 }
  - { offsetInCU: 0x1E, offset: 0xC16A, size: 0x8, addend: 0x0, symName: __ZN4core4hint16assert_unchecked18precondition_check17hc575899239554e2bE, symObjAddr: 0x0, symBinAddr: 0x4854, symSize: 0x58 }
  - { offsetInCU: 0x3A, offset: 0xC186, size: 0x8, addend: 0x0, symName: __ZN4core4hint16assert_unchecked18precondition_check17hc575899239554e2bE, symObjAddr: 0x0, symBinAddr: 0x4854, symSize: 0x58 }
  - { offsetInCU: 0x1E, offset: 0xC228, size: 0x8, addend: 0x0, symName: __ZN4core4iter6traits8iterator8Iterator6copied17h50e85b54330453c0E, symObjAddr: 0x0, symBinAddr: 0x48AC, symSize: 0x1C }
  - { offsetInCU: 0xAB, offset: 0xC2B5, size: 0x8, addend: 0x0, symName: __ZN4core4iter6traits8iterator8Iterator6copied17h50e85b54330453c0E, symObjAddr: 0x0, symBinAddr: 0x48AC, symSize: 0x1C }
  - { offsetInCU: 0x3E9, offset: 0xC5F3, size: 0x8, addend: 0x0, symName: '__ZN91_$LT$core..slice..iter..Iter$LT$T$GT$$u20$as$u20$core..iter..traits..iterator..Iterator$GT$4next17h69cc2a8ef4ac8f89E', symObjAddr: 0x6C, symBinAddr: 0x4918, symSize: 0x84 }
  - { offsetInCU: 0x4EE, offset: 0xC6F8, size: 0x8, addend: 0x0, symName: '__ZN91_$LT$core..slice..iter..Iter$LT$T$GT$$u20$as$u20$core..iter..traits..iterator..Iterator$GT$8position17h36f0379889cb6cf8E', symObjAddr: 0xF0, symBinAddr: 0x499C, symSize: 0x194 }
  - { offsetInCU: 0x67B, offset: 0xC885, size: 0x8, addend: 0x0, symName: '__ZN91_$LT$core..slice..iter..Iter$LT$T$GT$$u20$as$u20$core..iter..traits..iterator..Iterator$GT$8position17hfebd61c8604542e8E', symObjAddr: 0x284, symBinAddr: 0x4B30, symSize: 0x194 }
  - { offsetInCU: 0xD32, offset: 0xCF3C, size: 0x8, addend: 0x0, symName: '__ZN4core5slice4iter13Iter$LT$T$GT$3new17h86ac1c7bad6528a8E', symObjAddr: 0x1C, symBinAddr: 0x48C8, symSize: 0x50 }
  - { offsetInCU: 0x1E, offset: 0xD166, size: 0x8, addend: 0x0, symName: __ZN4pyo33err10cast_error9CastError3new17hf5c5d0711d2122c6E, symObjAddr: 0x0, symBinAddr: 0x4CC4, symSize: 0x1C }
  - { offsetInCU: 0x367, offset: 0xD4AF, size: 0x8, addend: 0x0, symName: __ZN4pyo33err10cast_error9CastError3new17hf5c5d0711d2122c6E, symObjAddr: 0x0, symBinAddr: 0x4CC4, symSize: 0x1C }
  - { offsetInCU: 0x1E, offset: 0xD4FD, size: 0x8, addend: 0x0, symName: _PyInit_core, symObjAddr: 0x0, symBinAddr: 0x4CE0, symSize: 0x34 }
  - { offsetInCU: 0x42, offset: 0xD521, size: 0x8, addend: 0x0, symName: __ZN5_core4core9_PYO3_DEF17ha0811e701d91aa2bE, symObjAddr: 0x3F0, symBinAddr: 0x80370, symSize: 0x0 }
  - { offsetInCU: 0x61, offset: 0xD540, size: 0x8, addend: 0x0, symName: __ZN5_core4core9_PYO3_DEF5SLOTS17ha17ee43dec8b6d21E, symObjAddr: 0x470, symBinAddr: 0x803F0, symSize: 0x0 }
  - { offsetInCU: 0x6E, offset: 0xD54D, size: 0x8, addend: 0x0, symName: __ZN5_core4core9_PYO3_DEF18__pyo3_module_exec17h42a476e1384ebfddE, symObjAddr: 0x308, symBinAddr: 0x4FE8, symSize: 0x3C }
  - { offsetInCU: 0x9B, offset: 0xD57A, size: 0x8, addend: 0x0, symName: _PyInit_core, symObjAddr: 0x0, symBinAddr: 0x4CE0, symSize: 0x34 }
  - { offsetInCU: 0xB8, offset: 0xD597, size: 0x8, addend: 0x0, symName: __ZN5_core4core11module_init17hc49873b5978480ddE, symObjAddr: 0x34, symBinAddr: 0x4D14, symSize: 0x22C }
  - { offsetInCU: 0x15D, offset: 0xD63C, size: 0x8, addend: 0x0, symName: __ZN5_core4core15__pyo3_pymodule17h41cb740bc4ace708E, symObjAddr: 0x260, symBinAddr: 0x4F40, symSize: 0xA8 }
  - { offsetInCU: 0x1E, offset: 0xEABD, size: 0x8, addend: 0x0, symName: __ZN4core4iter6traits8iterator8Iterator3zip17h34112794db915559E, symObjAddr: 0x0, symBinAddr: 0x5024, symSize: 0xB4 }
  - { offsetInCU: 0x152, offset: 0xEBF1, size: 0x8, addend: 0x0, symName: __ZN4core4iter6traits8iterator8Iterator3zip17h34112794db915559E, symObjAddr: 0x0, symBinAddr: 0x5024, symSize: 0xB4 }
  - { offsetInCU: 0x1E, offset: 0xF059, size: 0x8, addend: 0x0, symName: '__ZN104_$LT$core..iter..adapters..copied..Copied$LT$I$GT$$u20$as$u20$core..iter..traits..iterator..Iterator$GT$4next17h029c7969e5135c63E', symObjAddr: 0x0, symBinAddr: 0x50D8, symSize: 0x5C }
  - { offsetInCU: 0x270, offset: 0xF2AB, size: 0x8, addend: 0x0, symName: '__ZN104_$LT$core..iter..adapters..copied..Copied$LT$I$GT$$u20$as$u20$core..iter..traits..iterator..Iterator$GT$4next17h029c7969e5135c63E', symObjAddr: 0x0, symBinAddr: 0x50D8, symSize: 0x5C }
  - { offsetInCU: 0x315, offset: 0xF350, size: 0x8, addend: 0x0, symName: '__ZN63_$LT$I$u20$as$u20$core..iter..traits..collect..IntoIterator$GT$9into_iter17h192e69e8190054ccE', symObjAddr: 0x5C, symBinAddr: 0x5134, symSize: 0x1C }
  - { offsetInCU: 0x1E, offset: 0xF5CB, size: 0x8, addend: 0x0, symName: __ZN4core3ptr19copy_nonoverlapping18precondition_check17hac3522c8ecaeef19E, symObjAddr: 0x0, symBinAddr: 0x5150, symSize: 0x168 }
  - { offsetInCU: 0x106, offset: 0xF6B3, size: 0x8, addend: 0x0, symName: __ZN4core3ptr19copy_nonoverlapping18precondition_check17hac3522c8ecaeef19E, symObjAddr: 0x0, symBinAddr: 0x5150, symSize: 0x168 }
  - { offsetInCU: 0x1E, offset: 0xF8E5, size: 0x8, addend: 0x0, symName: __ZN4core5slice3raw14from_raw_parts18precondition_check17hcbc9eed62e114a9fE, symObjAddr: 0x0, symBinAddr: 0x52B8, symSize: 0x10C }
  - { offsetInCU: 0x104, offset: 0xF9CB, size: 0x8, addend: 0x0, symName: __ZN4core5slice3raw14from_raw_parts18precondition_check17hcbc9eed62e114a9fE, symObjAddr: 0x0, symBinAddr: 0x52B8, symSize: 0x10C }
  - { offsetInCU: 0x36, offset: 0xFB78, size: 0x8, addend: 0x0, symName: __ZN5_core6ensure9_PYO3_DEF17h94ae2bbe40a9c40cE, symObjAddr: 0x20, symBinAddr: 0x80430, symSize: 0x0 }
  - { offsetInCU: 0x1E, offset: 0xFDF0, size: 0x8, addend: 0x0, symName: '__ZN5alloc7raw_vec19RawVec$LT$T$C$A$GT$8grow_one17hda3a82fd35205dedE', symObjAddr: 0x0, symBinAddr: 0x53C4, symSize: 0x88 }
  - { offsetInCU: 0x58D, offset: 0x1035F, size: 0x8, addend: 0x0, symName: '__ZN5alloc7raw_vec19RawVec$LT$T$C$A$GT$8grow_one17hda3a82fd35205dedE', symObjAddr: 0x0, symBinAddr: 0x53C4, symSize: 0x88 }
  - { offsetInCU: 0x1E, offset: 0x103EA, size: 0x8, addend: 0x0, symName: '__ZN4core5slice29_$LT$impl$u20$$u5b$T$u5d$$GT$18split_at_unchecked18precondition_check17hdbd0773d5c9ad3d0E', symObjAddr: 0x0, symBinAddr: 0x544C, symSize: 0x60 }
  - { offsetInCU: 0x3F, offset: 0x1040B, size: 0x8, addend: 0x0, symName: '__ZN4core5slice29_$LT$impl$u20$$u5b$T$u5d$$GT$18split_at_unchecked18precondition_check17hdbd0773d5c9ad3d0E', symObjAddr: 0x0, symBinAddr: 0x544C, symSize: 0x60 }
  - { offsetInCU: 0x1E, offset: 0x104B5, size: 0x8, addend: 0x0, symName: __ZN4pyo38internal5state11AttachGuard6python17h584f2651162d932cE, symObjAddr: 0x0, symBinAddr: 0x54AC, symSize: 0x20 }
  - { offsetInCU: 0xD4, offset: 0x1056B, size: 0x8, addend: 0x0, symName: __ZN4pyo38internal5state11AttachGuard6python17h584f2651162d932cE, symObjAddr: 0x0, symBinAddr: 0x54AC, symSize: 0x20 }
  - { offsetInCU: 0x1E, offset: 0x105AB, size: 0x8, addend: 0x0, symName: __ZN5_core17__pyfunction_home17h1c3f28de657484daE, symObjAddr: 0x0, symBinAddr: 0x54CC, symSize: 0x17C }
  - { offsetInCU: 0x97, offset: 0x10624, size: 0x8, addend: 0x0, symName: __ZN5_core17__pyfunction_home17h1c3f28de657484daE, symObjAddr: 0x0, symBinAddr: 0x54CC, symSize: 0x17C }
  - { offsetInCU: 0x132, offset: 0x106BF, size: 0x8, addend: 0x0, symName: __ZN5_core19__pyfunction_ensure17h3d2633f8437eddc4E, symObjAddr: 0x17C, symBinAddr: 0x5648, symSize: 0x2E4 }
  - { offsetInCU: 0x2AB, offset: 0x10838, size: 0x8, addend: 0x0, symName: __ZN5_core4home17h7a53e8b6df66ec00E, symObjAddr: 0x460, symBinAddr: 0x592C, symSize: 0x90 }
  - { offsetInCU: 0x2C8, offset: 0x10855, size: 0x8, addend: 0x0, symName: __ZN5_core6ensure17h5fcb3c08ffe5890eE, symObjAddr: 0x4F0, symBinAddr: 0x59BC, symSize: 0x50 }
  - { offsetInCU: 0xA6, offset: 0x1157A, size: 0x8, addend: 0x0, symName: __ZN4core3ops8function6FnOnce9call_once17h89196d0698aaef77E, symObjAddr: 0x24, symBinAddr: 0x5A0C, symSize: 0x24 }
  - { offsetInCU: 0xEA, offset: 0x115BE, size: 0x8, addend: 0x0, symName: __ZN4core3ops8function6FnOnce9call_once17he75a7b1c652dd75cE, symObjAddr: 0x48, symBinAddr: 0x5A30, symSize: 0x48 }
  - { offsetInCU: 0x136, offset: 0x1160A, size: 0x8, addend: 0x0, symName: '__ZN4core3ptr89drop_in_place$LT$core..result..Result$LT$alloc..string..String$C$pyo3..err..PyErr$GT$$GT$17h1dca77cabcd762f0E', symObjAddr: 0x144, symBinAddr: 0x5A78, symSize: 0x50 }
  - { offsetInCU: 0x1E, offset: 0x12140, size: 0x8, addend: 0x0, symName: '__ZN106_$LT$pyo3..impl_..extract_argument..NoVarargs$u20$as$u20$pyo3..impl_..extract_argument..VarargsHandler$GT$23handle_varargs_fastcall17h9ae9bcae4829a891E', symObjAddr: 0x0, symBinAddr: 0x5AC8, symSize: 0xB4 }
  - { offsetInCU: 0xA6, offset: 0x121C8, size: 0x8, addend: 0x0, symName: '__ZN106_$LT$pyo3..impl_..extract_argument..NoVarargs$u20$as$u20$pyo3..impl_..extract_argument..VarargsHandler$GT$23handle_varargs_fastcall17h9ae9bcae4829a891E', symObjAddr: 0x0, symBinAddr: 0x5AC8, symSize: 0xB4 }
  - { offsetInCU: 0x11A, offset: 0x1223C, size: 0x8, addend: 0x0, symName: '__ZN114_$LT$pyo3..impl_..extract_argument..NoVarkeywords$u20$as$u20$pyo3..impl_..extract_argument..VarkeywordsHandler$GT$17handle_varkeyword17h34dec11a2d734246E', symObjAddr: 0xB4, symBinAddr: 0x5B7C, symSize: 0x6C }
  - { offsetInCU: 0x259, offset: 0x1237B, size: 0x8, addend: 0x0, symName: __ZN4pyo35impl_16extract_argument24unwrap_required_argument17h03f1270647e74c64E, symObjAddr: 0x4D4, symBinAddr: 0x5F9C, symSize: 0x58 }
  - { offsetInCU: 0xDB6, offset: 0x12ED8, size: 0x8, addend: 0x0, symName: __ZN4pyo35impl_16extract_argument19FunctionDescription36find_keyword_parameter_in_positional17h6b8c5778d7ac1bc1E, symObjAddr: 0x120, symBinAddr: 0x5BE8, symSize: 0x5C }
  - { offsetInCU: 0xDE8, offset: 0x12F0A, size: 0x8, addend: 0x0, symName: __ZN4pyo35impl_16extract_argument19FunctionDescription38find_keyword_parameter_in_keyword_only17hfc50a777763e7e2aE, symObjAddr: 0x17C, symBinAddr: 0x5C44, symSize: 0x5C }
  - { offsetInCU: 0x1091, offset: 0x131B3, size: 0x8, addend: 0x0, symName: __ZN4pyo35impl_16extract_argument19FunctionDescription44ensure_no_missing_required_keyword_arguments17h0a37e1e8082cf09aE, symObjAddr: 0x1D8, symBinAddr: 0x5CA0, symSize: 0x160 }
  - { offsetInCU: 0x115D, offset: 0x1327F, size: 0x8, addend: 0x0, symName: __ZN4pyo35impl_16extract_argument19FunctionDescription47ensure_no_missing_required_positional_arguments17h7a48551d7a336b8bE, symObjAddr: 0x338, symBinAddr: 0x5E00, symSize: 0x19C }
  - { offsetInCU: 0x1E, offset: 0x133FA, size: 0x8, addend: 0x0, symName: '__ZN102_$LT$core..iter..adapters..zip..Zip$LT$A$C$B$GT$$u20$as$u20$core..iter..traits..iterator..Iterator$GT$4next17h0f4b554b5d6a22a9E', symObjAddr: 0x0, symBinAddr: 0x5FF4, symSize: 0x24 }
  - { offsetInCU: 0xAB, offset: 0x13487, size: 0x8, addend: 0x0, symName: '__ZN102_$LT$core..iter..adapters..zip..Zip$LT$A$C$B$GT$$u20$as$u20$core..iter..traits..iterator..Iterator$GT$4next17h0f4b554b5d6a22a9E', symObjAddr: 0x0, symBinAddr: 0x5FF4, symSize: 0x24 }
  - { offsetInCU: 0xEF, offset: 0x134CB, size: 0x8, addend: 0x0, symName: '__ZN111_$LT$core..iter..adapters..zip..Zip$LT$A$C$B$GT$$u20$as$u20$core..iter..adapters..zip..ZipImpl$LT$A$C$B$GT$$GT$3new17h47c96788390193ceE', symObjAddr: 0x24, symBinAddr: 0x6018, symSize: 0x3C }
  - { offsetInCU: 0x13B, offset: 0x13517, size: 0x8, addend: 0x0, symName: '__ZN111_$LT$core..iter..adapters..zip..Zip$LT$A$C$B$GT$$u20$as$u20$core..iter..adapters..zip..ZipImpl$LT$A$C$B$GT$$GT$4next17hf8181d9e273098ccE', symObjAddr: 0x60, symBinAddr: 0x6054, symSize: 0xE0 }
  - { offsetInCU: 0x368, offset: 0x13744, size: 0x8, addend: 0x0, symName: '__ZN63_$LT$I$u20$as$u20$core..iter..traits..collect..IntoIterator$GT$9into_iter17h07a6c0a9223e6538E', symObjAddr: 0x140, symBinAddr: 0x6134, symSize: 0x30 }
  - { offsetInCU: 0x3A0, offset: 0x1377C, size: 0x8, addend: 0x0, symName: '__ZN63_$LT$I$u20$as$u20$core..iter..traits..collect..IntoIterator$GT$9into_iter17h69812d5a1f005312E', symObjAddr: 0x170, symBinAddr: 0x6164, symSize: 0x30 }
  - { offsetInCU: 0x1E, offset: 0x13F28, size: 0x8, addend: 0x0, symName: '__ZN105_$LT$std..ffi..os_str..OsString$u20$as$u20$core..ops..index..Index$LT$core..ops..range..RangeFull$GT$$GT$5index17h63c2af1cf4d0be9aE', symObjAddr: 0x0, symBinAddr: 0x6194, symSize: 0x70 }
  - { offsetInCU: 0x408, offset: 0x14312, size: 0x8, addend: 0x0, symName: '__ZN105_$LT$std..ffi..os_str..OsString$u20$as$u20$core..ops..index..Index$LT$core..ops..range..RangeFull$GT$$GT$5index17h63c2af1cf4d0be9aE', symObjAddr: 0x0, symBinAddr: 0x6194, symSize: 0x70 }
  - { offsetInCU: 0x1E, offset: 0x144E2, size: 0x8, addend: 0x0, symName: '__ZN4pyo35impl_10trampoline6noargs5inner28_$u7b$$u7b$closure$u7d$$u7d$17h35df7fd190d1558bE', symObjAddr: 0x0, symBinAddr: 0x6204, symSize: 0x34 }
  - { offsetInCU: 0xAB, offset: 0x1456F, size: 0x8, addend: 0x0, symName: '__ZN4pyo35impl_10trampoline6noargs5inner28_$u7b$$u7b$closure$u7d$$u7d$17h35df7fd190d1558bE', symObjAddr: 0x0, symBinAddr: 0x6204, symSize: 0x34 }
  - { offsetInCU: 0x1E, offset: 0x14E9B, size: 0x8, addend: 0x0, symName: '__ZN4pyo38instance39Borrowed$LT$pyo3..types..any..PyAny$GT$13from_non_null17h05e3379a38670252E', symObjAddr: 0x0, symBinAddr: 0x6238, symSize: 0x14 }
  - { offsetInCU: 0x85F, offset: 0x156DC, size: 0x8, addend: 0x0, symName: '__ZN4pyo38instance39Borrowed$LT$pyo3..types..any..PyAny$GT$13from_non_null17h05e3379a38670252E', symObjAddr: 0x0, symBinAddr: 0x6238, symSize: 0x14 }
  - { offsetInCU: 0xAAC, offset: 0x15929, size: 0x8, addend: 0x0, symName: '__ZN4pyo38instance39Borrowed$LT$pyo3..types..any..PyAny$GT$15from_ptr_or_err17hdad7cc7a4e907264E', symObjAddr: 0x14, symBinAddr: 0x624C, symSize: 0x38 }
  - { offsetInCU: 0xAEA, offset: 0x15967, size: 0x8, addend: 0x0, symName: '__ZN4pyo38instance39Borrowed$LT$pyo3..types..any..PyAny$GT$15from_ptr_or_opt17hd88b77a3cad8b70eE', symObjAddr: 0x4C, symBinAddr: 0x6284, symSize: 0x2C }
  - { offsetInCU: 0x1E, offset: 0x159C3, size: 0x8, addend: 0x0, symName: __ZN4pyo36marker6Python15assume_attached17h9397e3974946899bE, symObjAddr: 0x0, symBinAddr: 0x62B0, symSize: 0x4 }
  - { offsetInCU: 0x15A, offset: 0x15AFF, size: 0x8, addend: 0x0, symName: __ZN4pyo36marker6Python15assume_attached17h9397e3974946899bE, symObjAddr: 0x0, symBinAddr: 0x62B0, symSize: 0x4 }
  - { offsetInCU: 0x1E, offset: 0x15B30, size: 0x8, addend: 0x0, symName: __ZN4pyo35impl_10trampoline32fastcall_cfunction_with_keywords5inner17h09bcb94e66e99aa6E, symObjAddr: 0x0, symBinAddr: 0x62B4, symSize: 0x5C }
  - { offsetInCU: 0xA6, offset: 0x15BB8, size: 0x8, addend: 0x0, symName: __ZN4pyo35impl_10trampoline32fastcall_cfunction_with_keywords5inner17h09bcb94e66e99aa6E, symObjAddr: 0x0, symBinAddr: 0x62B4, symSize: 0x5C }
  - { offsetInCU: 0x1E, offset: 0x1650A, size: 0x8, addend: 0x0, symName: __ZN4core5slice20copy_from_slice_impl17h575d631bd9194fc7E, symObjAddr: 0x0, symBinAddr: 0x6310, symSize: 0xAC }
  - { offsetInCU: 0xF0, offset: 0x165DC, size: 0x8, addend: 0x0, symName: __ZN4core5slice20copy_from_slice_impl17h575d631bd9194fc7E, symObjAddr: 0x0, symBinAddr: 0x6310, symSize: 0xAC }
  - { offsetInCU: 0x1E, offset: 0x169E3, size: 0x8, addend: 0x0, symName: __ZN3std4path4Path15to_string_lossy17h14846f90404c4c7eE, symObjAddr: 0x0, symBinAddr: 0x63BC, symSize: 0x24 }
  - { offsetInCU: 0x1A6, offset: 0x16B6B, size: 0x8, addend: 0x0, symName: '__ZN62_$LT$std..path..PathBuf$u20$as$u20$core..ops..deref..Deref$GT$5deref17h666a19d1ba8632a6E', symObjAddr: 0x24, symBinAddr: 0x63E0, symSize: 0x34 }
  - { offsetInCU: 0x252, offset: 0x16C17, size: 0x8, addend: 0x0, symName: '__ZN79_$LT$std..path..Path$u20$as$u20$core..convert..AsRef$LT$std..path..Path$GT$$GT$6as_ref17h58da3764ad788070E', symObjAddr: 0x58, symBinAddr: 0x6414, symSize: 0x18 }
  - { offsetInCU: 0x29B, offset: 0x16C60, size: 0x8, addend: 0x0, symName: '__ZN82_$LT$std..path..PathBuf$u20$as$u20$core..convert..AsRef$LT$std..path..Path$GT$$GT$6as_ref17he599a3b2f7896395E', symObjAddr: 0x70, symBinAddr: 0x642C, symSize: 0x34 }
  - { offsetInCU: 0x612, offset: 0x16FD7, size: 0x8, addend: 0x0, symName: __ZN3std4path4Path15to_string_lossy17h14846f90404c4c7eE, symObjAddr: 0x0, symBinAddr: 0x63BC, symSize: 0x24 }
  - { offsetInCU: 0x1E, offset: 0x170A4, size: 0x8, addend: 0x0, symName: __ZN3std5panic12catch_unwind17h19ccbd56f1e9d50dE, symObjAddr: 0x0, symBinAddr: 0x6460, symSize: 0xDC }
  - { offsetInCU: 0xEAB, offset: 0x17F31, size: 0x8, addend: 0x0, symName: __ZN3std5panic12catch_unwind17h19ccbd56f1e9d50dE, symObjAddr: 0x0, symBinAddr: 0x6460, symSize: 0xDC }
  - { offsetInCU: 0xF5E, offset: 0x17FE4, size: 0x8, addend: 0x0, symName: __ZN3std5panic12catch_unwind17h21941013917a4295E, symObjAddr: 0xDC, symBinAddr: 0x653C, symSize: 0xC0 }
  - { offsetInCU: 0xFF0, offset: 0x18076, size: 0x8, addend: 0x0, symName: __ZN3std5panic12catch_unwind17h57da81c80eddf775E, symObjAddr: 0x19C, symBinAddr: 0x65FC, symSize: 0xC0 }
  - { offsetInCU: 0x1E, offset: 0x182F9, size: 0x8, addend: 0x0, symName: __ZN4core3fmt9Arguments17from_str_nonconst17h8a287dde1a88ff63E, symObjAddr: 0x0, symBinAddr: 0x6710, symSize: 0x28 }
  - { offsetInCU: 0x36A, offset: 0x18645, size: 0x8, addend: 0x0, symName: __ZN4core3fmt9Arguments17from_str_nonconst17h8a287dde1a88ff63E, symObjAddr: 0x0, symBinAddr: 0x6710, symSize: 0x28 }
  - { offsetInCU: 0x38D, offset: 0x18668, size: 0x8, addend: 0x0, symName: __ZN4core3fmt9Arguments8from_str17h1dc82612d2e52f48E, symObjAddr: 0x28, symBinAddr: 0x6738, symSize: 0x20 }
  - { offsetInCU: 0x1E, offset: 0x186A9, size: 0x8, addend: 0x0, symName: __ZN4pyo35impl_10trampoline10trampoline17h183ad9754ae70147E, symObjAddr: 0x0, symBinAddr: 0x6758, symSize: 0x158 }
  - { offsetInCU: 0xA1, offset: 0x1872C, size: 0x8, addend: 0x0, symName: __ZN4pyo35impl_10trampoline10trampoline17h183ad9754ae70147E, symObjAddr: 0x0, symBinAddr: 0x6758, symSize: 0x158 }
  - { offsetInCU: 0x14A, offset: 0x187D5, size: 0x8, addend: 0x0, symName: __ZN4pyo35impl_10trampoline10trampoline17h1845351f45560f2dE, symObjAddr: 0x158, symBinAddr: 0x68B0, symSize: 0x160 }
  - { offsetInCU: 0x1F4, offset: 0x1887F, size: 0x8, addend: 0x0, symName: __ZN4pyo35impl_10trampoline10trampoline17he757fff0fdd6174fE, symObjAddr: 0x2B8, symBinAddr: 0x6A10, symSize: 0x158 }
  - { offsetInCU: 0x2A1, offset: 0x1892C, size: 0x8, addend: 0x0, symName: '__ZN4pyo35impl_10trampoline10trampoline28_$u7b$$u7b$closure$u7d$$u7d$17h33d8d54e146e6b0fE', symObjAddr: 0x410, symBinAddr: 0x6B68, symSize: 0x40 }
  - { offsetInCU: 0x2F3, offset: 0x1897E, size: 0x8, addend: 0x0, symName: '__ZN4pyo35impl_10trampoline10trampoline28_$u7b$$u7b$closure$u7d$$u7d$17h5d3b0ced6b831869E', symObjAddr: 0x450, symBinAddr: 0x6BA8, symSize: 0x2C }
  - { offsetInCU: 0x344, offset: 0x189CF, size: 0x8, addend: 0x0, symName: '__ZN4pyo35impl_10trampoline10trampoline28_$u7b$$u7b$closure$u7d$$u7d$17h8f9c645037540190E', symObjAddr: 0x47C, symBinAddr: 0x6BD4, symSize: 0x2C }
  - { offsetInCU: 0x39B, offset: 0x18A26, size: 0x8, addend: 0x0, symName: '__ZN4pyo35impl_10trampoline11module_exec28_$u7b$$u7b$closure$u7d$$u7d$17h2427714cd2b08781E', symObjAddr: 0x4A8, symBinAddr: 0x6C00, symSize: 0x1A4 }
  - { offsetInCU: 0x4AD, offset: 0x18B38, size: 0x8, addend: 0x0, symName: __ZN4pyo35impl_10trampoline32fastcall_cfunction_with_keywords17h47f06562d629930bE, symObjAddr: 0x64C, symBinAddr: 0x6DA4, symSize: 0x50 }
  - { offsetInCU: 0x50C, offset: 0x18B97, size: 0x8, addend: 0x0, symName: __ZN4pyo35impl_10trampoline6noargs17h77453d86cc4d61daE, symObjAddr: 0x69C, symBinAddr: 0x6DF4, symSize: 0x40 }
  - { offsetInCU: 0x1E, offset: 0x19A39, size: 0x8, addend: 0x0, symName: '__ZN100_$LT$pyo3..types..tuple..BorrowedTupleIterator$u20$as$u20$core..iter..traits..iterator..Iterator$GT$4next17h6d4b2b0024b1b5caE', symObjAddr: 0x0, symBinAddr: 0x6E34, symSize: 0x9C }
  - { offsetInCU: 0xA6, offset: 0x19AC1, size: 0x8, addend: 0x0, symName: '__ZN100_$LT$pyo3..types..tuple..BorrowedTupleIterator$u20$as$u20$core..iter..traits..iterator..Iterator$GT$4next17h6d4b2b0024b1b5caE', symObjAddr: 0x0, symBinAddr: 0x6E34, symSize: 0x9C }
  - { offsetInCU: 0x1E, offset: 0x19EAA, size: 0x8, addend: 0x0, symName: '__ZN4core5slice29_$LT$impl$u20$$u5b$T$u5d$$GT$4iter17hf2d9107e5c7fdef7E', symObjAddr: 0x0, symBinAddr: 0x6ED0, symSize: 0x28 }
  - { offsetInCU: 0xA1, offset: 0x19F2D, size: 0x8, addend: 0x0, symName: '__ZN4core5slice29_$LT$impl$u20$$u5b$T$u5d$$GT$4iter17hf2d9107e5c7fdef7E', symObjAddr: 0x0, symBinAddr: 0x6ED0, symSize: 0x28 }
  - { offsetInCU: 0x3EE, offset: 0x1A27A, size: 0x8, addend: 0x0, symName: '__ZN4pyo38instance17Borrowed$LT$T$GT$4cast5inner17he2721a6569253c42E', symObjAddr: 0x58, symBinAddr: 0x6F28, symSize: 0x7C }
  - { offsetInCU: 0x431, offset: 0x1A2BD, size: 0x8, addend: 0x0, symName: '__ZN4pyo38instance39Borrowed$LT$pyo3..types..any..PyAny$GT$15from_ptr_or_opt28_$u7b$$u7b$closure$u7d$$u7d$17h468fe8605f0c8ca3E', symObjAddr: 0xD4, symBinAddr: 0x6FA4, symSize: 0x30 }
  - { offsetInCU: 0x607, offset: 0x1A493, size: 0x8, addend: 0x0, symName: '__ZN4pyo38instance17Borrowed$LT$T$GT$4cast17h3e2b8e8b0e9369b6E', symObjAddr: 0x28, symBinAddr: 0x6EF8, symSize: 0x30 }
  - { offsetInCU: 0x1E, offset: 0x1A53B, size: 0x8, addend: 0x0, symName: '__ZN4pyo35impl_10trampoline32fastcall_cfunction_with_keywords5inner28_$u7b$$u7b$closure$u7d$$u7d$17h1e1de087f33a81c7E', symObjAddr: 0x0, symBinAddr: 0x6FD4, symSize: 0x48 }
  - { offsetInCU: 0xAB, offset: 0x1A5C8, size: 0x8, addend: 0x0, symName: '__ZN4pyo35impl_10trampoline32fastcall_cfunction_with_keywords5inner28_$u7b$$u7b$closure$u7d$$u7d$17h1e1de087f33a81c7E', symObjAddr: 0x0, symBinAddr: 0x6FD4, symSize: 0x48 }
  - { offsetInCU: 0x1E, offset: 0x1AF3E, size: 0x8, addend: 0x0, symName: __ZN4core9ub_checks23maybe_is_nonoverlapping7runtime17h6cd1de27e5bf84d6E, symObjAddr: 0x0, symBinAddr: 0x701C, symSize: 0xD8 }
  - { offsetInCU: 0x1A3, offset: 0x1B0C3, size: 0x8, addend: 0x0, symName: __ZN4core9ub_checks23maybe_is_nonoverlapping7runtime17h6cd1de27e5bf84d6E, symObjAddr: 0x0, symBinAddr: 0x701C, symSize: 0xD8 }
  - { offsetInCU: 0x36, offset: 0x1B2EE, size: 0x8, addend: 0x0, symName: __ZN5_core4home9_PYO3_DEF17hfa3283fa26932bacE, symObjAddr: 0x18, symBinAddr: 0x80450, symSize: 0x0 }
  - { offsetInCU: 0x1E, offset: 0x1B566, size: 0x8, addend: 0x0, symName: '__ZN62_$LT$std..path..PathBuf$u20$as$u20$core..ops..deref..Deref$GT$5deref17h63116382accc205cE', symObjAddr: 0x0, symBinAddr: 0x7110, symSize: 0x34 }
  - { offsetInCU: 0x154, offset: 0x1B69C, size: 0x8, addend: 0x0, symName: '__ZN62_$LT$std..path..PathBuf$u20$as$u20$core..ops..deref..Deref$GT$5deref17h63116382accc205cE', symObjAddr: 0x0, symBinAddr: 0x7110, symSize: 0x34 }
  - { offsetInCU: 0x20E, offset: 0x1B756, size: 0x8, addend: 0x0, symName: '__ZN87_$LT$std..path..PathBuf$u20$as$u20$core..convert..From$LT$alloc..string..String$GT$$GT$4from17h0d1ac6019d8e4654E', symObjAddr: 0x34, symBinAddr: 0x7144, symSize: 0x50 }
  - { offsetInCU: 0x1E, offset: 0x1B9FA, size: 0x8, addend: 0x0, symName: '__ZN4core6option15Option$LT$T$GT$6expect17h9c2e6b503f68af57E', symObjAddr: 0x0, symBinAddr: 0x7194, symSize: 0x74 }
  - { offsetInCU: 0x370, offset: 0x1BD4C, size: 0x8, addend: 0x0, symName: '__ZN4core6option15Option$LT$T$GT$6expect17h9c2e6b503f68af57E', symObjAddr: 0x0, symBinAddr: 0x7194, symSize: 0x74 }
  - { offsetInCU: 0x1E, offset: 0x1BDA6, size: 0x8, addend: 0x0, symName: '__ZN105_$LT$std..ffi..os_str..OsString$u20$as$u20$core..ops..index..Index$LT$core..ops..range..RangeFull$GT$$GT$5index17h7ade30e5e4f67493E', symObjAddr: 0x0, symBinAddr: 0x7208, symSize: 0x70 }
  - { offsetInCU: 0x408, offset: 0x1C190, size: 0x8, addend: 0x0, symName: '__ZN105_$LT$std..ffi..os_str..OsString$u20$as$u20$core..ops..index..Index$LT$core..ops..range..RangeFull$GT$$GT$5index17h7ade30e5e4f67493E', symObjAddr: 0x0, symBinAddr: 0x7208, symSize: 0x70 }
  - { offsetInCU: 0x1E, offset: 0x1C360, size: 0x8, addend: 0x0, symName: __ZN3std3env3var17h19832ff1d096264bE, symObjAddr: 0x0, symBinAddr: 0x7278, symSize: 0x68 }
  - { offsetInCU: 0x35, offset: 0x1C377, size: 0x8, addend: 0x0, symName: __ZN3std3env3var17h19832ff1d096264bE, symObjAddr: 0x0, symBinAddr: 0x7278, symSize: 0x68 }
  - { offsetInCU: 0x1E, offset: 0x1C6A8, size: 0x8, addend: 0x0, symName: __ZN5alloc6string6String8is_empty17hca79177093cb5d54E, symObjAddr: 0x0, symBinAddr: 0x72E0, symSize: 0x20 }
  - { offsetInCU: 0x257, offset: 0x1C8E1, size: 0x8, addend: 0x0, symName: __ZN5alloc6string6String8is_empty17hca79177093cb5d54E, symObjAddr: 0x0, symBinAddr: 0x72E0, symSize: 0x20 }
  - { offsetInCU: 0x1E, offset: 0x1C955, size: 0x8, addend: 0x0, symName: '__ZN4core3ptr39drop_in_place$LT$std..env..VarError$GT$17h9528943cfb4a97f6E', symObjAddr: 0x0, symBinAddr: 0x7300, symSize: 0x48 }
  - { offsetInCU: 0x35, offset: 0x1C96C, size: 0x8, addend: 0x0, symName: '__ZN4core3ptr39drop_in_place$LT$std..env..VarError$GT$17h9528943cfb4a97f6E', symObjAddr: 0x0, symBinAddr: 0x7300, symSize: 0x48 }
  - { offsetInCU: 0x64, offset: 0x1C99B, size: 0x8, addend: 0x0, symName: '__ZN4core3ptr42drop_in_place$LT$alloc..string..String$GT$17h97b7bdbae02a8e8aE', symObjAddr: 0x48, symBinAddr: 0x7348, symSize: 0x24 }
  - { offsetInCU: 0x93, offset: 0x1C9CA, size: 0x8, addend: 0x0, symName: '__ZN4core3ptr91drop_in_place$LT$core..result..Result$LT$alloc..string..String$C$std..env..VarError$GT$$GT$17hb025d22c9ed198d5E', symObjAddr: 0x6C, symBinAddr: 0x736C, symSize: 0x50 }
  - { offsetInCU: 0x1E, offset: 0x1CCF5, size: 0x8, addend: 0x0, symName: __ZN4core5slice3raw14from_raw_parts18precondition_check17hd0d690eafff14866E, symObjAddr: 0x0, symBinAddr: 0x73BC, symSize: 0x10C }
  - { offsetInCU: 0x104, offset: 0x1CDDB, size: 0x8, addend: 0x0, symName: __ZN4core5slice3raw14from_raw_parts18precondition_check17hd0d690eafff14866E, symObjAddr: 0x0, symBinAddr: 0x73BC, symSize: 0x10C }
  - { offsetInCU: 0x1E, offset: 0x1CF70, size: 0x8, addend: 0x0, symName: __ZN9dkdc_home4home17h73dd954bffe236b1E, symObjAddr: 0x0, symBinAddr: 0x74C8, symSize: 0x1EC }
  - { offsetInCU: 0x30, offset: 0x1CF82, size: 0x8, addend: 0x0, symName: __ZN9dkdc_home4home17h73dd954bffe236b1E, symObjAddr: 0x0, symBinAddr: 0x74C8, symSize: 0x1EC }
  - { offsetInCU: 0x511, offset: 0x1D6BC, size: 0x8, addend: 0x0, symName: '__ZN55_$LT$$RF$T$u20$as$u20$core..convert..AsRef$LT$U$GT$$GT$6as_ref17h45f1c13ac9c33f52E', symObjAddr: 0x124C, symBinAddr: 0x7774, symSize: 0x30 }
  - { offsetInCU: 0x6CD, offset: 0x1D878, size: 0x8, addend: 0x0, symName: '__ZN3std4path77_$LT$impl$u20$core..convert..AsRef$LT$std..path..Path$GT$$u20$for$u20$str$GT$6as_ref17h36700f37a3439bdeE', symObjAddr: 0xF0, symBinAddr: 0x7734, symSize: 0x18 }
  - { offsetInCU: 0x777, offset: 0x1D922, size: 0x8, addend: 0x0, symName: __ZN3std4path4Path4join17h05f49f1e93c13eceE, symObjAddr: 0x70, symBinAddr: 0x76B4, symSize: 0x80 }
  - { offsetInCU: 0x860, offset: 0x1DA0B, size: 0x8, addend: 0x0, symName: __ZN4dirs3mac8home_dir17hd2e659631b1d4f55E, symObjAddr: 0xF74, symBinAddr: 0x774C, symSize: 0x14 }
  - { offsetInCU: 0x87E, offset: 0x1DA29, size: 0x8, addend: 0x0, symName: __ZN4dirs8home_dir17h526533f5db52ecc5E, symObjAddr: 0x11E8, symBinAddr: 0x7760, symSize: 0x14 }
  - { offsetInCU: 0x1E, offset: 0x1DA7F, size: 0x8, addend: 0x0, symName: '__ZN105_$LT$std..ffi..os_str..OsString$u20$as$u20$core..ops..index..Index$LT$core..ops..range..RangeFull$GT$$GT$5index17hbe3a22a6f6e8f554E', symObjAddr: 0x0, symBinAddr: 0x77A4, symSize: 0x70 }
  - { offsetInCU: 0x418, offset: 0x1DE79, size: 0x8, addend: 0x0, symName: '__ZN4core3ptr9const_ptr33_$LT$impl$u20$$BP$const$u20$T$GT$13is_aligned_to17h37672a2d65165ab6E', symObjAddr: 0x604, symBinAddr: 0x7DA4, symSize: 0x88 }
  - { offsetInCU: 0x5BD, offset: 0x1E01E, size: 0x8, addend: 0x0, symName: __ZN4core3ptr11write_bytes18precondition_check17h328d26828ecab5b7E, symObjAddr: 0x234, symBinAddr: 0x79D4, symSize: 0x9C }
  - { offsetInCU: 0x695, offset: 0x1E0F6, size: 0x8, addend: 0x0, symName: __ZN4core3ptr19copy_nonoverlapping18precondition_check17ha2f9b867680a3632E, symObjAddr: 0x2D0, symBinAddr: 0x7A70, symSize: 0x168 }
  - { offsetInCU: 0x84A, offset: 0x1E2AB, size: 0x8, addend: 0x0, symName: '__ZN4core3ptr39drop_in_place$LT$std..path..PathBuf$GT$17hc25975e86f57d7f1E', symObjAddr: 0x438, symBinAddr: 0x7BD8, symSize: 0x24 }
  - { offsetInCU: 0x879, offset: 0x1E2DA, size: 0x8, addend: 0x0, symName: '__ZN4core3ptr46drop_in_place$LT$alloc..vec..Vec$LT$i8$GT$$GT$17hb1b82f958a88908fE', symObjAddr: 0x45C, symBinAddr: 0x7BFC, symSize: 0x5C }
  - { offsetInCU: 0x8A8, offset: 0x1E309, size: 0x8, addend: 0x0, symName: '__ZN4core3ptr46drop_in_place$LT$alloc..vec..Vec$LT$u8$GT$$GT$17h76dbf2c2fe4c9166E', symObjAddr: 0x4B8, symBinAddr: 0x7C58, symSize: 0x5C }
  - { offsetInCU: 0x8D7, offset: 0x1E338, size: 0x8, addend: 0x0, symName: '__ZN4core3ptr47drop_in_place$LT$std..ffi..os_str..OsString$GT$17hd4cb72bcd7eb60aaE', symObjAddr: 0x514, symBinAddr: 0x7CB4, symSize: 0x24 }
  - { offsetInCU: 0x906, offset: 0x1E367, size: 0x8, addend: 0x0, symName: '__ZN4core3ptr49drop_in_place$LT$std..sys..os_str..bytes..Buf$GT$17h39a4582357d60d51E', symObjAddr: 0x538, symBinAddr: 0x7CD8, symSize: 0x24 }
  - { offsetInCU: 0x935, offset: 0x1E396, size: 0x8, addend: 0x0, symName: '__ZN4core3ptr53drop_in_place$LT$alloc..raw_vec..RawVec$LT$i8$GT$$GT$17hfcac647c12ea08ecE', symObjAddr: 0x55C, symBinAddr: 0x7CFC, symSize: 0x24 }
  - { offsetInCU: 0x964, offset: 0x1E3C5, size: 0x8, addend: 0x0, symName: '__ZN4core3ptr53drop_in_place$LT$alloc..raw_vec..RawVec$LT$u8$GT$$GT$17h81de4c91a3a6608aE', symObjAddr: 0x580, symBinAddr: 0x7D20, symSize: 0x24 }
  - { offsetInCU: 0x993, offset: 0x1E3F4, size: 0x8, addend: 0x0, symName: '__ZN4core3ptr75drop_in_place$LT$core..option..Option$LT$std..ffi..os_str..OsString$GT$$GT$17hddcfa8ecc30b8d38E', symObjAddr: 0x5A4, symBinAddr: 0x7D44, symSize: 0x48 }
  - { offsetInCU: 0x9CC, offset: 0x1E42D, size: 0x8, addend: 0x0, symName: '__ZN4core3ptr7mut_ptr31_$LT$impl$u20$$BP$mut$u20$T$GT$7is_null17hc0ded3c79de5138cE', symObjAddr: 0x5EC, symBinAddr: 0x7D8C, symSize: 0x18 }
  - { offsetInCU: 0xD3B, offset: 0x1E79C, size: 0x8, addend: 0x0, symName: __ZN4core5slice3raw14from_raw_parts18precondition_check17h050020fff183ddadE, symObjAddr: 0x700, symBinAddr: 0x7EA0, symSize: 0x10C }
  - { offsetInCU: 0xE99, offset: 0x1E8FA, size: 0x8, addend: 0x0, symName: '__ZN4core5slice29_$LT$impl$u20$$u5b$T$u5d$$GT$8is_empty17hf2ab66c6e2b93bb7E', symObjAddr: 0x6E4, symBinAddr: 0x7E84, symSize: 0x1C }
  - { offsetInCU: 0xFCE, offset: 0x1EA2F, size: 0x8, addend: 0x0, symName: __ZN4core3ops8function6FnOnce9call_once17hbf311950118add47E, symObjAddr: 0x200, symBinAddr: 0x79A0, symSize: 0x34 }
  - { offsetInCU: 0x122F, offset: 0x1EC90, size: 0x8, addend: 0x0, symName: __ZN4core9ub_checks23maybe_is_nonoverlapping7runtime17h346f4a14fe0169c6E, symObjAddr: 0x9C4, symBinAddr: 0x8164, symSize: 0xD8 }
  - { offsetInCU: 0x13E6, offset: 0x1EE47, size: 0x8, addend: 0x0, symName: __ZN4core4hint16assert_unchecked18precondition_check17hc47543834cebe076E, symObjAddr: 0x68C, symBinAddr: 0x7E2C, symSize: 0x58 }
  - { offsetInCU: 0x1620, offset: 0x1F081, size: 0x8, addend: 0x0, symName: '__ZN55_$LT$$RF$T$u20$as$u20$core..convert..AsRef$LT$U$GT$$GT$6as_ref17h43abaf6b33b50310E', symObjAddr: 0xA9C, symBinAddr: 0x823C, symSize: 0x30 }
  - { offsetInCU: 0x1A7E, offset: 0x1F4DF, size: 0x8, addend: 0x0, symName: '__ZN77_$LT$alloc..raw_vec..RawVec$LT$T$C$A$GT$$u20$as$u20$core..ops..drop..Drop$GT$4drop17h85089f49e43b07b0E', symObjAddr: 0xD58, symBinAddr: 0x84C4, symSize: 0x30 }
  - { offsetInCU: 0x1CD1, offset: 0x1F732, size: 0x8, addend: 0x0, symName: '__ZN5alloc3vec16Vec$LT$T$C$A$GT$7set_len18precondition_check17h851251680deb3ac6E', symObjAddr: 0xB24, symBinAddr: 0x82C4, symSize: 0x60 }
  - { offsetInCU: 0x1D2B, offset: 0x1F78C, size: 0x8, addend: 0x0, symName: '__ZN70_$LT$alloc..vec..Vec$LT$T$C$A$GT$$u20$as$u20$core..ops..drop..Drop$GT$4drop17he75c5a5fb4821667E', symObjAddr: 0xD08, symBinAddr: 0x8474, symSize: 0x24 }
  - { offsetInCU: 0x1E24, offset: 0x1F885, size: 0x8, addend: 0x0, symName: '__ZN5alloc5slice29_$LT$impl$u20$$u5b$T$u5d$$GT$6to_vec17h43979227acd7f001E', symObjAddr: 0xBBC, symBinAddr: 0x835C, symSize: 0x28 }
  - { offsetInCU: 0x1E8B, offset: 0x1F8EC, size: 0x8, addend: 0x0, symName: '__ZN87_$LT$T$u20$as$u20$alloc..slice..$LT$impl$u20$$u5b$T$u5d$$GT$..to_vec_in..ConvertVec$GT$6to_vec17h6a8501b265bef34fE', symObjAddr: 0xDB8, symBinAddr: 0x8524, symSize: 0xF4 }
  - { offsetInCU: 0x22A0, offset: 0x1FD01, size: 0x8, addend: 0x0, symName: '__ZN105_$LT$std..ffi..os_str..OsString$u20$as$u20$core..ops..index..Index$LT$core..ops..range..RangeFull$GT$$GT$5index17hbe3a22a6f6e8f554E', symObjAddr: 0x0, symBinAddr: 0x77A4, symSize: 0x70 }
  - { offsetInCU: 0x23DB, offset: 0x1FE3C, size: 0x8, addend: 0x0, symName: '__ZN3std3ffi6os_str85_$LT$impl$u20$core..convert..AsRef$LT$std..ffi..os_str..OsStr$GT$$u20$for$u20$str$GT$6as_ref17h1f0bd991a07460ecE', symObjAddr: 0xF4, symBinAddr: 0x7898, symSize: 0x18 }
  - { offsetInCU: 0x2424, offset: 0x1FE85, size: 0x8, addend: 0x0, symName: '__ZN70_$LT$std..ffi..os_str..OsString$u20$as$u20$core..ops..deref..Deref$GT$5deref17h4a84b99cb75337a2E', symObjAddr: 0xD2C, symBinAddr: 0x8498, symSize: 0x2C }
  - { offsetInCU: 0x2471, offset: 0x1FED2, size: 0x8, addend: 0x0, symName: __ZN3std3env6var_os17h8d86579d79ec63f4E, symObjAddr: 0x70, symBinAddr: 0x7814, symSize: 0x68 }
  - { offsetInCU: 0x24C8, offset: 0x1FF29, size: 0x8, addend: 0x0, symName: '__ZN92_$LT$std..path..PathBuf$u20$as$u20$core..convert..From$LT$std..ffi..os_str..OsString$GT$$GT$4from17h390972561a018ad6E', symObjAddr: 0x1358, symBinAddr: 0x89C4, symSize: 0x18 }
  - { offsetInCU: 0x2511, offset: 0x1FF72, size: 0x8, addend: 0x0, symName: '__ZN86_$LT$std..ffi..os_str..OsString$u20$as$u20$std..os..unix..ffi..os_str..OsStringExt$GT$8from_vec17h01d272d69fd93bdeE', symObjAddr: 0xD88, symBinAddr: 0x84F4, symSize: 0x30 }
  - { offsetInCU: 0x25CB, offset: 0x2002C, size: 0x8, addend: 0x0, symName: __ZN3std3ffi6os_str5OsStr8is_empty17h5301e00bd98ba9d0E, symObjAddr: 0xD8, symBinAddr: 0x787C, symSize: 0x1C }
  - { offsetInCU: 0x265C, offset: 0x200BD, size: 0x8, addend: 0x0, symName: __ZN4core3ffi5c_str4CStr8from_ptr17hc05b40e7f5644196E, symObjAddr: 0x110, symBinAddr: 0x78B0, symSize: 0x7C }
  - { offsetInCU: 0x2772, offset: 0x201D3, size: 0x8, addend: 0x0, symName: __ZN4core3ffi5c_str4CStr8to_bytes17hb563ecbd24a6d3c0E, symObjAddr: 0x18C, symBinAddr: 0x792C, symSize: 0x74 }
  - { offsetInCU: 0x28EF, offset: 0x20350, size: 0x8, addend: 0x0, symName: '__ZN4core6option15Option$LT$T$GT$3map17h9a1f2e5d40dc377dE', symObjAddr: 0x80C, symBinAddr: 0x7FAC, symSize: 0x90 }
  - { offsetInCU: 0x2978, offset: 0x203D9, size: 0x8, addend: 0x0, symName: '__ZN8dirs_sys21target_unix_not_redox8home_dir28_$u7b$$u7b$closure$u7d$$u7d$17h047a2adbd1fcca30E', symObjAddr: 0x1010, symBinAddr: 0x867C, symSize: 0xDC }
  - { offsetInCU: 0x29AF, offset: 0x20410, size: 0x8, addend: 0x0, symName: '__ZN8dirs_sys21target_unix_not_redox8home_dir28_$u7b$$u7b$closure$u7d$$u7d$17hfb8c14c863768251E', symObjAddr: 0x10EC, symBinAddr: 0x8758, symSize: 0x1C }
  - { offsetInCU: 0x29D7, offset: 0x20438, size: 0x8, addend: 0x0, symName: __ZN8dirs_sys21target_unix_not_redox8home_dir8fallback17h518a3870a6029f15E, symObjAddr: 0x1108, symBinAddr: 0x8774, symSize: 0x250 }
  - { offsetInCU: 0x2C2D, offset: 0x2068E, size: 0x8, addend: 0x0, symName: __ZN8dirs_sys21target_unix_not_redox8home_dir17he72ec18081f40cd4E, symObjAddr: 0xFAC, symBinAddr: 0x8618, symSize: 0x64 }
  - { offsetInCU: 0x2C4C, offset: 0x206AD, size: 0x8, addend: 0x0, symName: '__ZN4core6option15Option$LT$T$GT$7or_else17h65aca743ecf16ce5E', symObjAddr: 0x89C, symBinAddr: 0x803C, symSize: 0xAC }
  - { offsetInCU: 0x2C91, offset: 0x206F2, size: 0x8, addend: 0x0, symName: '__ZN4core6option15Option$LT$T$GT$8and_then17h993a6e344c3dc2a6E', symObjAddr: 0x948, symBinAddr: 0x80E8, symSize: 0x7C }
  - { offsetInCU: 0x2D7D, offset: 0x207DE, size: 0x8, addend: 0x0, symName: '__ZN5alloc3vec12Vec$LT$T$GT$13with_capacity17hd88df6c6cdfc2b40E', symObjAddr: 0xACC, symBinAddr: 0x826C, symSize: 0x40 }
  - { offsetInCU: 0x2E5A, offset: 0x208BB, size: 0x8, addend: 0x0, symName: '__ZN5alloc3vec16Vec$LT$T$C$A$GT$10as_mut_ptr17h7973d45695f9677dE', symObjAddr: 0xB0C, symBinAddr: 0x82AC, symSize: 0x18 }
  - { offsetInCU: 0x2F3D, offset: 0x2099E, size: 0x8, addend: 0x0, symName: '__ZN5alloc3vec16Vec$LT$T$C$A$GT$8capacity17hf63661b0cd7b8706E', symObjAddr: 0xB84, symBinAddr: 0x8324, symSize: 0x38 }
  - { offsetInCU: 0x306E, offset: 0x20ACF, size: 0x8, addend: 0x0, symName: '__ZN5alloc7raw_vec20RawVecInner$LT$A$GT$16with_capacity_in17h6e1bf4ae6ceb1e32E', symObjAddr: 0xBE4, symBinAddr: 0x8384, symSize: 0xF0 }
  - { offsetInCU: 0x91D, offset: 0x218D7, size: 0x8, addend: 0x0, symName: '__ZN44_$LT$$RF$T$u20$as$u20$core..fmt..Display$GT$3fmt17h17a3ec3a3c03590cE', symObjAddr: 0x6CE0, symBinAddr: 0xA460, symSize: 0x30 }
  - { offsetInCU: 0x963, offset: 0x2191D, size: 0x8, addend: 0x0, symName: '__ZN44_$LT$$RF$T$u20$as$u20$core..fmt..Display$GT$3fmt17h644d8bc6b7565eb7E', symObjAddr: 0x6D10, symBinAddr: 0xA490, symSize: 0x30 }
  - { offsetInCU: 0xAF1, offset: 0x21AAB, size: 0x8, addend: 0x0, symName: '__ZN4core5array4iter94_$LT$impl$u20$core..iter..traits..collect..IntoIterator$u20$for$u20$$u5b$T$u3b$$u20$N$u5d$$GT$9into_iter17hc54f9b1c6df2dd77E', symObjAddr: 0x6FBC, symBinAddr: 0xA520, symSize: 0x58 }
  - { offsetInCU: 0x34AD, offset: 0x24467, size: 0x8, addend: 0x0, symName: '__ZN50_$LT$T$u20$as$u20$core..convert..Into$LT$U$GT$$GT$4into17h1c470c73a2e7f750E', symObjAddr: 0xDAD4, symBinAddr: 0xC864, symSize: 0x24 }
  - { offsetInCU: 0x34ED, offset: 0x244A7, size: 0x8, addend: 0x0, symName: '__ZN50_$LT$T$u20$as$u20$core..convert..Into$LT$U$GT$$GT$4into17h4d7083190381c88dE', symObjAddr: 0xDB1C, symBinAddr: 0xC888, symSize: 0x24 }
  - { offsetInCU: 0x352D, offset: 0x244E7, size: 0x8, addend: 0x0, symName: '__ZN50_$LT$T$u20$as$u20$core..convert..Into$LT$U$GT$$GT$4into17hb895aae022cc20a1E', symObjAddr: 0xDB40, symBinAddr: 0xC8AC, symSize: 0x24 }
  - { offsetInCU: 0x356D, offset: 0x24527, size: 0x8, addend: 0x0, symName: '__ZN50_$LT$T$u20$as$u20$core..convert..Into$LT$U$GT$$GT$4into17hef222915765da82dE', symObjAddr: 0xDB64, symBinAddr: 0xC8D0, symSize: 0x24 }
  - { offsetInCU: 0x35D5, offset: 0x2458F, size: 0x8, addend: 0x0, symName: '__ZN103_$LT$pyo3..instance..Bound$LT$pyo3..types..any..PyAny$GT$$u20$as$u20$pyo3..types..any..PyAnyMethods$GT$2is17h9fd40d3586f204f9E', symObjAddr: 0x528, symBinAddr: 0x89DC, symSize: 0xA4 }
  - { offsetInCU: 0x3641, offset: 0x245FB, size: 0x8, addend: 0x0, symName: '__ZN103_$LT$pyo3..instance..Bound$LT$pyo3..types..any..PyAny$GT$$u20$as$u20$pyo3..types..any..PyAnyMethods$GT$3str17hbb5c26a7595aca28E', symObjAddr: 0x8F4, symBinAddr: 0x8A80, symSize: 0x5C }
  - { offsetInCU: 0x366F, offset: 0x24629, size: 0x8, addend: 0x0, symName: '__ZN103_$LT$pyo3..instance..Bound$LT$pyo3..types..any..PyAny$GT$$u20$as$u20$pyo3..types..any..PyAnyMethods$GT$4repr17h93dd8e0e4a5063f0E', symObjAddr: 0x104C, symBinAddr: 0x8ADC, symSize: 0x5C }
  - { offsetInCU: 0x369D, offset: 0x24657, size: 0x8, addend: 0x0, symName: '__ZN103_$LT$pyo3..instance..Bound$LT$pyo3..types..any..PyAny$GT$$u20$as$u20$pyo3..types..any..PyAnyMethods$GT$5call017h19aac700dcb9612fE', symObjAddr: 0x10A8, symBinAddr: 0x8B38, symSize: 0x4C }
  - { offsetInCU: 0x36CB, offset: 0x24685, size: 0x8, addend: 0x0, symName: '__ZN103_$LT$pyo3..instance..Bound$LT$pyo3..types..any..PyAny$GT$$u20$as$u20$pyo3..types..any..PyAnyMethods$GT$7getattr17hda8e0f4b593c0d7aE', symObjAddr: 0x18C0, symBinAddr: 0x8B84, symSize: 0x148 }
  - { offsetInCU: 0x3751, offset: 0x2470B, size: 0x8, addend: 0x0, symName: '__ZN103_$LT$pyo3..instance..Bound$LT$pyo3..types..any..PyAny$GT$$u20$as$u20$pyo3..types..any..PyAnyMethods$GT$7is_none17h98a5769b42689c13E', symObjAddr: 0x1B50, symBinAddr: 0x8CCC, symSize: 0x4C }
  - { offsetInCU: 0x37A5, offset: 0x2475F, size: 0x8, addend: 0x0, symName: '__ZN103_$LT$pyo3..instance..Bound$LT$pyo3..types..any..PyAny$GT$$u20$as$u20$pyo3..types..any..PyAnyMethods$GT$7setattr17h96652dea5f3dc4d7E', symObjAddr: 0x1B9C, symBinAddr: 0x8D18, symSize: 0x234 }
  - { offsetInCU: 0x3872, offset: 0x2482C, size: 0x8, addend: 0x0, symName: '__ZN103_$LT$pyo3..instance..Bound$LT$pyo3..types..any..PyAny$GT$$u20$as$u20$pyo3..types..any..PyAnyMethods$GT$7setattr17he721e989fb3eaad1E', symObjAddr: 0x1DD0, symBinAddr: 0x8F4C, symSize: 0x234 }
  - { offsetInCU: 0x393F, offset: 0x248F9, size: 0x8, addend: 0x0, symName: '__ZN103_$LT$pyo3..instance..Bound$LT$pyo3..types..any..PyAny$GT$$u20$as$u20$pyo3..types..any..PyAnyMethods$GT$8get_type17heb759ca43c295f55E', symObjAddr: 0x22B0, symBinAddr: 0x9180, symSize: 0x38 }
  - { offsetInCU: 0x3A12, offset: 0x249CC, size: 0x8, addend: 0x0, symName: '__ZN107_$LT$pyo3..instance..Bound$LT$pyo3..types..list..PyList$GT$$u20$as$u20$pyo3..types..list..PyListMethods$GT$6append17h5ddb09c17af1c587E', symObjAddr: 0x3348, symBinAddr: 0x9224, symSize: 0x14C }
  - { offsetInCU: 0x3AA9, offset: 0x24A63, size: 0x8, addend: 0x0, symName: '__ZN111_$LT$pyo3..instance..Bound$LT$pyo3..types..bytes..PyBytes$GT$$u20$as$u20$pyo3..types..bytes..PyBytesMethods$GT$8as_bytes17h602b59d5f3aecef8E', symObjAddr: 0x3634, symBinAddr: 0x9370, symSize: 0x28 }
  - { offsetInCU: 0x3B47, offset: 0x24B01, size: 0x8, addend: 0x0, symName: '__ZN111_$LT$pyo3..instance..Bound$LT$pyo3..types..tuple..PyTuple$GT$$u20$as$u20$pyo3..types..tuple..PyTupleMethods$GT$3len17heb017cb268dfb394E', symObjAddr: 0x3B88, symBinAddr: 0x9398, symSize: 0x2C }
  - { offsetInCU: 0x3B73, offset: 0x24B2D, size: 0x8, addend: 0x0, symName: '__ZN111_$LT$pyo3..instance..Bound$LT$pyo3..types..tuple..PyTuple$GT$$u20$as$u20$pyo3..types..tuple..PyTupleMethods$GT$4iter17hf2b836516ba71751E', symObjAddr: 0x3BB4, symBinAddr: 0x93C4, symSize: 0x30 }
  - { offsetInCU: 0x3C1C, offset: 0x24BD6, size: 0x8, addend: 0x0, symName: '__ZN115_$LT$pyo3..instance..Bound$LT$pyo3..types..module..PyModule$GT$$u20$as$u20$pyo3..types..module..PyModuleMethods$GT$12add_function17hb16378a9816727eeE', symObjAddr: 0x3D2C, symBinAddr: 0x93F4, symSize: 0x1F8 }
  - { offsetInCU: 0x3CCF, offset: 0x24C89, size: 0x8, addend: 0x0, symName: '__ZN115_$LT$pyo3..instance..Bound$LT$pyo3..types..module..PyModule$GT$$u20$as$u20$pyo3..types..module..PyModuleMethods$GT$3add17h6e299dc01a3fa775E', symObjAddr: 0x442C, symBinAddr: 0x95EC, symSize: 0x280 }
  - { offsetInCU: 0x3D9C, offset: 0x24D56, size: 0x8, addend: 0x0, symName: '__ZN115_$LT$pyo3..instance..Bound$LT$pyo3..types..module..PyModule$GT$$u20$as$u20$pyo3..types..module..PyModuleMethods$GT$4name17h56a36bd75462fcfeE', symObjAddr: 0x4980, symBinAddr: 0x986C, symSize: 0x5C }
  - { offsetInCU: 0x3DCA, offset: 0x24D84, size: 0x8, addend: 0x0, symName: '__ZN115_$LT$pyo3..instance..Bound$LT$pyo3..types..module..PyModule$GT$$u20$as$u20$pyo3..types..module..PyModuleMethods$GT$5index17h6713d2f7116aa52dE', symObjAddr: 0x49DC, symBinAddr: 0x98C8, symSize: 0x25C }
  - { offsetInCU: 0x3E9D, offset: 0x24E57, size: 0x8, addend: 0x0, symName: '__ZN115_$LT$pyo3..instance..Bound$LT$pyo3..types..string..PyString$GT$$u20$as$u20$pyo3..types..string..PyStringMethods$GT$15to_string_lossy17h837a8f4efbd4f0aeE', symObjAddr: 0x4D08, symBinAddr: 0x9B24, symSize: 0x30 }
  - { offsetInCU: 0x3ECB, offset: 0x24E85, size: 0x8, addend: 0x0, symName: '__ZN115_$LT$pyo3..instance..Bound$LT$pyo3..types..string..PyString$GT$$u20$as$u20$pyo3..types..string..PyStringMethods$GT$6to_cow17haf4b85098b40cc55E', symObjAddr: 0x4D38, symBinAddr: 0x9B54, symSize: 0x30 }
  - { offsetInCU: 0x3FDA, offset: 0x24F94, size: 0x8, addend: 0x0, symName: '__ZN119_$LT$pyo3..instance..Bound$LT$pyo3..types..typeobject..PyType$GT$$u20$as$u20$pyo3..types..typeobject..PyTypeMethods$GT$11as_type_ptr17hcb19e029caa9f8f4E', symObjAddr: 0x5374, symBinAddr: 0x9B84, symSize: 0x24 }
  - { offsetInCU: 0x4006, offset: 0x24FC0, size: 0x8, addend: 0x0, symName: '__ZN119_$LT$pyo3..instance..Bound$LT$pyo3..types..typeobject..PyType$GT$$u20$as$u20$pyo3..types..typeobject..PyTypeMethods$GT$4name17h209f3db52c5fb812E', symObjAddr: 0x5A88, symBinAddr: 0x9BA8, symSize: 0xE0 }
  - { offsetInCU: 0x406F, offset: 0x25029, size: 0x8, addend: 0x0, symName: '__ZN119_$LT$pyo3..instance..Bound$LT$pyo3..types..typeobject..PyType$GT$$u20$as$u20$pyo3..types..typeobject..PyTypeMethods$GT$8qualname17hd4bbc78793b89bc3E', symObjAddr: 0x5DC0, symBinAddr: 0x9C88, symSize: 0xE0 }
  - { offsetInCU: 0x414A, offset: 0x25104, size: 0x8, addend: 0x0, symName: '__ZN127_$LT$pyo3..instance..Bound$LT$pyo3..types..traceback..PyTraceback$GT$$u20$as$u20$pyo3..types..traceback..PyTracebackMethods$GT$6format17h1e75fad0459e5805E', symObjAddr: 0x6210, symBinAddr: 0x9D68, symSize: 0x664 }
  - { offsetInCU: 0x447E, offset: 0x25438, size: 0x8, addend: 0x0, symName: '__ZN105_$LT$pyo3..instance..Py$LT$T$GT$$u20$as$u20$core..convert..From$LT$pyo3..instance..Bound$LT$T$GT$$GT$$GT$4from17h83221d9d63ff6fffE', symObjAddr: 0x2530, symBinAddr: 0x91B8, symSize: 0x24 }
  - { offsetInCU: 0x44B5, offset: 0x2546F, size: 0x8, addend: 0x0, symName: '__ZN105_$LT$pyo3..instance..Py$LT$T$GT$$u20$as$u20$core..convert..From$LT$pyo3..instance..Bound$LT$T$GT$$GT$$GT$4from17ha8ba5d9ee2dc509bE', symObjAddr: 0x2554, symBinAddr: 0x91DC, symSize: 0x24 }
  - { offsetInCU: 0x44EC, offset: 0x254A6, size: 0x8, addend: 0x0, symName: '__ZN105_$LT$pyo3..instance..Py$LT$T$GT$$u20$as$u20$core..convert..From$LT$pyo3..instance..Bound$LT$T$GT$$GT$$GT$4from17hfd11a232be8640edE', symObjAddr: 0x259C, symBinAddr: 0x9200, symSize: 0x24 }
  - { offsetInCU: 0x4529, offset: 0x254E3, size: 0x8, addend: 0x0, symName: '__ZN127_$LT$pyo3..instance..Py$LT$pyo3..types..any..PyAny$GT$$u20$as$u20$core..convert..From$LT$pyo3..instance..Bound$LT$T$GT$$GT$$GT$4from17haf4ceba8abd283bcE', symObjAddr: 0x6874, symBinAddr: 0xA3CC, symSize: 0x28 }
  - { offsetInCU: 0x4566, offset: 0x25520, size: 0x8, addend: 0x0, symName: '__ZN128_$LT$pyo3..instance..Bound$LT$T$GT$$u20$as$u20$core..convert..AsRef$LT$pyo3..instance..Py$LT$pyo3..types..any..PyAny$GT$$GT$$GT$6as_ref17h47793027258a170cE', symObjAddr: 0x689C, symBinAddr: 0xA3F4, symSize: 0x28 }
  - { offsetInCU: 0x7093, offset: 0x2804D, size: 0x8, addend: 0x0, symName: __ZN4pyo38instance13panic_on_null17h033cce0ea908d53dE, symObjAddr: 0x99C8, symBinAddr: 0x513F4, symSize: 0x88 }
  - { offsetInCU: 0x70EA, offset: 0x280A4, size: 0x8, addend: 0x0, symName: __ZN4pyo38instance13python_format17hfa869dccb2440ac4E, symObjAddr: 0x9A50, symBinAddr: 0xB000, symSize: 0x2F8 }
  - { offsetInCU: 0x8304, offset: 0x292BE, size: 0x8, addend: 0x0, symName: '__ZN4pyo38instance14Bound$LT$T$GT$4cast5inner17h50c362d2948ed8deE', symObjAddr: 0xA96C, symBinAddr: 0xB778, symSize: 0x84 }
  - { offsetInCU: 0x8339, offset: 0x292F3, size: 0x8, addend: 0x0, symName: '__ZN4pyo38instance14Bound$LT$T$GT$4cast5inner17ha81a8f2d894426c6E', symObjAddr: 0xAA74, symBinAddr: 0xB7FC, symSize: 0x84 }
  - { offsetInCU: 0x836E, offset: 0x29328, size: 0x8, addend: 0x0, symName: '__ZN4pyo38instance14Bound$LT$T$GT$4cast5inner17hf619ec1c30c169bbE', symObjAddr: 0xAAF8, symBinAddr: 0xB880, symSize: 0x84 }
  - { offsetInCU: 0x83A9, offset: 0x29363, size: 0x8, addend: 0x0, symName: '__ZN4pyo38instance14Bound$LT$T$GT$9cast_into5inner17h071d8f28317c59c7E', symObjAddr: 0xBC7C, symBinAddr: 0xC014, symSize: 0xFC }
  - { offsetInCU: 0x83FB, offset: 0x293B5, size: 0x8, addend: 0x0, symName: '__ZN4pyo38instance14Bound$LT$T$GT$9cast_into5inner17h32f824d760719a74E', symObjAddr: 0xBF70, symBinAddr: 0xC110, symSize: 0xFC }
  - { offsetInCU: 0x844D, offset: 0x29407, size: 0x8, addend: 0x0, symName: '__ZN4pyo38instance14Bound$LT$T$GT$9cast_into5inner17hcf0ceda9fe1bf5e5E', symObjAddr: 0xC750, symBinAddr: 0xC20C, symSize: 0xFC }
  - { offsetInCU: 0x8616, offset: 0x295D0, size: 0x8, addend: 0x0, symName: '__ZN4pyo38instance17Borrowed$LT$T$GT$4cast5inner17h905dfe4ab76cb6a1E', symObjAddr: 0xCED8, symBinAddr: 0xC3D8, symSize: 0x7C }
  - { offsetInCU: 0x8659, offset: 0x29613, size: 0x8, addend: 0x0, symName: '__ZN4pyo38instance36Bound$LT$pyo3..types..any..PyAny$GT$14from_owned_ptr28_$u7b$$u7b$closure$u7d$$u7d$17h0610375980fdca3cE', symObjAddr: 0xD6A8, symBinAddr: 0xC5FC, symSize: 0x1C }
  - { offsetInCU: 0x86AC, offset: 0x29666, size: 0x8, addend: 0x0, symName: '__ZN4pyo38instance36Bound$LT$pyo3..types..any..PyAny$GT$21from_owned_ptr_or_opt28_$u7b$$u7b$closure$u7d$$u7d$17h25482667949131f7E', symObjAddr: 0xD7FC, symBinAddr: 0xC718, symSize: 0x38 }
  - { offsetInCU: 0x8714, offset: 0x296CE, size: 0x8, addend: 0x0, symName: '__ZN4pyo38instance39Borrowed$LT$pyo3..types..any..PyAny$GT$15from_ptr_or_err28_$u7b$$u7b$closure$u7d$$u7d$17hbc8a05316afcb77aE', symObjAddr: 0xD8B8, symBinAddr: 0xC79C, symSize: 0x40 }
  - { offsetInCU: 0x875D, offset: 0x29717, size: 0x8, addend: 0x0, symName: '__ZN4pyo38instance39Borrowed$LT$pyo3..types..any..PyAny$GT$15from_ptr_or_err28_$u7b$$u7b$closure$u7d$$u7d$17hfc9d84dc81bf699cE', symObjAddr: 0xD8F8, symBinAddr: 0xC7DC, symSize: 0x58 }
  - { offsetInCU: 0x87C4, offset: 0x2977E, size: 0x8, addend: 0x0, symName: '__ZN67_$LT$pyo3..instance..Bound$LT$T$GT$$u20$as$u20$core..fmt..Debug$GT$3fmt17h80f367bedc3395beE', symObjAddr: 0xDB9C, symBinAddr: 0xC8F4, symSize: 0x54 }
  - { offsetInCU: 0x8828, offset: 0x297E2, size: 0x8, addend: 0x0, symName: '__ZN67_$LT$pyo3..instance..Bound$LT$T$GT$$u20$as$u20$core..fmt..Debug$GT$3fmt17h983e0bbc29a47e9dE', symObjAddr: 0xDBF0, symBinAddr: 0xC948, symSize: 0x54 }
  - { offsetInCU: 0x888C, offset: 0x29846, size: 0x8, addend: 0x0, symName: '__ZN67_$LT$pyo3..instance..Bound$LT$T$GT$$u20$as$u20$core..fmt..Debug$GT$3fmt17hcb4af1c85fb4565eE', symObjAddr: 0xDC44, symBinAddr: 0xC99C, symSize: 0x54 }
  - { offsetInCU: 0x88F6, offset: 0x298B0, size: 0x8, addend: 0x0, symName: '__ZN69_$LT$pyo3..instance..Bound$LT$T$GT$$u20$as$u20$core..clone..Clone$GT$5clone17h0bfacc9fedceb228E', symObjAddr: 0xDCEC, symBinAddr: 0xC9F0, symSize: 0x34 }
  - { offsetInCU: 0x892D, offset: 0x298E7, size: 0x8, addend: 0x0, symName: '__ZN69_$LT$pyo3..instance..Bound$LT$T$GT$$u20$as$u20$core..clone..Clone$GT$5clone17h48e3b17190b32a2dE', symObjAddr: 0xDD88, symBinAddr: 0xCA24, symSize: 0x34 }
  - { offsetInCU: 0x8964, offset: 0x2991E, size: 0x8, addend: 0x0, symName: '__ZN69_$LT$pyo3..instance..Bound$LT$T$GT$$u20$as$u20$core..clone..Clone$GT$5clone17h81e01a0ab6168b8fE', symObjAddr: 0xDDF0, symBinAddr: 0xCA58, symSize: 0x34 }
  - { offsetInCU: 0x899B, offset: 0x29955, size: 0x8, addend: 0x0, symName: '__ZN69_$LT$pyo3..instance..Bound$LT$T$GT$$u20$as$u20$core..clone..Clone$GT$5clone17h90e31b0e898de103E', symObjAddr: 0xDE58, symBinAddr: 0xCA8C, symSize: 0x34 }
  - { offsetInCU: 0x89D2, offset: 0x2998C, size: 0x8, addend: 0x0, symName: '__ZN69_$LT$pyo3..instance..Bound$LT$T$GT$$u20$as$u20$core..clone..Clone$GT$5clone17hc37887a88cf56438E', symObjAddr: 0xDF28, symBinAddr: 0xCAC0, symSize: 0x34 }
  - { offsetInCU: 0x8A0F, offset: 0x299C9, size: 0x8, addend: 0x0, symName: '__ZN69_$LT$pyo3..instance..Bound$LT$T$GT$$u20$as$u20$core..fmt..Display$GT$3fmt17h1bb32aa869a9e68aE', symObjAddr: 0xDF90, symBinAddr: 0xCAF4, symSize: 0x54 }
  - { offsetInCU: 0x8A73, offset: 0x29A2D, size: 0x8, addend: 0x0, symName: '__ZN69_$LT$pyo3..instance..Bound$LT$T$GT$$u20$as$u20$core..fmt..Display$GT$3fmt17h9a74e1b72cd4a4edE', symObjAddr: 0xDFE4, symBinAddr: 0xCB48, symSize: 0x54 }
  - { offsetInCU: 0x8AD7, offset: 0x29A91, size: 0x8, addend: 0x0, symName: '__ZN69_$LT$pyo3..instance..Bound$LT$T$GT$$u20$as$u20$core..fmt..Display$GT$3fmt17hb632c0a74d6628c0E', symObjAddr: 0xE08C, symBinAddr: 0xCB9C, symSize: 0x54 }
  - { offsetInCU: 0x8B41, offset: 0x29AFB, size: 0x8, addend: 0x0, symName: '__ZN69_$LT$pyo3..instance..Py$LT$T$GT$$u20$as$u20$core..ops..drop..Drop$GT$4drop17h1e29668fc3f28a21E', symObjAddr: 0xE0E0, symBinAddr: 0xCBF0, symSize: 0x28 }
  - { offsetInCU: 0x8B74, offset: 0x29B2E, size: 0x8, addend: 0x0, symName: '__ZN69_$LT$pyo3..instance..Py$LT$T$GT$$u20$as$u20$core..ops..drop..Drop$GT$4drop17h33bc1ab49ad10f56E', symObjAddr: 0xE108, symBinAddr: 0xCC18, symSize: 0x28 }
  - { offsetInCU: 0x8BA7, offset: 0x29B61, size: 0x8, addend: 0x0, symName: '__ZN69_$LT$pyo3..instance..Py$LT$T$GT$$u20$as$u20$core..ops..drop..Drop$GT$4drop17ha994341bc99f8097E', symObjAddr: 0xE1A8, symBinAddr: 0xCC40, symSize: 0x28 }
  - { offsetInCU: 0x8BDA, offset: 0x29B94, size: 0x8, addend: 0x0, symName: '__ZN69_$LT$pyo3..instance..Py$LT$T$GT$$u20$as$u20$core..ops..drop..Drop$GT$4drop17hc8d6feb76a934354E', symObjAddr: 0xE1D0, symBinAddr: 0xCC68, symSize: 0x28 }
  - { offsetInCU: 0x8C0D, offset: 0x29BC7, size: 0x8, addend: 0x0, symName: '__ZN69_$LT$pyo3..instance..Py$LT$T$GT$$u20$as$u20$core..ops..drop..Drop$GT$4drop17hd67cd1ae06fd340bE', symObjAddr: 0xE1F8, symBinAddr: 0xCC90, symSize: 0x28 }
  - { offsetInCU: 0x8C45, offset: 0x29BFF, size: 0x8, addend: 0x0, symName: '__ZN69_$LT$pyo3..instance..Py$LT$T$GT$$u20$as$u20$core..ops..drop..Drop$GT$4drop5inner17ha92e100e6c7cabf0E', symObjAddr: 0xE220, symBinAddr: 0xCCB8, symSize: 0x68 }
  - { offsetInCU: 0x8CA2, offset: 0x29C5C, size: 0x8, addend: 0x0, symName: '__ZN69_$LT$pyo3..instance..Py$LT$T$GT$$u20$as$u20$core..ops..drop..Drop$GT$4drop9drop_slow17h5a314c960618f1a4E', symObjAddr: 0xE288, symBinAddr: 0x5147C, symSize: 0x24 }
  - { offsetInCU: 0x8CD3, offset: 0x29C8D, size: 0x8, addend: 0x0, symName: '__ZN72_$LT$pyo3..instance..Bound$LT$T$GT$$u20$as$u20$core..ops..drop..Drop$GT$4drop17h03cb6dd6b6f206faE', symObjAddr: 0xE2E0, symBinAddr: 0xCD20, symSize: 0x30 }
  - { offsetInCU: 0x8D24, offset: 0x29CDE, size: 0x8, addend: 0x0, symName: '__ZN72_$LT$pyo3..instance..Bound$LT$T$GT$$u20$as$u20$core..ops..drop..Drop$GT$4drop17h2b9bc3852ed51797E', symObjAddr: 0xE370, symBinAddr: 0xCD50, symSize: 0x30 }
  - { offsetInCU: 0x8D75, offset: 0x29D2F, size: 0x8, addend: 0x0, symName: '__ZN72_$LT$pyo3..instance..Bound$LT$T$GT$$u20$as$u20$core..ops..drop..Drop$GT$4drop17h3ac17a8bb500cfd4E', symObjAddr: 0xE3D0, symBinAddr: 0xCD80, symSize: 0x30 }
  - { offsetInCU: 0x8DC6, offset: 0x29D80, size: 0x8, addend: 0x0, symName: '__ZN72_$LT$pyo3..instance..Bound$LT$T$GT$$u20$as$u20$core..ops..drop..Drop$GT$4drop17h62821730ccf8163eE', symObjAddr: 0xE430, symBinAddr: 0xCDB0, symSize: 0x30 }
  - { offsetInCU: 0x8E17, offset: 0x29DD1, size: 0x8, addend: 0x0, symName: '__ZN72_$LT$pyo3..instance..Bound$LT$T$GT$$u20$as$u20$core..ops..drop..Drop$GT$4drop17h6bc4181083413994E', symObjAddr: 0xE490, symBinAddr: 0xCDE0, symSize: 0x30 }
  - { offsetInCU: 0x8E68, offset: 0x29E22, size: 0x8, addend: 0x0, symName: '__ZN72_$LT$pyo3..instance..Bound$LT$T$GT$$u20$as$u20$core..ops..drop..Drop$GT$4drop17h83ee90ed67597957E', symObjAddr: 0xE4C0, symBinAddr: 0xCE10, symSize: 0x30 }
  - { offsetInCU: 0x8EB9, offset: 0x29E73, size: 0x8, addend: 0x0, symName: '__ZN72_$LT$pyo3..instance..Bound$LT$T$GT$$u20$as$u20$core..ops..drop..Drop$GT$4drop17h8f873cf44f650883E', symObjAddr: 0xE520, symBinAddr: 0xCE40, symSize: 0x30 }
  - { offsetInCU: 0x8F0A, offset: 0x29EC4, size: 0x8, addend: 0x0, symName: '__ZN72_$LT$pyo3..instance..Bound$LT$T$GT$$u20$as$u20$core..ops..drop..Drop$GT$4drop17hd43c1cae1d883a8fE', symObjAddr: 0xE610, symBinAddr: 0xCE70, symSize: 0x30 }
  - { offsetInCU: 0x8F5B, offset: 0x29F15, size: 0x8, addend: 0x0, symName: '__ZN72_$LT$pyo3..instance..Bound$LT$T$GT$$u20$as$u20$core..ops..drop..Drop$GT$4drop17he8a3d3fc4ab06141E', symObjAddr: 0xE640, symBinAddr: 0xCEA0, symSize: 0x30 }
  - { offsetInCU: 0x8FAC, offset: 0x29F66, size: 0x8, addend: 0x0, symName: '__ZN72_$LT$pyo3..instance..Bound$LT$T$GT$$u20$as$u20$core..ops..drop..Drop$GT$4drop17hf33199be3a0bc99aE', symObjAddr: 0xE670, symBinAddr: 0xCED0, symSize: 0x30 }
  - { offsetInCU: 0x9003, offset: 0x29FBD, size: 0x8, addend: 0x0, symName: '__ZN74_$LT$pyo3..instance..Bound$LT$T$GT$$u20$as$u20$core..ops..deref..Deref$GT$5deref17h3ad64d66322e543eE', symObjAddr: 0xE6E8, symBinAddr: 0xCF00, symSize: 0x24 }
  - { offsetInCU: 0x903A, offset: 0x29FF4, size: 0x8, addend: 0x0, symName: '__ZN74_$LT$pyo3..instance..Bound$LT$T$GT$$u20$as$u20$core..ops..deref..Deref$GT$5deref17h41f226b58c0dbc4dE', symObjAddr: 0xE70C, symBinAddr: 0xCF24, symSize: 0x24 }
  - { offsetInCU: 0x9071, offset: 0x2A02B, size: 0x8, addend: 0x0, symName: '__ZN74_$LT$pyo3..instance..Bound$LT$T$GT$$u20$as$u20$core..ops..deref..Deref$GT$5deref17h5684ce93b30ddbe2E', symObjAddr: 0xE754, symBinAddr: 0xCF48, symSize: 0x24 }
  - { offsetInCU: 0x90A8, offset: 0x2A062, size: 0x8, addend: 0x0, symName: '__ZN74_$LT$pyo3..instance..Bound$LT$T$GT$$u20$as$u20$core..ops..deref..Deref$GT$5deref17haba94543d8206ffeE', symObjAddr: 0xE82C, symBinAddr: 0xCF6C, symSize: 0x24 }
  - { offsetInCU: 0x90DF, offset: 0x2A099, size: 0x8, addend: 0x0, symName: '__ZN74_$LT$pyo3..instance..Bound$LT$T$GT$$u20$as$u20$core..ops..deref..Deref$GT$5deref17heb7ea5f2cd03619fE', symObjAddr: 0xE8BC, symBinAddr: 0xCF90, symSize: 0x24 }
  - { offsetInCU: 0x911C, offset: 0x2A0D6, size: 0x8, addend: 0x0, symName: '__ZN77_$LT$pyo3..instance..Borrowed$LT$T$GT$$u20$as$u20$core..ops..deref..Deref$GT$5deref17h0bbb279c0a854f7fE', symObjAddr: 0xE908, symBinAddr: 0xCFB4, symSize: 0x28 }
  - { offsetInCU: 0x9153, offset: 0x2A10D, size: 0x8, addend: 0x0, symName: '__ZN77_$LT$pyo3..instance..Borrowed$LT$T$GT$$u20$as$u20$core..ops..deref..Deref$GT$5deref17h0f3392df0ae227b9E', symObjAddr: 0xE930, symBinAddr: 0xCFDC, symSize: 0x28 }
  - { offsetInCU: 0x918A, offset: 0x2A144, size: 0x8, addend: 0x0, symName: '__ZN77_$LT$pyo3..instance..Borrowed$LT$T$GT$$u20$as$u20$core..ops..deref..Deref$GT$5deref17h125343d3168bf2c4E', symObjAddr: 0xE958, symBinAddr: 0xD004, symSize: 0x28 }
  - { offsetInCU: 0x91C1, offset: 0x2A17B, size: 0x8, addend: 0x0, symName: '__ZN77_$LT$pyo3..instance..Borrowed$LT$T$GT$$u20$as$u20$core..ops..deref..Deref$GT$5deref17hc3dec1c42356b517E', symObjAddr: 0xEA98, symBinAddr: 0xD02C, symSize: 0x28 }
  - { offsetInCU: 0x91F8, offset: 0x2A1B2, size: 0x8, addend: 0x0, symName: '__ZN77_$LT$pyo3..instance..Borrowed$LT$T$GT$$u20$as$u20$core..ops..deref..Deref$GT$5deref17hcb9f9f319678f74cE', symObjAddr: 0xEAC0, symBinAddr: 0xD054, symSize: 0x28 }
  - { offsetInCU: 0x922F, offset: 0x2A1E9, size: 0x8, addend: 0x0, symName: '__ZN77_$LT$pyo3..instance..Borrowed$LT$T$GT$$u20$as$u20$core..ops..deref..Deref$GT$5deref17hdc3bef11c5430ddcE', symObjAddr: 0xEAE8, symBinAddr: 0xD07C, symSize: 0x28 }
  - { offsetInCU: 0x926C, offset: 0x2A226, size: 0x8, addend: 0x0, symName: '__ZN87_$LT$pyo3..instance..Bound$LT$T$GT$$u20$as$u20$pyo3..instance..BoundObject$LT$T$GT$$GT$10into_bound17h168dc547d3b17a70E', symObjAddr: 0xED0C, symBinAddr: 0xD160, symSize: 0x14 }
  - { offsetInCU: 0x92A3, offset: 0x2A25D, size: 0x8, addend: 0x0, symName: '__ZN87_$LT$pyo3..instance..Bound$LT$T$GT$$u20$as$u20$pyo3..instance..BoundObject$LT$T$GT$$GT$11as_borrowed17h15427fbe3b70a618E', symObjAddr: 0xED20, symBinAddr: 0xD174, symSize: 0x24 }
  - { offsetInCU: 0x92DA, offset: 0x2A294, size: 0x8, addend: 0x0, symName: '__ZN87_$LT$pyo3..instance..Bound$LT$T$GT$$u20$as$u20$pyo3..instance..BoundObject$LT$T$GT$$GT$11as_borrowed17h8437da8c2d40444dE', symObjAddr: 0xED44, symBinAddr: 0xD198, symSize: 0x24 }
  - { offsetInCU: 0x9311, offset: 0x2A2CB, size: 0x8, addend: 0x0, symName: '__ZN87_$LT$pyo3..instance..Bound$LT$T$GT$$u20$as$u20$pyo3..instance..BoundObject$LT$T$GT$$GT$6unbind17hc7efaf682998efaaE', symObjAddr: 0xED8C, symBinAddr: 0xD1BC, symSize: 0x24 }
  - { offsetInCU: 0x9348, offset: 0x2A302, size: 0x8, addend: 0x0, symName: '__ZN87_$LT$pyo3..instance..Bound$LT$T$GT$$u20$as$u20$pyo3..instance..BoundObject$LT$T$GT$$GT$8into_any17h0347084c80ed6bc4E', symObjAddr: 0xEDB0, symBinAddr: 0xD1E0, symSize: 0x24 }
  - { offsetInCU: 0x937F, offset: 0x2A339, size: 0x8, addend: 0x0, symName: '__ZN87_$LT$pyo3..instance..Bound$LT$T$GT$$u20$as$u20$pyo3..instance..BoundObject$LT$T$GT$$GT$8into_any17h0c5163094eec8b95E', symObjAddr: 0xEDD4, symBinAddr: 0xD204, symSize: 0x24 }
  - { offsetInCU: 0x93B6, offset: 0x2A370, size: 0x8, addend: 0x0, symName: '__ZN87_$LT$pyo3..instance..Bound$LT$T$GT$$u20$as$u20$pyo3..instance..BoundObject$LT$T$GT$$GT$8into_any17h494ed0e0de140ab8E', symObjAddr: 0xEE1C, symBinAddr: 0xD228, symSize: 0x24 }
  - { offsetInCU: 0x93ED, offset: 0x2A3A7, size: 0x8, addend: 0x0, symName: '__ZN87_$LT$pyo3..instance..Bound$LT$T$GT$$u20$as$u20$pyo3..instance..BoundObject$LT$T$GT$$GT$8into_any17h91a572498c37dcdcE', symObjAddr: 0xEE88, symBinAddr: 0xD24C, symSize: 0x24 }
  - { offsetInCU: 0x942A, offset: 0x2A3E4, size: 0x8, addend: 0x0, symName: '__ZN90_$LT$pyo3..instance..Borrowed$LT$T$GT$$u20$as$u20$pyo3..instance..BoundObject$LT$T$GT$$GT$11as_borrowed17hb6f541a306b0c904E', symObjAddr: 0xEEFC, symBinAddr: 0xD270, symSize: 0x18 }
  - { offsetInCU: 0x9461, offset: 0x2A41B, size: 0x8, addend: 0x0, symName: '__ZN90_$LT$pyo3..instance..Borrowed$LT$T$GT$$u20$as$u20$pyo3..instance..BoundObject$LT$T$GT$$GT$11as_borrowed17hdacf8c4f277af9b3E', symObjAddr: 0xEF14, symBinAddr: 0xD288, symSize: 0x18 }
  - { offsetInCU: 0x9498, offset: 0x2A452, size: 0x8, addend: 0x0, symName: '__ZN90_$LT$pyo3..instance..Borrowed$LT$T$GT$$u20$as$u20$pyo3..instance..BoundObject$LT$T$GT$$GT$6as_ptr17h4817af05f58e30a7E', symObjAddr: 0xEF2C, symBinAddr: 0xD2A0, symSize: 0x28 }
  - { offsetInCU: 0x94CF, offset: 0x2A489, size: 0x8, addend: 0x0, symName: '__ZN90_$LT$pyo3..instance..Borrowed$LT$T$GT$$u20$as$u20$pyo3..instance..BoundObject$LT$T$GT$$GT$8into_any17h2d166d65db48869bE', symObjAddr: 0xEF78, symBinAddr: 0xD2C8, symSize: 0x24 }
  - { offsetInCU: 0x9506, offset: 0x2A4C0, size: 0x8, addend: 0x0, symName: '__ZN90_$LT$pyo3..instance..Borrowed$LT$T$GT$$u20$as$u20$pyo3..instance..BoundObject$LT$T$GT$$GT$8into_any17h49f0333f1f2e9d93E', symObjAddr: 0xEFC0, symBinAddr: 0xD2EC, symSize: 0x24 }
  - { offsetInCU: 0x953D, offset: 0x2A4F7, size: 0x8, addend: 0x0, symName: '__ZN90_$LT$pyo3..instance..Borrowed$LT$T$GT$$u20$as$u20$pyo3..instance..BoundObject$LT$T$GT$$GT$8into_any17ha537eacb45ac49a0E', symObjAddr: 0xF008, symBinAddr: 0xD310, symSize: 0x24 }
  - { offsetInCU: 0x9585, offset: 0x2A53F, size: 0x8, addend: 0x0, symName: '__ZN196_$LT$$RF$pyo3..instance..Bound$LT$pyo3..types..module..PyModule$GT$$u20$as$u20$pyo3..impl_..pyfunction..WrapPyFunctionArg$LT$pyo3..instance..Bound$LT$pyo3..types..function..PyCFunction$GT$$GT$$GT$15wrap_pyfunction17h7bb405afa1a38076E', symObjAddr: 0x6C1C, symBinAddr: 0xA41C, symSize: 0x44 }
  - { offsetInCU: 0x95E1, offset: 0x2A59B, size: 0x8, addend: 0x0, symName: '__ZN47_$LT$T$u20$as$u20$pyo3..err..PyErrArguments$GT$9arguments17h980f8347782e354cE', symObjAddr: 0x6DAC, symBinAddr: 0xA4E4, symSize: 0x3C }
  - { offsetInCU: 0x984C, offset: 0x2A806, size: 0x8, addend: 0x0, symName: __ZN4pyo310conversion15IntoPyObjectExt22into_pyobject_or_pyerr17h2cf46d923bb84e89E, symObjAddr: 0x71EC, symBinAddr: 0xA578, symSize: 0x48 }
  - { offsetInCU: 0x98BC, offset: 0x2A876, size: 0x8, addend: 0x0, symName: __ZN4pyo310conversion15IntoPyObjectExt22into_pyobject_or_pyerr17h3ef810d4ec9404d1E, symObjAddr: 0x7234, symBinAddr: 0xA5C0, symSize: 0x48 }
  - { offsetInCU: 0x992C, offset: 0x2A8E6, size: 0x8, addend: 0x0, symName: __ZN4pyo310conversion15IntoPyObjectExt22into_pyobject_or_pyerr17h868882f0f63342a5E, symObjAddr: 0x72C4, symBinAddr: 0xA608, symSize: 0x48 }
  - { offsetInCU: 0x999C, offset: 0x2A956, size: 0x8, addend: 0x0, symName: __ZN4pyo310conversion15IntoPyObjectExt22into_pyobject_or_pyerr17hc11ddc63e3ce16b7E, symObjAddr: 0x7538, symBinAddr: 0xA650, symSize: 0x48 }
  - { offsetInCU: 0x9A0C, offset: 0x2A9C6, size: 0x8, addend: 0x0, symName: __ZN4pyo310conversion15IntoPyObjectExt22into_pyobject_or_pyerr17he1c11679ec16e253E, symObjAddr: 0x75C8, symBinAddr: 0xA698, symSize: 0x48 }
  - { offsetInCU: 0x9A7C, offset: 0x2AA36, size: 0x8, addend: 0x0, symName: __ZN4pyo310conversion15IntoPyObjectExt22into_pyobject_or_pyerr17he53e534bc88b054aE, symObjAddr: 0x7610, symBinAddr: 0xA6E0, symSize: 0x48 }
  - { offsetInCU: 0x9AF2, offset: 0x2AAAC, size: 0x8, addend: 0x0, symName: '__ZN78_$LT$pyo3..instance..Py$LT$T$GT$$u20$as$u20$pyo3..conversion..IntoPyObject$GT$13into_pyobject17h984a77eea88738d0E', symObjAddr: 0xEB10, symBinAddr: 0xD0A4, symSize: 0x24 }
  - { offsetInCU: 0x9B46, offset: 0x2AB00, size: 0x8, addend: 0x0, symName: '__ZN81_$LT$pyo3..instance..Bound$LT$T$GT$$u20$as$u20$pyo3..conversion..IntoPyObject$GT$13into_pyobject17h05b12abe4484498aE', symObjAddr: 0xEB70, symBinAddr: 0xD0C8, symSize: 0x14 }
  - { offsetInCU: 0x9B94, offset: 0x2AB4E, size: 0x8, addend: 0x0, symName: '__ZN81_$LT$pyo3..instance..Bound$LT$T$GT$$u20$as$u20$pyo3..conversion..IntoPyObject$GT$13into_pyobject17h8d5b3439f5753ee7E', symObjAddr: 0xEB98, symBinAddr: 0xD0DC, symSize: 0x14 }
  - { offsetInCU: 0x9BE8, offset: 0x2ABA2, size: 0x8, addend: 0x0, symName: '__ZN84_$LT$pyo3..instance..Borrowed$LT$T$GT$$u20$as$u20$pyo3..conversion..IntoPyObject$GT$13into_pyobject17h66f5c980d8097f15E', symObjAddr: 0xEBD4, symBinAddr: 0xD0F0, symSize: 0x14 }
  - { offsetInCU: 0x9C36, offset: 0x2ABF0, size: 0x8, addend: 0x0, symName: '__ZN84_$LT$pyo3..instance..Borrowed$LT$T$GT$$u20$as$u20$pyo3..conversion..IntoPyObject$GT$13into_pyobject17h7ccce84d0d1a6066E', symObjAddr: 0xEBFC, symBinAddr: 0xD104, symSize: 0x14 }
  - { offsetInCU: 0x9C8A, offset: 0x2AC44, size: 0x8, addend: 0x0, symName: '__ZN85_$LT$$RF$pyo3..instance..Bound$LT$T$GT$$u20$as$u20$pyo3..conversion..IntoPyObject$GT$13into_pyobject17hb471d6b69d0a2f7fE', symObjAddr: 0xECC4, symBinAddr: 0xD118, symSize: 0x24 }
  - { offsetInCU: 0x9CD8, offset: 0x2AC92, size: 0x8, addend: 0x0, symName: '__ZN85_$LT$$RF$pyo3..instance..Bound$LT$T$GT$$u20$as$u20$pyo3..conversion..IntoPyObject$GT$13into_pyobject17hd920e64a872b7500E', symObjAddr: 0xECE8, symBinAddr: 0xD13C, symSize: 0x24 }
  - { offsetInCU: 0x9E75, offset: 0x2AE2F, size: 0x8, addend: 0x0, symName: '__ZN44_$LT$T$u20$as$u20$alloc..borrow..ToOwned$GT$8to_owned17hd848f7e3de50a98aE', symObjAddr: 0x6D64, symBinAddr: 0xA4C0, symSize: 0x24 }
  - { offsetInCU: 0xA22F, offset: 0x2B1E9, size: 0x8, addend: 0x0, symName: '__ZN4pyo35types5bytes77_$LT$impl$u20$pyo3..instance..Borrowed$LT$pyo3..types..bytes..PyBytes$GT$$GT$8as_bytes17h8ad7e1c0516e43adE', symObjAddr: 0x7AFC, symBinAddr: 0xA728, symSize: 0x90 }
  - { offsetInCU: 0xA288, offset: 0x2B242, size: 0x8, addend: 0x0, symName: '__ZN4pyo35types5tuple77_$LT$impl$u20$pyo3..instance..Borrowed$LT$pyo3..types..tuple..PyTuple$GT$$GT$13iter_borrowed17h7e7d408966de4dbcE', symObjAddr: 0x8434, symBinAddr: 0xA7B8, symSize: 0x24 }
  - { offsetInCU: 0xA2B8, offset: 0x2B272, size: 0x8, addend: 0x0, symName: '__ZN4pyo35types5tuple77_$LT$impl$u20$pyo3..instance..Borrowed$LT$pyo3..types..tuple..PyTuple$GT$$GT$17get_borrowed_item17h1fb976a16f99e109E', symObjAddr: 0x8458, symBinAddr: 0xA7DC, symSize: 0x60 }
  - { offsetInCU: 0xA315, offset: 0x2B2CF, size: 0x8, addend: 0x0, symName: '__ZN4pyo35types6string79_$LT$impl$u20$pyo3..instance..Borrowed$LT$pyo3..types..string..PyString$GT$$GT$15to_string_lossy17h26214ad1c0f077a5E', symObjAddr: 0x85DC, symBinAddr: 0xA83C, symSize: 0x174 }
  - { offsetInCU: 0xA391, offset: 0x2B34B, size: 0x8, addend: 0x0, symName: '__ZN4pyo35types6string79_$LT$impl$u20$pyo3..instance..Borrowed$LT$pyo3..types..string..PyString$GT$$GT$6to_cow17hbca9afe697f35f87E', symObjAddr: 0x8750, symBinAddr: 0xA9B0, symSize: 0x3C }
  - { offsetInCU: 0xA3B4, offset: 0x2B36E, size: 0x8, addend: 0x0, symName: '__ZN4pyo35types6string79_$LT$impl$u20$pyo3..instance..Borrowed$LT$pyo3..types..string..PyString$GT$$GT$6to_str17h363a752617ce0824E', symObjAddr: 0x878C, symBinAddr: 0xA9EC, symSize: 0xD0 }
  - { offsetInCU: 0xA458, offset: 0x2B412, size: 0x8, addend: 0x0, symName: '__ZN4pyo38instance11Py$LT$T$GT$10into_bound17hf7b598a16c1199a5E', symObjAddr: 0x8DF8, symBinAddr: 0xAABC, symSize: 0x1C }
  - { offsetInCU: 0xA4EF, offset: 0x2B4A9, size: 0x8, addend: 0x0, symName: '__ZN4pyo38instance11Py$LT$T$GT$4bind17h3a7c0fca36cffae6E', symObjAddr: 0x8EE4, symBinAddr: 0xAAD8, symSize: 0x38 }
  - { offsetInCU: 0xA5B1, offset: 0x2B56B, size: 0x8, addend: 0x0, symName: '__ZN4pyo38instance11Py$LT$T$GT$4bind17ha95c091c40771b8fE', symObjAddr: 0x8F54, symBinAddr: 0xAB10, symSize: 0x38 }
  - { offsetInCU: 0xA666, offset: 0x2B620, size: 0x8, addend: 0x0, symName: '__ZN4pyo38instance11Py$LT$T$GT$4bind17hae7b41181c05a2eeE', symObjAddr: 0x8F8C, symBinAddr: 0xAB48, symSize: 0x38 }
  - { offsetInCU: 0xA76B, offset: 0x2B725, size: 0x8, addend: 0x0, symName: '__ZN4pyo38instance11Py$LT$T$GT$4bind17hb5514649996e6305E', symObjAddr: 0x8FFC, symBinAddr: 0xAB80, symSize: 0x38 }
  - { offsetInCU: 0xA82D, offset: 0x2B7E7, size: 0x8, addend: 0x0, symName: '__ZN4pyo38instance11Py$LT$T$GT$6as_ptr17h23cb370ff558aa99E', symObjAddr: 0x90C0, symBinAddr: 0xABB8, symSize: 0x1C }
  - { offsetInCU: 0xA873, offset: 0x2B82D, size: 0x8, addend: 0x0, symName: '__ZN4pyo38instance11Py$LT$T$GT$6as_ptr17h5655bbf0d953cb65E', symObjAddr: 0x9114, symBinAddr: 0xABD4, symSize: 0x1C }
  - { offsetInCU: 0xA89F, offset: 0x2B859, size: 0x8, addend: 0x0, symName: '__ZN4pyo38instance11Py$LT$T$GT$6as_ptr17h5bbb8f8145a33d21E', symObjAddr: 0x9130, symBinAddr: 0xABF0, symSize: 0x1C }
  - { offsetInCU: 0xA8FF, offset: 0x2B8B9, size: 0x8, addend: 0x0, symName: '__ZN4pyo38instance11Py$LT$T$GT$6as_ptr17h784e83c7aa76ce6bE', symObjAddr: 0x91D8, symBinAddr: 0xAC0C, symSize: 0x1C }
  - { offsetInCU: 0xA96C, offset: 0x2B926, size: 0x8, addend: 0x0, symName: '__ZN4pyo38instance11Py$LT$T$GT$6as_ptr17hc14d6a9fef760e49E', symObjAddr: 0x9264, symBinAddr: 0xAC28, symSize: 0x1C }
  - { offsetInCU: 0xA998, offset: 0x2B952, size: 0x8, addend: 0x0, symName: '__ZN4pyo38instance11Py$LT$T$GT$6as_ptr17hc6b3822c198f53e4E', symObjAddr: 0x929C, symBinAddr: 0xAC44, symSize: 0x1C }
  - { offsetInCU: 0xA9DE, offset: 0x2B998, size: 0x8, addend: 0x0, symName: '__ZN4pyo38instance11Py$LT$T$GT$6as_ptr17hd7b25795940fc287E', symObjAddr: 0x92F0, symBinAddr: 0xAC60, symSize: 0x1C }
  - { offsetInCU: 0xAA17, offset: 0x2B9D1, size: 0x8, addend: 0x0, symName: '__ZN4pyo38instance11Py$LT$T$GT$6as_ptr17hf0dabe88e8cea183E', symObjAddr: 0x9328, symBinAddr: 0xAC7C, symSize: 0x1C }
  - { offsetInCU: 0xAA5D, offset: 0x2BA17, size: 0x8, addend: 0x0, symName: '__ZN4pyo38instance11Py$LT$T$GT$6as_ptr17hfad00ff3cefd1eb4E', symObjAddr: 0x9360, symBinAddr: 0xAC98, symSize: 0x1C }
  - { offsetInCU: 0xAA89, offset: 0x2BA43, size: 0x8, addend: 0x0, symName: '__ZN4pyo38instance11Py$LT$T$GT$6as_ptr17hfd1a3d5eb4f38659E', symObjAddr: 0x937C, symBinAddr: 0xACB4, symSize: 0x1C }
  - { offsetInCU: 0xAAB5, offset: 0x2BA6F, size: 0x8, addend: 0x0, symName: '__ZN4pyo38instance11Py$LT$T$GT$8into_any17h4e9379b7b23a237cE', symObjAddr: 0x9398, symBinAddr: 0xACD0, symSize: 0x30 }
  - { offsetInCU: 0xAAE1, offset: 0x2BA9B, size: 0x8, addend: 0x0, symName: '__ZN4pyo38instance11Py$LT$T$GT$8into_any17h5d8c66a071db3ce5E', symObjAddr: 0x93F8, symBinAddr: 0xAD00, symSize: 0x30 }
  - { offsetInCU: 0xAB0D, offset: 0x2BAC7, size: 0x8, addend: 0x0, symName: '__ZN4pyo38instance11Py$LT$T$GT$8into_any17h5e02bc10bdb8539dE', symObjAddr: 0x9428, symBinAddr: 0xAD30, symSize: 0x30 }
  - { offsetInCU: 0xAB39, offset: 0x2BAF3, size: 0x8, addend: 0x0, symName: '__ZN4pyo38instance11Py$LT$T$GT$8into_any17h7d38fd8108dc9b56E', symObjAddr: 0x9458, symBinAddr: 0xAD60, symSize: 0x30 }
  - { offsetInCU: 0xAB65, offset: 0x2BB1F, size: 0x8, addend: 0x0, symName: '__ZN4pyo38instance11Py$LT$T$GT$8into_any17he122cf491cf4a687E', symObjAddr: 0x94E8, symBinAddr: 0xAD90, symSize: 0x30 }
  - { offsetInCU: 0xAB91, offset: 0x2BB4B, size: 0x8, addend: 0x0, symName: '__ZN4pyo38instance11Py$LT$T$GT$8into_any17he13c1c138f45bdf9E', symObjAddr: 0x9518, symBinAddr: 0xADC0, symSize: 0x30 }
  - { offsetInCU: 0xABBD, offset: 0x2BB77, size: 0x8, addend: 0x0, symName: '__ZN4pyo38instance11Py$LT$T$GT$8into_ptr17h4a699aa602c7fed6E', symObjAddr: 0x9578, symBinAddr: 0xADF0, symSize: 0x30 }
  - { offsetInCU: 0xABE9, offset: 0x2BBA3, size: 0x8, addend: 0x0, symName: '__ZN4pyo38instance11Py$LT$T$GT$8into_ptr17hadf4c2e5895fb4e6E', symObjAddr: 0x95A8, symBinAddr: 0xAE20, symSize: 0x30 }
  - { offsetInCU: 0xAC15, offset: 0x2BBCF, size: 0x8, addend: 0x0, symName: '__ZN4pyo38instance11Py$LT$T$GT$8into_ptr17hdf5b9db954955822E', symObjAddr: 0x95D8, symBinAddr: 0xAE50, symSize: 0x30 }
  - { offsetInCU: 0xAC41, offset: 0x2BBFB, size: 0x8, addend: 0x0, symName: '__ZN4pyo38instance11Py$LT$T$GT$9clone_ref17h00d402a8b1041665E', symObjAddr: 0x9608, symBinAddr: 0xAE80, symSize: 0x40 }
  - { offsetInCU: 0xACA6, offset: 0x2BC60, size: 0x8, addend: 0x0, symName: '__ZN4pyo38instance11Py$LT$T$GT$9clone_ref17h37ee6fcffa714957E', symObjAddr: 0x9688, symBinAddr: 0xAEC0, symSize: 0x40 }
  - { offsetInCU: 0xAD0B, offset: 0x2BCC5, size: 0x8, addend: 0x0, symName: '__ZN4pyo38instance11Py$LT$T$GT$9clone_ref17h626f256fe711d42eE', symObjAddr: 0x9788, symBinAddr: 0xAF00, symSize: 0x40 }
  - { offsetInCU: 0xAD70, offset: 0x2BD2A, size: 0x8, addend: 0x0, symName: '__ZN4pyo38instance11Py$LT$T$GT$9clone_ref17h6286e2b629552f3bE', symObjAddr: 0x97C8, symBinAddr: 0xAF40, symSize: 0x40 }
  - { offsetInCU: 0xADE2, offset: 0x2BD9C, size: 0x8, addend: 0x0, symName: '__ZN4pyo38instance11Py$LT$T$GT$9clone_ref17haa65606110577e27E', symObjAddr: 0x9848, symBinAddr: 0xAF80, symSize: 0x40 }
  - { offsetInCU: 0xAE47, offset: 0x2BE01, size: 0x8, addend: 0x0, symName: '__ZN4pyo38instance11Py$LT$T$GT$9clone_ref17hb8c2d9a40fc48c15E', symObjAddr: 0x9888, symBinAddr: 0xAFC0, symSize: 0x40 }
  - { offsetInCU: 0xAEAC, offset: 0x2BE66, size: 0x8, addend: 0x0, symName: '__ZN4pyo38instance14Bound$LT$T$GT$10as_unbound17h30b8a57ce855d057E', symObjAddr: 0x9D48, symBinAddr: 0xB2F8, symSize: 0x1C }
  - { offsetInCU: 0xAED8, offset: 0x2BE92, size: 0x8, addend: 0x0, symName: '__ZN4pyo38instance14Bound$LT$T$GT$11as_borrowed17h0091bc46e502b61dE', symObjAddr: 0x9D64, symBinAddr: 0xB314, symSize: 0x40 }
  - { offsetInCU: 0xAF04, offset: 0x2BEBE, size: 0x8, addend: 0x0, symName: '__ZN4pyo38instance14Bound$LT$T$GT$11as_borrowed17h20940836c094f989E', symObjAddr: 0x9DE4, symBinAddr: 0xB354, symSize: 0x40 }
  - { offsetInCU: 0xAF30, offset: 0x2BEEA, size: 0x8, addend: 0x0, symName: '__ZN4pyo38instance14Bound$LT$T$GT$11as_borrowed17h542e28efbb5090c9E', symObjAddr: 0x9E24, symBinAddr: 0xB394, symSize: 0x40 }
  - { offsetInCU: 0xAF83, offset: 0x2BF3D, size: 0x8, addend: 0x0, symName: '__ZN4pyo38instance14Bound$LT$T$GT$11as_borrowed17hc56a36622f88b002E', symObjAddr: 0x9F24, symBinAddr: 0xB3D4, symSize: 0x40 }
  - { offsetInCU: 0xAFD6, offset: 0x2BF90, size: 0x8, addend: 0x0, symName: '__ZN4pyo38instance14Bound$LT$T$GT$11as_borrowed17hee7f00df5dfd6520E', symObjAddr: 0x9FE4, symBinAddr: 0xB414, symSize: 0x40 }
  - { offsetInCU: 0xB029, offset: 0x2BFE3, size: 0x8, addend: 0x0, symName: '__ZN4pyo38instance14Bound$LT$T$GT$14cast_unchecked17h3891c29615a3f2d7E', symObjAddr: 0xA0CC, symBinAddr: 0xB454, symSize: 0x38 }
  - { offsetInCU: 0xB07C, offset: 0x2C036, size: 0x8, addend: 0x0, symName: '__ZN4pyo38instance14Bound$LT$T$GT$14cast_unchecked17h5005aac0d036703cE', symObjAddr: 0xA104, symBinAddr: 0xB48C, symSize: 0x38 }
  - { offsetInCU: 0xB0CF, offset: 0x2C089, size: 0x8, addend: 0x0, symName: '__ZN4pyo38instance14Bound$LT$T$GT$14cast_unchecked17hab4fc28266cf55cbE', symObjAddr: 0xA1E4, symBinAddr: 0xB4C4, symSize: 0x38 }
  - { offsetInCU: 0xB158, offset: 0x2C112, size: 0x8, addend: 0x0, symName: '__ZN4pyo38instance14Bound$LT$T$GT$14cast_unchecked17hbb2ceadb0b90949bE', symObjAddr: 0xA254, symBinAddr: 0xB4FC, symSize: 0x38 }
  - { offsetInCU: 0xB1AB, offset: 0x2C165, size: 0x8, addend: 0x0, symName: '__ZN4pyo38instance14Bound$LT$T$GT$14cast_unchecked17hc4ba919c76931982E', symObjAddr: 0xA28C, symBinAddr: 0xB534, symSize: 0x38 }
  - { offsetInCU: 0xB268, offset: 0x2C222, size: 0x8, addend: 0x0, symName: '__ZN4pyo38instance14Bound$LT$T$GT$14cast_unchecked17he108590b6f66cd09E', symObjAddr: 0xA3DC, symBinAddr: 0xB56C, symSize: 0x38 }
  - { offsetInCU: 0xB2BB, offset: 0x2C275, size: 0x8, addend: 0x0, symName: '__ZN4pyo38instance14Bound$LT$T$GT$19cast_into_unchecked17h655e3d08312754d9E', symObjAddr: 0xA504, symBinAddr: 0xB5A4, symSize: 0x14 }
  - { offsetInCU: 0xB2F0, offset: 0x2C2AA, size: 0x8, addend: 0x0, symName: '__ZN4pyo38instance14Bound$LT$T$GT$19cast_into_unchecked17h6a78fe67f7113bd5E', symObjAddr: 0xA518, symBinAddr: 0xB5B8, symSize: 0x14 }
  - { offsetInCU: 0xB325, offset: 0x2C2DF, size: 0x8, addend: 0x0, symName: '__ZN4pyo38instance14Bound$LT$T$GT$19cast_into_unchecked17h9b99e47f74a5ae65E', symObjAddr: 0xA5B8, symBinAddr: 0xB5CC, symSize: 0x14 }
  - { offsetInCU: 0xB35A, offset: 0x2C314, size: 0x8, addend: 0x0, symName: '__ZN4pyo38instance14Bound$LT$T$GT$19cast_into_unchecked17hb2bf7d31c02a5e5bE', symObjAddr: 0xA61C, symBinAddr: 0xB5E0, symSize: 0x14 }
  - { offsetInCU: 0xB38F, offset: 0x2C349, size: 0x8, addend: 0x0, symName: '__ZN4pyo38instance14Bound$LT$T$GT$19cast_into_unchecked17hbca4cfc9dab18a21E', symObjAddr: 0xA658, symBinAddr: 0xB5F4, symSize: 0x14 }
  - { offsetInCU: 0xB3C4, offset: 0x2C37E, size: 0x8, addend: 0x0, symName: '__ZN4pyo38instance14Bound$LT$T$GT$19cast_into_unchecked17hc140ca8ee3b3d99aE', symObjAddr: 0xA680, symBinAddr: 0xB608, symSize: 0x14 }
  - { offsetInCU: 0xB3F9, offset: 0x2C3B3, size: 0x8, addend: 0x0, symName: '__ZN4pyo38instance14Bound$LT$T$GT$19cast_into_unchecked17hca5a82be7b59bd97E', symObjAddr: 0xA694, symBinAddr: 0xB61C, symSize: 0x14 }
  - { offsetInCU: 0xB42E, offset: 0x2C3E8, size: 0x8, addend: 0x0, symName: '__ZN4pyo38instance14Bound$LT$T$GT$19cast_into_unchecked17hcb8cfa9f0827c95dE', symObjAddr: 0xA6A8, symBinAddr: 0xB630, symSize: 0x14 }
  - { offsetInCU: 0xB463, offset: 0x2C41D, size: 0x8, addend: 0x0, symName: '__ZN4pyo38instance14Bound$LT$T$GT$19cast_into_unchecked17hf8dbbbe14c5a1a9eE', symObjAddr: 0xA6F8, symBinAddr: 0xB644, symSize: 0x14 }
  - { offsetInCU: 0xB498, offset: 0x2C452, size: 0x8, addend: 0x0, symName: '__ZN4pyo38instance14Bound$LT$T$GT$2py17h00dba29a96ef625fE', symObjAddr: 0xA70C, symBinAddr: 0xB658, symSize: 0x10 }
  - { offsetInCU: 0xB4C4, offset: 0x2C47E, size: 0x8, addend: 0x0, symName: '__ZN4pyo38instance14Bound$LT$T$GT$2py17h139eb98c8629cca4E', symObjAddr: 0xA73C, symBinAddr: 0xB668, symSize: 0x10 }
  - { offsetInCU: 0xB50A, offset: 0x2C4C4, size: 0x8, addend: 0x0, symName: '__ZN4pyo38instance14Bound$LT$T$GT$2py17h3f0cf8fa923cdeedE', symObjAddr: 0xA76C, symBinAddr: 0xB678, symSize: 0x10 }
  - { offsetInCU: 0xB543, offset: 0x2C4FD, size: 0x8, addend: 0x0, symName: '__ZN4pyo38instance14Bound$LT$T$GT$2py17h4e06cd08a2bcbd01E', symObjAddr: 0xA78C, symBinAddr: 0xB688, symSize: 0x10 }
  - { offsetInCU: 0xB589, offset: 0x2C543, size: 0x8, addend: 0x0, symName: '__ZN4pyo38instance14Bound$LT$T$GT$2py17h8c7e2b9b587c8347E', symObjAddr: 0xA7EC, symBinAddr: 0xB698, symSize: 0x10 }
  - { offsetInCU: 0xB5B5, offset: 0x2C56F, size: 0x8, addend: 0x0, symName: '__ZN4pyo38instance14Bound$LT$T$GT$2py17h8e93ca3666d9df39E', symObjAddr: 0xA7FC, symBinAddr: 0xB6A8, symSize: 0x10 }
  - { offsetInCU: 0xB5FB, offset: 0x2C5B5, size: 0x8, addend: 0x0, symName: '__ZN4pyo38instance14Bound$LT$T$GT$2py17hc9c526a406d7aea3E', symObjAddr: 0xA83C, symBinAddr: 0xB6B8, symSize: 0x10 }
  - { offsetInCU: 0xB634, offset: 0x2C5EE, size: 0x8, addend: 0x0, symName: '__ZN4pyo38instance14Bound$LT$T$GT$2py17hf5da94d3e84a4848E', symObjAddr: 0xA86C, symBinAddr: 0xB6C8, symSize: 0x10 }
  - { offsetInCU: 0xB66D, offset: 0x2C627, size: 0x8, addend: 0x0, symName: '__ZN4pyo38instance14Bound$LT$T$GT$2py17hfb06d450916f864cE', symObjAddr: 0xA88C, symBinAddr: 0xB6D8, symSize: 0x10 }
  - { offsetInCU: 0xB699, offset: 0x2C653, size: 0x8, addend: 0x0, symName: '__ZN4pyo38instance14Bound$LT$T$GT$4cast17h10a037ca0c6ef4d3E', symObjAddr: 0xA8AC, symBinAddr: 0xB6E8, symSize: 0x30 }
  - { offsetInCU: 0xB6CD, offset: 0x2C687, size: 0x8, addend: 0x0, symName: '__ZN4pyo38instance14Bound$LT$T$GT$4cast17h86e8b0a68c886eb0E', symObjAddr: 0xA90C, symBinAddr: 0xB718, symSize: 0x30 }
  - { offsetInCU: 0xB701, offset: 0x2C6BB, size: 0x8, addend: 0x0, symName: '__ZN4pyo38instance14Bound$LT$T$GT$4cast17hf8efd29e41954d08E', symObjAddr: 0xA93C, symBinAddr: 0xB748, symSize: 0x30 }
  - { offsetInCU: 0xB735, offset: 0x2C6EF, size: 0x8, addend: 0x0, symName: '__ZN4pyo38instance14Bound$LT$T$GT$6as_any17h20e03f4c50eba0b4E', symObjAddr: 0xAB7C, symBinAddr: 0xB904, symSize: 0x38 }
  - { offsetInCU: 0xB79D, offset: 0x2C757, size: 0x8, addend: 0x0, symName: '__ZN4pyo38instance14Bound$LT$T$GT$6as_any17h3533d7c9e0cdb83aE', symObjAddr: 0xABB4, symBinAddr: 0xB93C, symSize: 0x38 }
  - { offsetInCU: 0xB805, offset: 0x2C7BF, size: 0x8, addend: 0x0, symName: '__ZN4pyo38instance14Bound$LT$T$GT$6as_any17h630e4e1f82e8dfb7E', symObjAddr: 0xAC24, symBinAddr: 0xB974, symSize: 0x38 }
  - { offsetInCU: 0xB86D, offset: 0x2C827, size: 0x8, addend: 0x0, symName: '__ZN4pyo38instance14Bound$LT$T$GT$6as_any17hc21dc7d9e102e069E', symObjAddr: 0xAD74, symBinAddr: 0xB9AC, symSize: 0x38 }
  - { offsetInCU: 0xB8E2, offset: 0x2C89C, size: 0x8, addend: 0x0, symName: '__ZN4pyo38instance14Bound$LT$T$GT$6as_any17hc310f1628fde897cE', symObjAddr: 0xADAC, symBinAddr: 0xB9E4, symSize: 0x38 }
  - { offsetInCU: 0xB94A, offset: 0x2C904, size: 0x8, addend: 0x0, symName: '__ZN4pyo38instance14Bound$LT$T$GT$6as_any17hd056f9aacd3124eaE', symObjAddr: 0xADE4, symBinAddr: 0xBA1C, symSize: 0x38 }
  - { offsetInCU: 0xB9B2, offset: 0x2C96C, size: 0x8, addend: 0x0, symName: '__ZN4pyo38instance14Bound$LT$T$GT$6as_any17hdb53cd2dfb985c6cE', symObjAddr: 0xAE54, symBinAddr: 0xBA54, symSize: 0x38 }
  - { offsetInCU: 0xBA1A, offset: 0x2C9D4, size: 0x8, addend: 0x0, symName: '__ZN4pyo38instance14Bound$LT$T$GT$6as_ptr17h08461d5f350066aaE', symObjAddr: 0xAF98, symBinAddr: 0xBA8C, symSize: 0x2C }
  - { offsetInCU: 0xBA46, offset: 0x2CA00, size: 0x8, addend: 0x0, symName: '__ZN4pyo38instance14Bound$LT$T$GT$6as_ptr17h20af4508e8eaa980E', symObjAddr: 0xAFC4, symBinAddr: 0xBAB8, symSize: 0x2C }
  - { offsetInCU: 0xBA72, offset: 0x2CA2C, size: 0x8, addend: 0x0, symName: '__ZN4pyo38instance14Bound$LT$T$GT$6as_ptr17h51c627421c34031eE', symObjAddr: 0xB0CC, symBinAddr: 0xBAE4, symSize: 0x2C }
  - { offsetInCU: 0xBA9E, offset: 0x2CA58, size: 0x8, addend: 0x0, symName: '__ZN4pyo38instance14Bound$LT$T$GT$6as_ptr17h5d4c397c42a15080E', symObjAddr: 0xB0F8, symBinAddr: 0xBB10, symSize: 0x2C }
  - { offsetInCU: 0xBACA, offset: 0x2CA84, size: 0x8, addend: 0x0, symName: '__ZN4pyo38instance14Bound$LT$T$GT$6as_ptr17h65e5cc1265814437E', symObjAddr: 0xB124, symBinAddr: 0xBB3C, symSize: 0x2C }
  - { offsetInCU: 0xBB03, offset: 0x2CABD, size: 0x8, addend: 0x0, symName: '__ZN4pyo38instance14Bound$LT$T$GT$6as_ptr17h78b252925362ed15E', symObjAddr: 0xB1A8, symBinAddr: 0xBB68, symSize: 0x2C }
  - { offsetInCU: 0xBB3C, offset: 0x2CAF6, size: 0x8, addend: 0x0, symName: '__ZN4pyo38instance14Bound$LT$T$GT$6as_ptr17h7f5c725f2d2920b9E', symObjAddr: 0xB22C, symBinAddr: 0xBB94, symSize: 0x2C }
  - { offsetInCU: 0xBB68, offset: 0x2CB22, size: 0x8, addend: 0x0, symName: '__ZN4pyo38instance14Bound$LT$T$GT$6as_ptr17hbff56ae315d4521fE', symObjAddr: 0xB308, symBinAddr: 0xBBC0, symSize: 0x2C }
  - { offsetInCU: 0xBBA1, offset: 0x2CB5B, size: 0x8, addend: 0x0, symName: '__ZN4pyo38instance14Bound$LT$T$GT$6as_ptr17hdb1f3ec7d56caf74E', symObjAddr: 0xB410, symBinAddr: 0xBBEC, symSize: 0x2C }
  - { offsetInCU: 0xBBCD, offset: 0x2CB87, size: 0x8, addend: 0x0, symName: '__ZN4pyo38instance14Bound$LT$T$GT$6as_ptr17hed4b9023ab68b48aE', symObjAddr: 0xB43C, symBinAddr: 0xBC18, symSize: 0x2C }
  - { offsetInCU: 0xBBF9, offset: 0x2CBB3, size: 0x8, addend: 0x0, symName: '__ZN4pyo38instance14Bound$LT$T$GT$6unbind17h086c3dbb3b6c4921E', symObjAddr: 0xB468, symBinAddr: 0xBC44, symSize: 0x3C }
  - { offsetInCU: 0xBC25, offset: 0x2CBDF, size: 0x8, addend: 0x0, symName: '__ZN4pyo38instance14Bound$LT$T$GT$6unbind17h25a0d6f8f8d1782aE', symObjAddr: 0xB4E0, symBinAddr: 0xBC80, symSize: 0x3C }
  - { offsetInCU: 0xBC51, offset: 0x2CC0B, size: 0x8, addend: 0x0, symName: '__ZN4pyo38instance14Bound$LT$T$GT$6unbind17h46d0d32ae1766d42E', symObjAddr: 0xB558, symBinAddr: 0xBCBC, symSize: 0x3C }
  - { offsetInCU: 0xBC7D, offset: 0x2CC37, size: 0x8, addend: 0x0, symName: '__ZN4pyo38instance14Bound$LT$T$GT$6unbind17h648999e2941a85ecE', symObjAddr: 0xB594, symBinAddr: 0xBCF8, symSize: 0x3C }
  - { offsetInCU: 0xBCA9, offset: 0x2CC63, size: 0x8, addend: 0x0, symName: '__ZN4pyo38instance14Bound$LT$T$GT$6unbind17hc62df2366e2edae9E', symObjAddr: 0xB684, symBinAddr: 0xBD34, symSize: 0x3C }
  - { offsetInCU: 0xBCD5, offset: 0x2CC8F, size: 0x8, addend: 0x0, symName: '__ZN4pyo38instance14Bound$LT$T$GT$6unbind17hc645da1a506ef2f4E', symObjAddr: 0xB6C0, symBinAddr: 0xBD70, symSize: 0x3C }
  - { offsetInCU: 0xBD01, offset: 0x2CCBB, size: 0x8, addend: 0x0, symName: '__ZN4pyo38instance14Bound$LT$T$GT$6unbind17hcbe909d031b69f94E', symObjAddr: 0xB738, symBinAddr: 0xBDAC, symSize: 0x3C }
  - { offsetInCU: 0xBD2D, offset: 0x2CCE7, size: 0x8, addend: 0x0, symName: '__ZN4pyo38instance14Bound$LT$T$GT$6unbind17hf59d7bf936a655c6E', symObjAddr: 0xB774, symBinAddr: 0xBDE8, symSize: 0x3C }
  - { offsetInCU: 0xBD59, offset: 0x2CD13, size: 0x8, addend: 0x0, symName: '__ZN4pyo38instance14Bound$LT$T$GT$8into_any17h09577c25c196fec5E', symObjAddr: 0xB7EC, symBinAddr: 0xBE24, symSize: 0x30 }
  - { offsetInCU: 0xBD85, offset: 0x2CD3F, size: 0x8, addend: 0x0, symName: '__ZN4pyo38instance14Bound$LT$T$GT$8into_any17h1394bc9bbb838b92E', symObjAddr: 0xB81C, symBinAddr: 0xBE54, symSize: 0x30 }
  - { offsetInCU: 0xBDB1, offset: 0x2CD6B, size: 0x8, addend: 0x0, symName: '__ZN4pyo38instance14Bound$LT$T$GT$8into_any17h2af32d53d663da47E', symObjAddr: 0xB84C, symBinAddr: 0xBE84, symSize: 0x30 }
  - { offsetInCU: 0xBDDD, offset: 0x2CD97, size: 0x8, addend: 0x0, symName: '__ZN4pyo38instance14Bound$LT$T$GT$8into_any17h44c25ae15de1da94E', symObjAddr: 0xB87C, symBinAddr: 0xBEB4, symSize: 0x30 }
  - { offsetInCU: 0xBE09, offset: 0x2CDC3, size: 0x8, addend: 0x0, symName: '__ZN4pyo38instance14Bound$LT$T$GT$8into_any17hd12457fd29de4e90E', symObjAddr: 0xB8DC, symBinAddr: 0xBEE4, symSize: 0x30 }
  - { offsetInCU: 0xBE35, offset: 0x2CDEF, size: 0x8, addend: 0x0, symName: '__ZN4pyo38instance14Bound$LT$T$GT$8into_any17hd3b5047990ba8843E', symObjAddr: 0xB90C, symBinAddr: 0xBF14, symSize: 0x30 }
  - { offsetInCU: 0xBE61, offset: 0x2CE1B, size: 0x8, addend: 0x0, symName: '__ZN4pyo38instance14Bound$LT$T$GT$8into_ptr17h815bce235296ef35E', symObjAddr: 0xB99C, symBinAddr: 0xBF44, symSize: 0x40 }
  - { offsetInCU: 0xBE8D, offset: 0x2CE47, size: 0x8, addend: 0x0, symName: '__ZN4pyo38instance14Bound$LT$T$GT$9cast_into17h9bbd8006a444e275E', symObjAddr: 0xBACC, symBinAddr: 0xBF84, symSize: 0x30 }
  - { offsetInCU: 0xBEC1, offset: 0x2CE7B, size: 0x8, addend: 0x0, symName: '__ZN4pyo38instance14Bound$LT$T$GT$9cast_into17hc4b7da1048cf2b5dE', symObjAddr: 0xBB5C, symBinAddr: 0xBFB4, symSize: 0x30 }
  - { offsetInCU: 0xBEF5, offset: 0x2CEAF, size: 0x8, addend: 0x0, symName: '__ZN4pyo38instance14Bound$LT$T$GT$9cast_into17hf45783764bce08c2E', symObjAddr: 0xBBEC, symBinAddr: 0xBFE4, symSize: 0x30 }
  - { offsetInCU: 0xBF29, offset: 0x2CEE3, size: 0x8, addend: 0x0, symName: '__ZN4pyo38instance17Borrowed$LT$T$GT$14cast_unchecked17h18189db1a31e644bE', symObjAddr: 0xCA6C, symBinAddr: 0xC308, symSize: 0x14 }
  - { offsetInCU: 0xBF5E, offset: 0x2CF18, size: 0x8, addend: 0x0, symName: '__ZN4pyo38instance17Borrowed$LT$T$GT$14cast_unchecked17h21bb7dfb0fa9ccb1E', symObjAddr: 0xCA80, symBinAddr: 0xC31C, symSize: 0x14 }
  - { offsetInCU: 0xBF93, offset: 0x2CF4D, size: 0x8, addend: 0x0, symName: '__ZN4pyo38instance17Borrowed$LT$T$GT$14cast_unchecked17h2442e59df18de609E', symObjAddr: 0xCAA8, symBinAddr: 0xC330, symSize: 0x14 }
  - { offsetInCU: 0xBFC8, offset: 0x2CF82, size: 0x8, addend: 0x0, symName: '__ZN4pyo38instance17Borrowed$LT$T$GT$14cast_unchecked17h44533cd52351f2c3E', symObjAddr: 0xCAE4, symBinAddr: 0xC344, symSize: 0x14 }
  - { offsetInCU: 0xBFFD, offset: 0x2CFB7, size: 0x8, addend: 0x0, symName: '__ZN4pyo38instance17Borrowed$LT$T$GT$14cast_unchecked17h4c534d2640fbec42E', symObjAddr: 0xCAF8, symBinAddr: 0xC358, symSize: 0x14 }
  - { offsetInCU: 0xC032, offset: 0x2CFEC, size: 0x8, addend: 0x0, symName: '__ZN4pyo38instance17Borrowed$LT$T$GT$14cast_unchecked17h7b868e0ea97c146dE', symObjAddr: 0xCB20, symBinAddr: 0xC36C, symSize: 0x14 }
  - { offsetInCU: 0xC067, offset: 0x2D021, size: 0x8, addend: 0x0, symName: '__ZN4pyo38instance17Borrowed$LT$T$GT$14cast_unchecked17hb3ad7c4609915f5fE', symObjAddr: 0xCB34, symBinAddr: 0xC380, symSize: 0x14 }
  - { offsetInCU: 0xC09C, offset: 0x2D056, size: 0x8, addend: 0x0, symName: '__ZN4pyo38instance17Borrowed$LT$T$GT$14cast_unchecked17hf7c45b8733234528E', symObjAddr: 0xCB84, symBinAddr: 0xC394, symSize: 0x14 }
  - { offsetInCU: 0xC0D1, offset: 0x2D08B, size: 0x8, addend: 0x0, symName: '__ZN4pyo38instance17Borrowed$LT$T$GT$4cast17he54f09493280b5ddE', symObjAddr: 0xCCB8, symBinAddr: 0xC3A8, symSize: 0x30 }
  - { offsetInCU: 0xC106, offset: 0x2D0C0, size: 0x8, addend: 0x0, symName: '__ZN4pyo38instance17Borrowed$LT$T$GT$6as_ptr17h372473608f8ceaa9E', symObjAddr: 0xD04C, symBinAddr: 0xC454, symSize: 0x1C }
  - { offsetInCU: 0xC132, offset: 0x2D0EC, size: 0x8, addend: 0x0, symName: '__ZN4pyo38instance17Borrowed$LT$T$GT$6as_ptr17h5fabb358c49283edE', symObjAddr: 0xD084, symBinAddr: 0xC470, symSize: 0x1C }
  - { offsetInCU: 0xC15E, offset: 0x2D118, size: 0x8, addend: 0x0, symName: '__ZN4pyo38instance17Borrowed$LT$T$GT$6as_ptr17h79e29334d5c903dcE', symObjAddr: 0xD0A0, symBinAddr: 0xC48C, symSize: 0x1C }
  - { offsetInCU: 0xC18A, offset: 0x2D144, size: 0x8, addend: 0x0, symName: '__ZN4pyo38instance17Borrowed$LT$T$GT$6as_ptr17hc1118aa2a17f84e6E', symObjAddr: 0xD0BC, symBinAddr: 0xC4A8, symSize: 0x1C }
  - { offsetInCU: 0xC1B6, offset: 0x2D170, size: 0x8, addend: 0x0, symName: '__ZN4pyo38instance17Borrowed$LT$T$GT$6to_any17h4161142606f72933E', symObjAddr: 0xD110, symBinAddr: 0xC4C4, symSize: 0x14 }
  - { offsetInCU: 0xC1E2, offset: 0x2D19C, size: 0x8, addend: 0x0, symName: '__ZN4pyo38instance17Borrowed$LT$T$GT$6to_any17hd803e32c5adbcfbfE', symObjAddr: 0xD174, symBinAddr: 0xC4D8, symSize: 0x14 }
  - { offsetInCU: 0xC20E, offset: 0x2D1C8, size: 0x8, addend: 0x0, symName: '__ZN4pyo38instance17Borrowed$LT$T$GT$6to_any17he2e50ea397c960e0E', symObjAddr: 0xD1B0, symBinAddr: 0xC4EC, symSize: 0x14 }
  - { offsetInCU: 0xC292, offset: 0x2D24C, size: 0x8, addend: 0x0, symName: '__ZN4pyo38instance17Borrowed$LT$T$GT$7extract17hc5908f86ffa07c94E', symObjAddr: 0xD464, symBinAddr: 0xC500, symSize: 0x30 }
  - { offsetInCU: 0xC2C7, offset: 0x2D281, size: 0x8, addend: 0x0, symName: '__ZN4pyo38instance17Borrowed$LT$T$GT$8to_owned17h1535078d3a880fd6E', symObjAddr: 0xD4F4, symBinAddr: 0xC530, symSize: 0x2C }
  - { offsetInCU: 0xC2F3, offset: 0x2D2AD, size: 0x8, addend: 0x0, symName: '__ZN4pyo38instance17Borrowed$LT$T$GT$8to_owned17h318677bf57f38e1aE', symObjAddr: 0xD54C, symBinAddr: 0xC55C, symSize: 0x2C }
  - { offsetInCU: 0xC31F, offset: 0x2D2D9, size: 0x8, addend: 0x0, symName: '__ZN4pyo38instance17Borrowed$LT$T$GT$8to_owned17hff19121b2d3ac828E', symObjAddr: 0xD5FC, symBinAddr: 0xC588, symSize: 0x2C }
  - { offsetInCU: 0xC383, offset: 0x2D33D, size: 0x8, addend: 0x0, symName: '__ZN4pyo38instance36Bound$LT$pyo3..types..any..PyAny$GT$14from_owned_ptr17h8ee0510979ce6b6eE', symObjAddr: 0xD660, symBinAddr: 0xC5B4, symSize: 0x48 }
  - { offsetInCU: 0xC3EC, offset: 0x2D3A6, size: 0x8, addend: 0x0, symName: '__ZN4pyo38instance36Bound$LT$pyo3..types..any..PyAny$GT$17ref_from_non_null17hc6c42f7ec70337c8E', symObjAddr: 0xD6C4, symBinAddr: 0xC618, symSize: 0x38 }
  - { offsetInCU: 0xC473, offset: 0x2D42D, size: 0x8, addend: 0x0, symName: '__ZN4pyo38instance36Bound$LT$pyo3..types..any..PyAny$GT$21from_owned_ptr_or_err17ha29f73c1d2ad8563E', symObjAddr: 0xD734, symBinAddr: 0xC650, symSize: 0x9C }
  - { offsetInCU: 0xC4CF, offset: 0x2D489, size: 0x8, addend: 0x0, symName: '__ZN4pyo38instance36Bound$LT$pyo3..types..any..PyAny$GT$21from_owned_ptr_or_opt17h9100126e1dcfd122E', symObjAddr: 0xD7D0, symBinAddr: 0xC6EC, symSize: 0x2C }
  - { offsetInCU: 0xC50D, offset: 0x2D4C7, size: 0x8, addend: 0x0, symName: '__ZN4pyo38instance39Borrowed$LT$pyo3..types..any..PyAny$GT$13from_non_null17ha4ee34ef0ca28068E', symObjAddr: 0xD86C, symBinAddr: 0xC750, symSize: 0x14 }
  - { offsetInCU: 0xC54B, offset: 0x2D505, size: 0x8, addend: 0x0, symName: '__ZN4pyo38instance39Borrowed$LT$pyo3..types..any..PyAny$GT$15from_ptr_or_err17hd743c4b34d3a6191E', symObjAddr: 0xD880, symBinAddr: 0xC764, symSize: 0x38 }
  - { offsetInCU: 0xC589, offset: 0x2D543, size: 0x8, addend: 0x0, symName: '__ZN4pyo38instance39Borrowed$LT$pyo3..types..any..PyAny$GT$18from_ptr_unchecked17hb3fcf971415a0085E', symObjAddr: 0xD950, symBinAddr: 0xC834, symSize: 0x30 }
  - { offsetInCU: 0xDC1, offset: 0x2E65E, size: 0x8, addend: 0x0, symName: '__ZN152_$LT$core..result..Result$LT$pyo3..instance..Bound$LT$pyo3..types..any..PyAny$GT$$C$pyo3..err..PyErr$GT$$u20$as$u20$pyo3..py_result_ext..PyResultExt$GT$19cast_into_unchecked17h6cada13fd39615ebE', symObjAddr: 0x140, symBinAddr: 0xD334, symSize: 0x40 }
  - { offsetInCU: 0xDF7, offset: 0x2E694, size: 0x8, addend: 0x0, symName: '__ZN152_$LT$core..result..Result$LT$pyo3..instance..Bound$LT$pyo3..types..any..PyAny$GT$$C$pyo3..err..PyErr$GT$$u20$as$u20$pyo3..py_result_ext..PyResultExt$GT$19cast_into_unchecked17h85fb0a0f19c14aabE', symObjAddr: 0x1C0, symBinAddr: 0xD374, symSize: 0x40 }
  - { offsetInCU: 0xE2D, offset: 0x2E6CA, size: 0x8, addend: 0x0, symName: '__ZN152_$LT$core..result..Result$LT$pyo3..instance..Bound$LT$pyo3..types..any..PyAny$GT$$C$pyo3..err..PyErr$GT$$u20$as$u20$pyo3..py_result_ext..PyResultExt$GT$19cast_into_unchecked17hdc1b243ccec2a1cfE', symObjAddr: 0x340, symBinAddr: 0xD3B4, symSize: 0x40 }
  - { offsetInCU: 0xE63, offset: 0x2E700, size: 0x8, addend: 0x0, symName: '__ZN152_$LT$core..result..Result$LT$pyo3..instance..Bound$LT$pyo3..types..any..PyAny$GT$$C$pyo3..err..PyErr$GT$$u20$as$u20$pyo3..py_result_ext..PyResultExt$GT$19cast_into_unchecked17heafafb38879168e9E', symObjAddr: 0x3C0, symBinAddr: 0xD3F4, symSize: 0x40 }
  - { offsetInCU: 0x19F5, offset: 0x2F292, size: 0x8, addend: 0x0, symName: '__ZN153_$LT$core..result..Result$LT$T$C$F$GT$$u20$as$u20$core..ops..try_trait..FromResidual$LT$core..result..Result$LT$core..convert..Infallible$C$E$GT$$GT$$GT$13from_residual17h1b3b65cee97c9a26E', symObjAddr: 0xAE8, symBinAddr: 0xD434, symSize: 0x6C }
  - { offsetInCU: 0x1A7B, offset: 0x2F318, size: 0x8, addend: 0x0, symName: '__ZN153_$LT$core..result..Result$LT$T$C$F$GT$$u20$as$u20$core..ops..try_trait..FromResidual$LT$core..result..Result$LT$core..convert..Infallible$C$E$GT$$GT$$GT$13from_residual17h23ceadb21ed91deeE', symObjAddr: 0xBC0, symBinAddr: 0xD4A0, symSize: 0x6C }
  - { offsetInCU: 0x1B01, offset: 0x2F39E, size: 0x8, addend: 0x0, symName: '__ZN153_$LT$core..result..Result$LT$T$C$F$GT$$u20$as$u20$core..ops..try_trait..FromResidual$LT$core..result..Result$LT$core..convert..Infallible$C$E$GT$$GT$$GT$13from_residual17h38cf688cde634552E', symObjAddr: 0xEA0, symBinAddr: 0xD50C, symSize: 0x6C }
  - { offsetInCU: 0x1B87, offset: 0x2F424, size: 0x8, addend: 0x0, symName: '__ZN153_$LT$core..result..Result$LT$T$C$F$GT$$u20$as$u20$core..ops..try_trait..FromResidual$LT$core..result..Result$LT$core..convert..Infallible$C$E$GT$$GT$$GT$13from_residual17h564797cfd007c503E', symObjAddr: 0x12BC, symBinAddr: 0xD578, symSize: 0x6C }
  - { offsetInCU: 0x1BEE, offset: 0x2F48B, size: 0x8, addend: 0x0, symName: '__ZN153_$LT$core..result..Result$LT$T$C$F$GT$$u20$as$u20$core..ops..try_trait..FromResidual$LT$core..result..Result$LT$core..convert..Infallible$C$E$GT$$GT$$GT$13from_residual17h5b2ef3196c5f5104E', symObjAddr: 0x146C, symBinAddr: 0xD5E4, symSize: 0x6C }
  - { offsetInCU: 0x1C74, offset: 0x2F511, size: 0x8, addend: 0x0, symName: '__ZN153_$LT$core..result..Result$LT$T$C$F$GT$$u20$as$u20$core..ops..try_trait..FromResidual$LT$core..result..Result$LT$core..convert..Infallible$C$E$GT$$GT$$GT$13from_residual17h6071469770178babE', symObjAddr: 0x15B8, symBinAddr: 0xD650, symSize: 0x6C }
  - { offsetInCU: 0x1CFA, offset: 0x2F597, size: 0x8, addend: 0x0, symName: '__ZN153_$LT$core..result..Result$LT$T$C$F$GT$$u20$as$u20$core..ops..try_trait..FromResidual$LT$core..result..Result$LT$core..convert..Infallible$C$E$GT$$GT$$GT$13from_residual17h6a235d756f3a6fa8E', symObjAddr: 0x1624, symBinAddr: 0xD6BC, symSize: 0x14 }
  - { offsetInCU: 0x1D43, offset: 0x2F5E0, size: 0x8, addend: 0x0, symName: '__ZN153_$LT$core..result..Result$LT$T$C$F$GT$$u20$as$u20$core..ops..try_trait..FromResidual$LT$core..result..Result$LT$core..convert..Infallible$C$E$GT$$GT$$GT$13from_residual17h7c22fec4e994a116E', symObjAddr: 0x18C0, symBinAddr: 0xD6D0, symSize: 0x6C }
  - { offsetInCU: 0x1DC9, offset: 0x2F666, size: 0x8, addend: 0x0, symName: '__ZN153_$LT$core..result..Result$LT$T$C$F$GT$$u20$as$u20$core..ops..try_trait..FromResidual$LT$core..result..Result$LT$core..convert..Infallible$C$E$GT$$GT$$GT$13from_residual17hc53e7de258a3c1c5E', symObjAddr: 0x248C, symBinAddr: 0xD73C, symSize: 0x6C }
  - { offsetInCU: 0x1E30, offset: 0x2F6CD, size: 0x8, addend: 0x0, symName: '__ZN153_$LT$core..result..Result$LT$T$C$F$GT$$u20$as$u20$core..ops..try_trait..FromResidual$LT$core..result..Result$LT$core..convert..Infallible$C$E$GT$$GT$$GT$13from_residual17hda48e442cf58a854E', symObjAddr: 0x2840, symBinAddr: 0xD7A8, symSize: 0x6C }
  - { offsetInCU: 0x1EB6, offset: 0x2F753, size: 0x8, addend: 0x0, symName: '__ZN153_$LT$core..result..Result$LT$T$C$F$GT$$u20$as$u20$core..ops..try_trait..FromResidual$LT$core..result..Result$LT$core..convert..Infallible$C$E$GT$$GT$$GT$13from_residual17he06eac4201a1dcebE', symObjAddr: 0x2AC0, symBinAddr: 0xD814, symSize: 0x6C }
  - { offsetInCU: 0x1F1D, offset: 0x2F7BA, size: 0x8, addend: 0x0, symName: '__ZN153_$LT$core..result..Result$LT$T$C$F$GT$$u20$as$u20$core..ops..try_trait..FromResidual$LT$core..result..Result$LT$core..convert..Infallible$C$E$GT$$GT$$GT$13from_residual17he8274d8bcb68c943E', symObjAddr: 0x2B2C, symBinAddr: 0xD880, symSize: 0x6C }
  - { offsetInCU: 0x1FA3, offset: 0x2F840, size: 0x8, addend: 0x0, symName: '__ZN153_$LT$core..result..Result$LT$T$C$F$GT$$u20$as$u20$core..ops..try_trait..FromResidual$LT$core..result..Result$LT$core..convert..Infallible$C$E$GT$$GT$$GT$13from_residual17hebe47ca112643991E', symObjAddr: 0x2B98, symBinAddr: 0xD8EC, symSize: 0x6C }
  - { offsetInCU: 0x2029, offset: 0x2F8C6, size: 0x8, addend: 0x0, symName: '__ZN153_$LT$core..result..Result$LT$T$C$F$GT$$u20$as$u20$core..ops..try_trait..FromResidual$LT$core..result..Result$LT$core..convert..Infallible$C$E$GT$$GT$$GT$13from_residual17hfc3a162c8d7f2d58E', symObjAddr: 0x2E20, symBinAddr: 0xD958, symSize: 0x6C }
  - { offsetInCU: 0x43C1, offset: 0x31C5E, size: 0x8, addend: 0x0, symName: '__ZN79_$LT$core..result..Result$LT$T$C$E$GT$$u20$as$u20$core..ops..try_trait..Try$GT$6branch17h0c5f34dc743b9709E', symObjAddr: 0x6CE4, symBinAddr: 0xE628, symSize: 0xB4 }
  - { offsetInCU: 0x443F, offset: 0x31CDC, size: 0x8, addend: 0x0, symName: '__ZN79_$LT$core..result..Result$LT$T$C$E$GT$$u20$as$u20$core..ops..try_trait..Try$GT$6branch17h180683a335e3b7c2E', symObjAddr: 0x7068, symBinAddr: 0xE6DC, symSize: 0xA0 }
  - { offsetInCU: 0x44BC, offset: 0x31D59, size: 0x8, addend: 0x0, symName: '__ZN79_$LT$core..result..Result$LT$T$C$E$GT$$u20$as$u20$core..ops..try_trait..Try$GT$6branch17h350b66320a202b9eE', symObjAddr: 0x7700, symBinAddr: 0xE77C, symSize: 0x44 }
  - { offsetInCU: 0x4538, offset: 0x31DD5, size: 0x8, addend: 0x0, symName: '__ZN79_$LT$core..result..Result$LT$T$C$E$GT$$u20$as$u20$core..ops..try_trait..Try$GT$6branch17h4f75b1838131a147E', symObjAddr: 0x7890, symBinAddr: 0xE7C0, symSize: 0xA0 }
  - { offsetInCU: 0x45B5, offset: 0x31E52, size: 0x8, addend: 0x0, symName: '__ZN79_$LT$core..result..Result$LT$T$C$E$GT$$u20$as$u20$core..ops..try_trait..Try$GT$6branch17h59842455dc8a1ae9E', symObjAddr: 0x7AA8, symBinAddr: 0xE860, symSize: 0x90 }
  - { offsetInCU: 0x4632, offset: 0x31ECF, size: 0x8, addend: 0x0, symName: '__ZN79_$LT$core..result..Result$LT$T$C$E$GT$$u20$as$u20$core..ops..try_trait..Try$GT$6branch17h7a7acf9de9b60d65E', symObjAddr: 0x8080, symBinAddr: 0xE8F0, symSize: 0xA0 }
  - { offsetInCU: 0x46AF, offset: 0x31F4C, size: 0x8, addend: 0x0, symName: '__ZN79_$LT$core..result..Result$LT$T$C$E$GT$$u20$as$u20$core..ops..try_trait..Try$GT$6branch17h7e0401d8250d311fE', symObjAddr: 0x81C8, symBinAddr: 0xE990, symSize: 0xA0 }
  - { offsetInCU: 0x472C, offset: 0x31FC9, size: 0x8, addend: 0x0, symName: '__ZN79_$LT$core..result..Result$LT$T$C$E$GT$$u20$as$u20$core..ops..try_trait..Try$GT$6branch17h818d33b32cbf8a93E', symObjAddr: 0x83A8, symBinAddr: 0xEA30, symSize: 0xA0 }
  - { offsetInCU: 0x47A9, offset: 0x32046, size: 0x8, addend: 0x0, symName: '__ZN79_$LT$core..result..Result$LT$T$C$E$GT$$u20$as$u20$core..ops..try_trait..Try$GT$6branch17h94c21c9173fe2f9dE', symObjAddr: 0x857C, symBinAddr: 0xEAD0, symSize: 0x38 }
  - { offsetInCU: 0x4825, offset: 0x320C2, size: 0x8, addend: 0x0, symName: '__ZN79_$LT$core..result..Result$LT$T$C$E$GT$$u20$as$u20$core..ops..try_trait..Try$GT$6branch17h9f37d9348bb5ffe9E', symObjAddr: 0x86F4, symBinAddr: 0xEB08, symSize: 0x68 }
  - { offsetInCU: 0x48A2, offset: 0x3213F, size: 0x8, addend: 0x0, symName: '__ZN79_$LT$core..result..Result$LT$T$C$E$GT$$u20$as$u20$core..ops..try_trait..Try$GT$6branch17haba36d500f3fbf09E', symObjAddr: 0x890C, symBinAddr: 0xEB70, symSize: 0xAC }
  - { offsetInCU: 0x491F, offset: 0x321BC, size: 0x8, addend: 0x0, symName: '__ZN79_$LT$core..result..Result$LT$T$C$E$GT$$u20$as$u20$core..ops..try_trait..Try$GT$6branch17hae0c684b29f0f631E', symObjAddr: 0x8A20, symBinAddr: 0xEC1C, symSize: 0xA0 }
  - { offsetInCU: 0x499C, offset: 0x32239, size: 0x8, addend: 0x0, symName: '__ZN79_$LT$core..result..Result$LT$T$C$E$GT$$u20$as$u20$core..ops..try_trait..Try$GT$6branch17hae60d147ba0c4d95E', symObjAddr: 0x8AC0, symBinAddr: 0xECBC, symSize: 0xA0 }
  - { offsetInCU: 0x4A19, offset: 0x322B6, size: 0x8, addend: 0x0, symName: '__ZN79_$LT$core..result..Result$LT$T$C$E$GT$$u20$as$u20$core..ops..try_trait..Try$GT$6branch17hb61eb8d4fd68feb8E', symObjAddr: 0x8D14, symBinAddr: 0xED5C, symSize: 0x14 }
  - { offsetInCU: 0x4A55, offset: 0x322F2, size: 0x8, addend: 0x0, symName: '__ZN79_$LT$core..result..Result$LT$T$C$E$GT$$u20$as$u20$core..ops..try_trait..Try$GT$6branch17he157ad0392bfd647E', symObjAddr: 0x8F28, symBinAddr: 0xED70, symSize: 0x68 }
  - { offsetInCU: 0x4AD2, offset: 0x3236F, size: 0x8, addend: 0x0, symName: '__ZN79_$LT$core..result..Result$LT$T$C$E$GT$$u20$as$u20$core..ops..try_trait..Try$GT$6branch17hf24458ab25790144E', symObjAddr: 0x9278, symBinAddr: 0xEDD8, symSize: 0x68 }
  - { offsetInCU: 0x4B4F, offset: 0x323EC, size: 0x8, addend: 0x0, symName: '__ZN79_$LT$core..result..Result$LT$T$C$E$GT$$u20$as$u20$core..ops..try_trait..Try$GT$6branch17hfd038b0c6bcd8f1fE', symObjAddr: 0x942C, symBinAddr: 0xEE40, symSize: 0xA0 }
  - { offsetInCU: 0x5C32, offset: 0x334CF, size: 0x8, addend: 0x0, symName: '__ZN4core6result19Result$LT$T$C$E$GT$14unwrap_or_else17h695ed9a30fce47e5E', symObjAddr: 0x2F84, symBinAddr: 0xD9C4, symSize: 0x8C }
  - { offsetInCU: 0x5CD5, offset: 0x33572, size: 0x8, addend: 0x0, symName: '__ZN4core6result19Result$LT$T$C$E$GT$3map17h1e80a16a249f3286E', symObjAddr: 0x31FC, symBinAddr: 0xDA50, symSize: 0x90 }
  - { offsetInCU: 0x5D82, offset: 0x3361F, size: 0x8, addend: 0x0, symName: '__ZN4core6result19Result$LT$T$C$E$GT$3map17h36d962afac174412E', symObjAddr: 0x3318, symBinAddr: 0xDAE0, symSize: 0x74 }
  - { offsetInCU: 0x5E14, offset: 0x336B1, size: 0x8, addend: 0x0, symName: '__ZN4core6result19Result$LT$T$C$E$GT$3map17h3fb6471dd1c79ab6E', symObjAddr: 0x34C4, symBinAddr: 0xDB54, symSize: 0x90 }
  - { offsetInCU: 0x5EA7, offset: 0x33744, size: 0x8, addend: 0x0, symName: '__ZN4core6result19Result$LT$T$C$E$GT$3map17h4ca6d0aa9bcb2babE', symObjAddr: 0x35E4, symBinAddr: 0xDBE4, symSize: 0x90 }
  - { offsetInCU: 0x5F52, offset: 0x337EF, size: 0x8, addend: 0x0, symName: '__ZN4core6result19Result$LT$T$C$E$GT$3map17h95102f48086fba64E', symObjAddr: 0x3BF0, symBinAddr: 0xDC74, symSize: 0x90 }
  - { offsetInCU: 0x6015, offset: 0x338B2, size: 0x8, addend: 0x0, symName: '__ZN4core6result19Result$LT$T$C$E$GT$3map17h983790d6fab47792E', symObjAddr: 0x3CB8, symBinAddr: 0xDD04, symSize: 0xA8 }
  - { offsetInCU: 0x60A8, offset: 0x33945, size: 0x8, addend: 0x0, symName: '__ZN4core6result19Result$LT$T$C$E$GT$3map17he7879edccde3b36bE', symObjAddr: 0x42C0, symBinAddr: 0xDDAC, symSize: 0x90 }
  - { offsetInCU: 0x613B, offset: 0x339D8, size: 0x8, addend: 0x0, symName: '__ZN4core6result19Result$LT$T$C$E$GT$3map17hece6b7b110d8440bE', symObjAddr: 0x43C4, symBinAddr: 0xDE3C, symSize: 0xA0 }
  - { offsetInCU: 0x61DC, offset: 0x33A79, size: 0x8, addend: 0x0, symName: '__ZN4core6result19Result$LT$T$C$E$GT$6as_ref17h25942a7729cc8150E', symObjAddr: 0x4584, symBinAddr: 0xDEDC, symSize: 0x68 }
  - { offsetInCU: 0x624D, offset: 0x33AEA, size: 0x8, addend: 0x0, symName: '__ZN4core6result19Result$LT$T$C$E$GT$6expect17h15db7102fbef9cc0E', symObjAddr: 0x469C, symBinAddr: 0xDF44, symSize: 0x84 }
  - { offsetInCU: 0x62AF, offset: 0x33B4C, size: 0x8, addend: 0x0, symName: '__ZN4core6result19Result$LT$T$C$E$GT$6expect17h2fceb5cc01463b12E', symObjAddr: 0x4720, symBinAddr: 0xDFC8, symSize: 0xB0 }
  - { offsetInCU: 0x6312, offset: 0x33BAF, size: 0x8, addend: 0x0, symName: '__ZN4core6result19Result$LT$T$C$E$GT$6expect17h6d6c9f5d8f5a2395E', symObjAddr: 0x48EC, symBinAddr: 0xE078, symSize: 0xB0 }
  - { offsetInCU: 0x6375, offset: 0x33C12, size: 0x8, addend: 0x0, symName: '__ZN4core6result19Result$LT$T$C$E$GT$6expect17h99857eb581008bd7E', symObjAddr: 0x499C, symBinAddr: 0xE128, symSize: 0x78 }
  - { offsetInCU: 0x63D7, offset: 0x33C74, size: 0x8, addend: 0x0, symName: '__ZN4core6result19Result$LT$T$C$E$GT$6expect17he0fb26b74dcb4365E', symObjAddr: 0x4B74, symBinAddr: 0xE1A0, symSize: 0xB0 }
  - { offsetInCU: 0x643A, offset: 0x33CD7, size: 0x8, addend: 0x0, symName: '__ZN4core6result19Result$LT$T$C$E$GT$6expect17he210011ea7bc6e0cE', symObjAddr: 0x4C24, symBinAddr: 0xE250, symSize: 0xA4 }
  - { offsetInCU: 0x64C2, offset: 0x33D5F, size: 0x8, addend: 0x0, symName: '__ZN4core6result19Result$LT$T$C$E$GT$7map_err17h0e4f46d63666d026E', symObjAddr: 0x4DDC, symBinAddr: 0xE2F4, symSize: 0x30 }
  - { offsetInCU: 0x6576, offset: 0x33E13, size: 0x8, addend: 0x0, symName: '__ZN4core6result19Result$LT$T$C$E$GT$7map_err17h4b0890253f25d250E', symObjAddr: 0x52D0, symBinAddr: 0xE324, symSize: 0x84 }
  - { offsetInCU: 0x662B, offset: 0x33EC8, size: 0x8, addend: 0x0, symName: '__ZN4core6result19Result$LT$T$C$E$GT$7map_err17hbda9f19829414ddaE', symObjAddr: 0x5D04, symBinAddr: 0xE3A8, symSize: 0x84 }
  - { offsetInCU: 0x66BE, offset: 0x33F5B, size: 0x8, addend: 0x0, symName: '__ZN4core6result19Result$LT$T$C$E$GT$7map_err17hc0c023ffbb1adc45E', symObjAddr: 0x5E04, symBinAddr: 0xE42C, symSize: 0x98 }
  - { offsetInCU: 0x6751, offset: 0x33FEE, size: 0x8, addend: 0x0, symName: '__ZN4core6result19Result$LT$T$C$E$GT$9unwrap_or17h20b312bb8cb31c26E', symObjAddr: 0x677C, symBinAddr: 0xE4C4, symSize: 0xF4 }
  - { offsetInCU: 0x6797, offset: 0x34034, size: 0x8, addend: 0x0, symName: '__ZN4core6result19Result$LT$T$C$E$GT$9unwrap_or17hc720da7a1d9322d4E', symObjAddr: 0x68DC, symBinAddr: 0xE5B8, symSize: 0x70 }
  - { offsetInCU: 0xC1, offset: 0x34168, size: 0x8, addend: 0x0, symName: '__ZN79_$LT$pyo3..types..string..PyString$u20$as$u20$pyo3..type_object..PyTypeInfo$GT$10is_type_of17h22e922d924e0160dE', symObjAddr: 0x7090, symBinAddr: 0xF754, symSize: 0x30 }
  - { offsetInCU: 0xED, offset: 0x34194, size: 0x8, addend: 0x0, symName: '__ZN79_$LT$pyo3..types..string..PyString$u20$as$u20$pyo3..type_object..PyTypeInfo$GT$15type_object_raw17hccaa816e53d20418E', symObjAddr: 0x70C0, symBinAddr: 0xF784, symSize: 0x24 }
  - { offsetInCU: 0x129, offset: 0x341D0, size: 0x8, addend: 0x0, symName: '__ZN79_$LT$pyo3..types..string..PyString$u20$as$u20$pyo3..type_object..PyTypeInfo$GT$15type_object_raw28_$u7b$$u7b$closure$u7d$$u7d$17h68ad707d8e8be879E', symObjAddr: 0x70E4, symBinAddr: 0xF7A8, symSize: 0x18 }
  - { offsetInCU: 0x198, offset: 0x3423F, size: 0x8, addend: 0x0, symName: '__ZN103_$LT$pyo3..instance..Bound$LT$pyo3..types..any..PyAny$GT$$u20$as$u20$pyo3..types..any..PyAnyMethods$GT$7getattr5inner17h36c07f2aeb61c98eE', symObjAddr: 0xC88, symBinAddr: 0xEEE0, symSize: 0x6C }
  - { offsetInCU: 0x1DB, offset: 0x34282, size: 0x8, addend: 0x0, symName: '__ZN103_$LT$pyo3..instance..Bound$LT$pyo3..types..any..PyAny$GT$$u20$as$u20$pyo3..types..any..PyAnyMethods$GT$7setattr5inner17h167eca9e052dcc9dE', symObjAddr: 0xE5C, symBinAddr: 0xEF4C, symSize: 0x7C }
  - { offsetInCU: 0x277, offset: 0x3431E, size: 0x8, addend: 0x0, symName: __ZN4pyo35types6module7__all__8INTERNED17h725fb441f9b768c5E, symObjAddr: 0x9AB8, symBinAddr: 0x80470, symSize: 0x0 }
  - { offsetInCU: 0x297, offset: 0x3433E, size: 0x8, addend: 0x0, symName: __ZN4pyo35types6module8__name__8INTERNED17h2a95c668718222d5E, symObjAddr: 0x9AD8, symBinAddr: 0x80490, symSize: 0x0 }
  - { offsetInCU: 0x2AF, offset: 0x34356, size: 0x8, addend: 0x0, symName: '__ZN115_$LT$pyo3..instance..Bound$LT$pyo3..types..module..PyModule$GT$$u20$as$u20$pyo3..types..module..PyModuleMethods$GT$3add5inner17hb10e7dae0f2fa2c4E', symObjAddr: 0x146C, symBinAddr: 0xEFC8, symSize: 0x140 }
  - { offsetInCU: 0x33E, offset: 0x343E5, size: 0x8, addend: 0x0, symName: __ZN4pyo35types6module7__all__17hee1c08a2cdfc770fE, symObjAddr: 0x5D94, symBinAddr: 0xF358, symSize: 0x24 }
  - { offsetInCU: 0x411, offset: 0x344B8, size: 0x8, addend: 0x0, symName: __ZN4pyo35types6module8__name__17he30baf572f579dafE, symObjAddr: 0x6384, symBinAddr: 0xF474, symSize: 0x24 }
  - { offsetInCU: 0x450, offset: 0x344F7, size: 0x8, addend: 0x0, symName: '__ZN79_$LT$pyo3..types..module..PyModule$u20$as$u20$pyo3..type_object..PyTypeInfo$GT$10is_type_of17h1fae951b803b481cE', symObjAddr: 0x7024, symBinAddr: 0xF6E8, symSize: 0x30 }
  - { offsetInCU: 0x47C, offset: 0x34523, size: 0x8, addend: 0x0, symName: '__ZN79_$LT$pyo3..types..module..PyModule$u20$as$u20$pyo3..type_object..PyTypeInfo$GT$15type_object_raw17h7da2de08a377ddfeE', symObjAddr: 0x7054, symBinAddr: 0xF718, symSize: 0x24 }
  - { offsetInCU: 0x4B8, offset: 0x3455F, size: 0x8, addend: 0x0, symName: '__ZN79_$LT$pyo3..types..module..PyModule$u20$as$u20$pyo3..type_object..PyTypeInfo$GT$15type_object_raw28_$u7b$$u7b$closure$u7d$$u7d$17he48c2fd4d4d5858bE', symObjAddr: 0x7078, symBinAddr: 0xF73C, symSize: 0x18 }
  - { offsetInCU: 0x537, offset: 0x345DE, size: 0x8, addend: 0x0, symName: '__ZN75_$LT$pyo3..types..none..PyNone$u20$as$u20$pyo3..type_object..PyTypeInfo$GT$15type_object_raw17h789c497c1891f630E', symObjAddr: 0x6AD4, symBinAddr: 0xF658, symSize: 0x20 }
  - { offsetInCU: 0xAD7, offset: 0x34B7E, size: 0x8, addend: 0x0, symName: '__ZN79_$LT$pyo3..exceptions..PyTypeError$u20$as$u20$pyo3..type_object..PyTypeInfo$GT$15type_object_raw17h39557b1a2aca96fdE', symObjAddr: 0x6EC8, symBinAddr: 0xF678, symSize: 0x24 }
  - { offsetInCU: 0xB13, offset: 0x34BBA, size: 0x8, addend: 0x0, symName: '__ZN79_$LT$pyo3..exceptions..PyTypeError$u20$as$u20$pyo3..type_object..PyTypeInfo$GT$15type_object_raw28_$u7b$$u7b$closure$u7d$$u7d$17h71ac2272b3593dffE', symObjAddr: 0x6EEC, symBinAddr: 0xF69C, symSize: 0x4C }
  - { offsetInCU: 0xB66, offset: 0x34C0D, size: 0x8, addend: 0x0, symName: '__ZN82_$LT$pyo3..exceptions..PyRuntimeError$u20$as$u20$pyo3..type_object..PyTypeInfo$GT$15type_object_raw17hc92c5c6190852d65E', symObjAddr: 0x78DC, symBinAddr: 0xF7F0, symSize: 0x24 }
  - { offsetInCU: 0xBA2, offset: 0x34C49, size: 0x8, addend: 0x0, symName: '__ZN82_$LT$pyo3..exceptions..PyRuntimeError$u20$as$u20$pyo3..type_object..PyTypeInfo$GT$15type_object_raw28_$u7b$$u7b$closure$u7d$$u7d$17h6a95c1e267568c47E', symObjAddr: 0x7900, symBinAddr: 0xF814, symSize: 0x4C }
  - { offsetInCU: 0xBF5, offset: 0x34C9C, size: 0x8, addend: 0x0, symName: '__ZN83_$LT$pyo3..exceptions..PyBaseException$u20$as$u20$pyo3..type_object..PyTypeInfo$GT$10is_type_of17hbbecd48b49f87bd9E', symObjAddr: 0x79BC, symBinAddr: 0xF860, symSize: 0x30 }
  - { offsetInCU: 0xC21, offset: 0x34CC8, size: 0x8, addend: 0x0, symName: '__ZN83_$LT$pyo3..exceptions..PyBaseException$u20$as$u20$pyo3..type_object..PyTypeInfo$GT$15type_object_raw17h9bd14204fe623438E', symObjAddr: 0x79EC, symBinAddr: 0xF890, symSize: 0x24 }
  - { offsetInCU: 0xC5D, offset: 0x34D04, size: 0x8, addend: 0x0, symName: '__ZN83_$LT$pyo3..exceptions..PyBaseException$u20$as$u20$pyo3..type_object..PyTypeInfo$GT$15type_object_raw28_$u7b$$u7b$closure$u7d$$u7d$17ha6a803a95e3a1e25E', symObjAddr: 0x7A10, symBinAddr: 0xF8B4, symSize: 0x4C }
  - { offsetInCU: 0xCB0, offset: 0x34D57, size: 0x8, addend: 0x0, symName: '__ZN84_$LT$pyo3..exceptions..PyAttributeError$u20$as$u20$pyo3..type_object..PyTypeInfo$GT$15type_object_raw17h50de1d3da5a2c6b0E', symObjAddr: 0x7BB0, symBinAddr: 0xF900, symSize: 0x24 }
  - { offsetInCU: 0xCEC, offset: 0x34D93, size: 0x8, addend: 0x0, symName: '__ZN84_$LT$pyo3..exceptions..PyAttributeError$u20$as$u20$pyo3..type_object..PyTypeInfo$GT$15type_object_raw28_$u7b$$u7b$closure$u7d$$u7d$17ha5ca0628a1e380a9E', symObjAddr: 0x7BD4, symBinAddr: 0xF924, symSize: 0x4C }
  - { offsetInCU: 0xDDB, offset: 0x34E82, size: 0x8, addend: 0x0, symName: __ZN4pyo311type_object10PyTypeInfo11type_object17h3c3ce861d41ba25eE, symObjAddr: 0x5280, symBinAddr: 0xF1E4, symSize: 0x30 }
  - { offsetInCU: 0xE1B, offset: 0x34EC2, size: 0x8, addend: 0x0, symName: __ZN4pyo311type_object10PyTypeInfo11type_object17h465c5521fe77718dE, symObjAddr: 0x52E0, symBinAddr: 0xF214, symSize: 0x30 }
  - { offsetInCU: 0xE5B, offset: 0x34F02, size: 0x8, addend: 0x0, symName: __ZN4pyo311type_object10PyTypeInfo11type_object17hb0bb441a65b8ec90E, symObjAddr: 0x5520, symBinAddr: 0xF244, symSize: 0x30 }
  - { offsetInCU: 0xE9B, offset: 0x34F42, size: 0x8, addend: 0x0, symName: __ZN4pyo311type_object10PyTypeInfo11type_object17hb6baf24056244b54E, symObjAddr: 0x5550, symBinAddr: 0xF274, symSize: 0x30 }
  - { offsetInCU: 0xEDB, offset: 0x34F82, size: 0x8, addend: 0x0, symName: __ZN4pyo311type_object10PyTypeInfo11type_object17hb917743b20896f36E, symObjAddr: 0x5580, symBinAddr: 0xF2A4, symSize: 0x30 }
  - { offsetInCU: 0xF1B, offset: 0x34FC2, size: 0x8, addend: 0x0, symName: __ZN4pyo311type_object10PyTypeInfo11type_object17hc858e70006b248e8E, symObjAddr: 0x55B0, symBinAddr: 0xF2D4, symSize: 0x30 }
  - { offsetInCU: 0xF5B, offset: 0x35002, size: 0x8, addend: 0x0, symName: __ZN4pyo311type_object10PyTypeInfo11type_object17hd240ced468a46116E, symObjAddr: 0x5640, symBinAddr: 0xF304, symSize: 0x30 }
  - { offsetInCU: 0xFA1, offset: 0x35048, size: 0x8, addend: 0x0, symName: '__ZN52_$LT$T$u20$as$u20$pyo3..type_object..PyTypeCheck$GT$10type_check17h4dadda908c571e45E', symObjAddr: 0x67BC, symBinAddr: 0xF58C, symSize: 0x24 }
  - { offsetInCU: 0xFD6, offset: 0x3507D, size: 0x8, addend: 0x0, symName: '__ZN52_$LT$T$u20$as$u20$pyo3..type_object..PyTypeCheck$GT$10type_check17he9e147d3568f8209E', symObjAddr: 0x684C, symBinAddr: 0xF5B0, symSize: 0x24 }
  - { offsetInCU: 0x100B, offset: 0x350B2, size: 0x8, addend: 0x0, symName: '__ZN52_$LT$T$u20$as$u20$pyo3..type_object..PyTypeCheck$GT$10type_check17hf6564c7162bafc62E', symObjAddr: 0x6894, symBinAddr: 0xF5D4, symSize: 0x24 }
  - { offsetInCU: 0x1040, offset: 0x350E7, size: 0x8, addend: 0x0, symName: '__ZN52_$LT$T$u20$as$u20$pyo3..type_object..PyTypeCheck$GT$16classinfo_object17h11353f763767f224E', symObjAddr: 0x68B8, symBinAddr: 0xF5F8, symSize: 0x20 }
  - { offsetInCU: 0x1080, offset: 0x35127, size: 0x8, addend: 0x0, symName: '__ZN52_$LT$T$u20$as$u20$pyo3..type_object..PyTypeCheck$GT$16classinfo_object17h118c0693b8c16481E', symObjAddr: 0x68D8, symBinAddr: 0xF618, symSize: 0x20 }
  - { offsetInCU: 0x10C0, offset: 0x35167, size: 0x8, addend: 0x0, symName: '__ZN52_$LT$T$u20$as$u20$pyo3..type_object..PyTypeCheck$GT$16classinfo_object17h4012a1da4bcaa401E', symObjAddr: 0x68F8, symBinAddr: 0xF638, symSize: 0x20 }
  - { offsetInCU: 0x19A0, offset: 0x35A47, size: 0x8, addend: 0x0, symName: '__ZN4core3num23_$LT$impl$u20$usize$GT$13unchecked_add18precondition_check17h989651383650f105E', symObjAddr: 0x22A4, symBinAddr: 0xF108, symSize: 0x64 }
  - { offsetInCU: 0x1AF4, offset: 0x35B9B, size: 0x8, addend: 0x0, symName: '__ZN82_$LT$core..array..iter..IntoIter$LT$T$C$_$GT$$u20$as$u20$core..ops..drop..Drop$GT$4drop17h3287e724cfdbbbc5E', symObjAddr: 0x77A8, symBinAddr: 0xF7C0, symSize: 0x30 }
  - { offsetInCU: 0x1B4B, offset: 0x35BF2, size: 0x8, addend: 0x0, symName: '__ZN99_$LT$core..array..iter..IntoIter$LT$T$C$_$GT$$u20$as$u20$core..iter..traits..iterator..Iterator$GT$4next17h024cca9162b32090E', symObjAddr: 0x8310, symBinAddr: 0xFA64, symSize: 0x2C }
  - { offsetInCU: 0x1F68, offset: 0x3600F, size: 0x8, addend: 0x0, symName: __ZN4core4iter6traits8iterator8Iterator9enumerate17h8faf14cdee8723d7E, symObjAddr: 0x24A0, symBinAddr: 0xF16C, symSize: 0x18 }
  - { offsetInCU: 0x1F99, offset: 0x36040, size: 0x8, addend: 0x0, symName: __ZN4core4iter6traits8iterator8Iterator9enumerate17h8faf14cdee8723d7E, symObjAddr: 0x24A0, symBinAddr: 0xF16C, symSize: 0x18 }
  - { offsetInCU: 0x261D, offset: 0x366C4, size: 0x8, addend: 0x0, symName: '__ZN87_$LT$T$u20$as$u20$alloc..slice..$LT$impl$u20$$u5b$T$u5d$$GT$..to_vec_in..ConvertVec$GT$6to_vec17h9c7218b25f9435f9E', symObjAddr: 0x7EBC, symBinAddr: 0xF970, symSize: 0xF4 }
  - { offsetInCU: 0x2A86, offset: 0x36B2D, size: 0x8, addend: 0x0, symName: __ZN4pyo310exceptions11PyTypeError7new_err17h4409b481449eb0f7E, symObjAddr: 0x26D8, symBinAddr: 0xF184, symSize: 0x2C }
  - { offsetInCU: 0x2AB1, offset: 0x36B58, size: 0x8, addend: 0x0, symName: __ZN4pyo310exceptions11PyTypeError7new_err17h782a1e1a0d9c6f85E, symObjAddr: 0x2738, symBinAddr: 0xF1B0, symSize: 0x34 }
  - { offsetInCU: 0x2B39, offset: 0x36BE0, size: 0x8, addend: 0x0, symName: __ZN4pyo35types4none6PyNone3get17h548429d9cad38f83E, symObjAddr: 0x5B5C, symBinAddr: 0xF334, symSize: 0x24 }
  - { offsetInCU: 0x2B73, offset: 0x36C1A, size: 0x8, addend: 0x0, symName: __ZN4pyo35types6module8PyModule6import17h546d85745e868db6E, symObjAddr: 0x5F98, symBinAddr: 0xF37C, symSize: 0xF8 }
  - { offsetInCU: 0x2C18, offset: 0x36CBF, size: 0x8, addend: 0x0, symName: __ZN4pyo35types6string8PyString3new17hce29799967e0c118E, symObjAddr: 0x653C, symBinAddr: 0xF498, symSize: 0x68 }
  - { offsetInCU: 0x2C8D, offset: 0x36D34, size: 0x8, addend: 0x0, symName: __ZN4pyo35types6string8PyString6intern17h6b575f34a3032118E, symObjAddr: 0x65A4, symBinAddr: 0xF500, symSize: 0x8C }
  - { offsetInCU: 0xD2, offset: 0x37120, size: 0x8, addend: 0x0, symName: '__ZN103_$LT$alloc..vec..into_iter..IntoIter$LT$T$C$A$GT$$u20$as$u20$core..iter..traits..iterator..Iterator$GT$4next17hf4f735988f374fb9E', symObjAddr: 0xA8, symBinAddr: 0xFA90, symSize: 0x88 }
  - { offsetInCU: 0x278, offset: 0x372C6, size: 0x8, addend: 0x0, symName: '__ZN157_$LT$$LT$alloc..vec..into_iter..IntoIter$LT$T$C$A$GT$$u20$as$u20$core..ops..drop..Drop$GT$..drop..DropGuard$LT$T$C$A$GT$$u20$as$u20$core..ops..drop..Drop$GT$4drop17hd61667b4aaa98edcE', symObjAddr: 0x47C, symBinAddr: 0xFC14, symSize: 0x6C }
  - { offsetInCU: 0x3E4, offset: 0x37432, size: 0x8, addend: 0x0, symName: '__ZN86_$LT$alloc..vec..into_iter..IntoIter$LT$T$C$A$GT$$u20$as$u20$core..ops..drop..Drop$GT$4drop17he6c1d63b82a2f58eE', symObjAddr: 0x69A4, symBinAddr: 0x10E68, symSize: 0x64 }
  - { offsetInCU: 0xF8F, offset: 0x37FDD, size: 0x8, addend: 0x0, symName: '__ZN145_$LT$core..option..Option$LT$T$GT$$u20$as$u20$core..ops..try_trait..FromResidual$LT$core..option..Option$LT$core..convert..Infallible$GT$$GT$$GT$13from_residual17h8ae5518ffbf3c161E', symObjAddr: 0x448, symBinAddr: 0xFC04, symSize: 0x10 }
  - { offsetInCU: 0x2970, offset: 0x399BE, size: 0x8, addend: 0x0, symName: '__ZN66_$LT$core..option..Option$LT$T$GT$$u20$as$u20$core..fmt..Debug$GT$3fmt17h52b3366d1cac70caE', symObjAddr: 0x6680, symBinAddr: 0x10D68, symSize: 0xA0 }
  - { offsetInCU: 0x29DA, offset: 0x39A28, size: 0x8, addend: 0x0, symName: '__ZN75_$LT$core..option..Option$LT$T$GT$$u20$as$u20$core..ops..try_trait..Try$GT$6branch17h102436dccde446cbE', symObjAddr: 0x6800, symBinAddr: 0x10E08, symSize: 0x60 }
  - { offsetInCU: 0x2C4E, offset: 0x39C9C, size: 0x8, addend: 0x0, symName: '__ZN4core5slice4iter87_$LT$impl$u20$core..iter..traits..collect..IntoIterator$u20$for$u20$$RF$$u5b$T$u5d$$GT$9into_iter17h47359b29eec973cbE', symObjAddr: 0x13A8, symBinAddr: 0xFC80, symSize: 0x50 }
  - { offsetInCU: 0x304E, offset: 0x3A09C, size: 0x8, addend: 0x0, symName: '__ZN118_$LT$$u5b$core..mem..maybe_uninit..MaybeUninit$LT$T$GT$$u5d$$u20$as$u20$core..array..iter..iter_inner..PartialDrop$GT$12partial_drop17h00bd28fd4a7c6bb9E', symObjAddr: 0x130, symBinAddr: 0xFB18, symSize: 0xA0 }
  - { offsetInCU: 0x3156, offset: 0x3A1A4, size: 0x8, addend: 0x0, symName: '__ZN129_$LT$$u5b$core..mem..maybe_uninit..MaybeUninit$LT$T$GT$$u3b$$u20$N$u5d$$u20$as$u20$core..array..iter..iter_inner..PartialDrop$GT$12partial_drop17h85596735fda79953E', symObjAddr: 0x308, symBinAddr: 0xFBB8, symSize: 0x4C }
  - { offsetInCU: 0x381F, offset: 0x3A86D, size: 0x8, addend: 0x0, symName: '__ZN53_$LT$T$u20$as$u20$core..convert..TryInto$LT$U$GT$$GT$8try_into17h13801bc7588c01d2E', symObjAddr: 0x63B0, symBinAddr: 0x10C7C, symSize: 0x20 }
  - { offsetInCU: 0x4D53, offset: 0x3BDA1, size: 0x8, addend: 0x0, symName: '__ZN4core6option15Option$LT$T$GT$11map_or_else17h0d1a2f5c71fcd194E', symObjAddr: 0x19DC, symBinAddr: 0xFCD0, symSize: 0xC0 }
  - { offsetInCU: 0x4F50, offset: 0x3BF9E, size: 0x8, addend: 0x0, symName: '__ZN4core6option15Option$LT$T$GT$11map_or_else17ha119b3f1a172b65cE', symObjAddr: 0x1E84, symBinAddr: 0xFD90, symSize: 0xC0 }
  - { offsetInCU: 0x4FFE, offset: 0x3C04C, size: 0x8, addend: 0x0, symName: '__ZN4core6option15Option$LT$T$GT$14unwrap_or_else17h06f66b57a7a02905E', symObjAddr: 0x2008, symBinAddr: 0xFE50, symSize: 0x68 }
  - { offsetInCU: 0x5055, offset: 0x3C0A3, size: 0x8, addend: 0x0, symName: '__ZN4core6option15Option$LT$T$GT$14unwrap_or_else17h1e692619564aa2cfE', symObjAddr: 0x2070, symBinAddr: 0xFEB8, symSize: 0x54 }
  - { offsetInCU: 0x50B4, offset: 0x3C102, size: 0x8, addend: 0x0, symName: '__ZN4core6option15Option$LT$T$GT$14unwrap_or_else17h85394924a4c9300aE', symObjAddr: 0x20C4, symBinAddr: 0xFF0C, symSize: 0x6C }
  - { offsetInCU: 0x50F9, offset: 0x3C147, size: 0x8, addend: 0x0, symName: '__ZN4core6option15Option$LT$T$GT$14unwrap_or_else17hb7417ff100b3ec97E', symObjAddr: 0x2130, symBinAddr: 0xFF78, symSize: 0x58 }
  - { offsetInCU: 0x514A, offset: 0x3C198, size: 0x8, addend: 0x0, symName: '__ZN4core6option15Option$LT$T$GT$16unwrap_unchecked17h33e8cc4f58171cb3E', symObjAddr: 0x22D8, symBinAddr: 0xFFD0, symSize: 0x60 }
  - { offsetInCU: 0x518C, offset: 0x3C1DA, size: 0x8, addend: 0x0, symName: '__ZN4core6option15Option$LT$T$GT$16unwrap_unchecked17h664dbe472a37ec18E', symObjAddr: 0x2394, symBinAddr: 0x10030, symSize: 0x4C }
  - { offsetInCU: 0x51CD, offset: 0x3C21B, size: 0x8, addend: 0x0, symName: '__ZN4core6option15Option$LT$T$GT$16unwrap_unchecked17h8178468d5a7bf70fE', symObjAddr: 0x2440, symBinAddr: 0x1007C, symSize: 0x4C }
  - { offsetInCU: 0x520E, offset: 0x3C25C, size: 0x8, addend: 0x0, symName: '__ZN4core6option15Option$LT$T$GT$16unwrap_unchecked17haa739960f277416cE', symObjAddr: 0x2534, symBinAddr: 0x100C8, symSize: 0x5C }
  - { offsetInCU: 0x526E, offset: 0x3C2BC, size: 0x8, addend: 0x0, symName: '__ZN4core6option15Option$LT$T$GT$3map17h19637a7fd4a05f7bE', symObjAddr: 0x2738, symBinAddr: 0x10124, symSize: 0x50 }
  - { offsetInCU: 0x52F1, offset: 0x3C33F, size: 0x8, addend: 0x0, symName: '__ZN4core6option15Option$LT$T$GT$3map17h1c4d429ad978784eE', symObjAddr: 0x2788, symBinAddr: 0x10174, symSize: 0x50 }
  - { offsetInCU: 0x5374, offset: 0x3C3C2, size: 0x8, addend: 0x0, symName: '__ZN4core6option15Option$LT$T$GT$3map17h2cd7953ac19ae635E', symObjAddr: 0x2854, symBinAddr: 0x101C4, symSize: 0x7C }
  - { offsetInCU: 0x53DF, offset: 0x3C42D, size: 0x8, addend: 0x0, symName: '__ZN4core6option15Option$LT$T$GT$3map17h30f2ed225d7ce2daE', symObjAddr: 0x28D0, symBinAddr: 0x10240, symSize: 0x50 }
  - { offsetInCU: 0x544A, offset: 0x3C498, size: 0x8, addend: 0x0, symName: '__ZN4core6option15Option$LT$T$GT$3map17h31bd7a6060399bceE', symObjAddr: 0x2920, symBinAddr: 0x10290, symSize: 0x80 }
  - { offsetInCU: 0x54B5, offset: 0x3C503, size: 0x8, addend: 0x0, symName: '__ZN4core6option15Option$LT$T$GT$3map17h33620e450f48bcabE', symObjAddr: 0x29A0, symBinAddr: 0x10310, symSize: 0x84 }
  - { offsetInCU: 0x5546, offset: 0x3C594, size: 0x8, addend: 0x0, symName: '__ZN4core6option15Option$LT$T$GT$3map17h7cab3a5a562efcf3E', symObjAddr: 0x2B4C, symBinAddr: 0x10394, symSize: 0x50 }
  - { offsetInCU: 0x55C9, offset: 0x3C617, size: 0x8, addend: 0x0, symName: '__ZN4core6option15Option$LT$T$GT$3map17hba932e0aadde7c04E', symObjAddr: 0x2C18, symBinAddr: 0x103E4, symSize: 0x5C }
  - { offsetInCU: 0x5634, offset: 0x3C682, size: 0x8, addend: 0x0, symName: '__ZN4core6option15Option$LT$T$GT$3map17hcef3bd3626fa286cE', symObjAddr: 0x2C74, symBinAddr: 0x10440, symSize: 0x50 }
  - { offsetInCU: 0x569F, offset: 0x3C6ED, size: 0x8, addend: 0x0, symName: '__ZN4core6option15Option$LT$T$GT$3map17hcf6833ae4ebffa7fE', symObjAddr: 0x2CC4, symBinAddr: 0x10490, symSize: 0x78 }
  - { offsetInCU: 0x570A, offset: 0x3C758, size: 0x8, addend: 0x0, symName: '__ZN4core6option15Option$LT$T$GT$3map17hd4ea78a7fb338a08E', symObjAddr: 0x2D3C, symBinAddr: 0x10508, symSize: 0x5C }
  - { offsetInCU: 0x5775, offset: 0x3C7C3, size: 0x8, addend: 0x0, symName: '__ZN4core6option15Option$LT$T$GT$3map17hfa6909a6982a6bc6E', symObjAddr: 0x2D98, symBinAddr: 0x10564, symSize: 0x50 }
  - { offsetInCU: 0x57ED, offset: 0x3C83B, size: 0x8, addend: 0x0, symName: '__ZN4core6option15Option$LT$T$GT$4take17h2a65de572d39d727E', symObjAddr: 0x2E84, symBinAddr: 0x105B4, symSize: 0x38 }
  - { offsetInCU: 0x5851, offset: 0x3C89F, size: 0x8, addend: 0x0, symName: '__ZN4core6option15Option$LT$T$GT$4take17ha0f4e1066c954592E', symObjAddr: 0x2FD0, symBinAddr: 0x105EC, symSize: 0x5C }
  - { offsetInCU: 0x58A8, offset: 0x3C8F6, size: 0x8, addend: 0x0, symName: '__ZN4core6option15Option$LT$T$GT$4take17hd9450e4439d9bd3fE', symObjAddr: 0x302C, symBinAddr: 0x10648, symSize: 0x3C }
  - { offsetInCU: 0x58FF, offset: 0x3C94D, size: 0x8, addend: 0x0, symName: '__ZN4core6option15Option$LT$T$GT$6as_ref17h1516cac01f3fd6edE', symObjAddr: 0x3180, symBinAddr: 0x10684, symSize: 0x4C }
  - { offsetInCU: 0x5956, offset: 0x3C9A4, size: 0x8, addend: 0x0, symName: '__ZN4core6option15Option$LT$T$GT$6as_ref17h25a542cdc030d13aE', symObjAddr: 0x31CC, symBinAddr: 0x106D0, symSize: 0x4C }
  - { offsetInCU: 0x59BA, offset: 0x3CA08, size: 0x8, addend: 0x0, symName: '__ZN4core6option15Option$LT$T$GT$6as_ref17h38ce401c235fb1c2E', symObjAddr: 0x3264, symBinAddr: 0x1071C, symSize: 0x4C }
  - { offsetInCU: 0x5A2B, offset: 0x3CA79, size: 0x8, addend: 0x0, symName: '__ZN4core6option15Option$LT$T$GT$6as_ref17h45d16592b9088e19E', symObjAddr: 0x32FC, symBinAddr: 0x10768, symSize: 0x4C }
  - { offsetInCU: 0x5A9C, offset: 0x3CAEA, size: 0x8, addend: 0x0, symName: '__ZN4core6option15Option$LT$T$GT$6as_ref17h6bf14209b3851b94E', symObjAddr: 0x33E0, symBinAddr: 0x107B4, symSize: 0x4C }
  - { offsetInCU: 0x5B0D, offset: 0x3CB5B, size: 0x8, addend: 0x0, symName: '__ZN4core6option15Option$LT$T$GT$6as_ref17hbafc805cd71520d4E', symObjAddr: 0x34C4, symBinAddr: 0x10800, symSize: 0x4C }
  - { offsetInCU: 0x5B57, offset: 0x3CBA5, size: 0x8, addend: 0x0, symName: '__ZN4core6option15Option$LT$T$GT$6expect17h3bc2c32d281d607fE', symObjAddr: 0x3510, symBinAddr: 0x1084C, symSize: 0x5C }
  - { offsetInCU: 0x5B92, offset: 0x3CBE0, size: 0x8, addend: 0x0, symName: '__ZN4core6option15Option$LT$T$GT$6expect17h5c4ab54b61ebbd28E', symObjAddr: 0x356C, symBinAddr: 0x108A8, symSize: 0x68 }
  - { offsetInCU: 0x5BCE, offset: 0x3CC1C, size: 0x8, addend: 0x0, symName: '__ZN4core6option15Option$LT$T$GT$6expect17hffa0234359fac21dE', symObjAddr: 0x3630, symBinAddr: 0x10910, symSize: 0x5C }
  - { offsetInCU: 0x5C21, offset: 0x3CC6F, size: 0x8, addend: 0x0, symName: '__ZN4core6option15Option$LT$T$GT$6map_or17h0548fbdf5fb8590bE', symObjAddr: 0x368C, symBinAddr: 0x1096C, symSize: 0x9C }
  - { offsetInCU: 0x5CAB, offset: 0x3CCF9, size: 0x8, addend: 0x0, symName: '__ZN4core6option15Option$LT$T$GT$6map_or17h1547c67f86632581E', symObjAddr: 0x3728, symBinAddr: 0x10A08, symSize: 0x9C }
  - { offsetInCU: 0x5D35, offset: 0x3CD83, size: 0x8, addend: 0x0, symName: '__ZN4core6option15Option$LT$T$GT$6map_or17h4fbe7a35c5426aebE', symObjAddr: 0x37C4, symBinAddr: 0x10AA4, symSize: 0x9C }
  - { offsetInCU: 0x5DD7, offset: 0x3CE25, size: 0x8, addend: 0x0, symName: '__ZN4core6option15Option$LT$T$GT$6map_or17h8775066e55f8b3acE', symObjAddr: 0x3908, symBinAddr: 0x10B40, symSize: 0x9C }
  - { offsetInCU: 0x5E65, offset: 0x3CEB3, size: 0x8, addend: 0x0, symName: '__ZN4core6option15Option$LT$T$GT$7is_none17h2af25cb3deac1207E', symObjAddr: 0x3A68, symBinAddr: 0x10BDC, symSize: 0x28 }
  - { offsetInCU: 0x5EBC, offset: 0x3CF0A, size: 0x8, addend: 0x0, symName: '__ZN4core6option15Option$LT$T$GT$7is_some17h598f486124f62c0fE', symObjAddr: 0x3B2C, symBinAddr: 0x10C04, symSize: 0x28 }
  - { offsetInCU: 0x5F0F, offset: 0x3CF5D, size: 0x8, addend: 0x0, symName: '__ZN4core6option15Option$LT$T$GT$7replace17h492f541354509c74E', symObjAddr: 0x3B9C, symBinAddr: 0x10C2C, symSize: 0x24 }
  - { offsetInCU: 0x5F68, offset: 0x3CFB6, size: 0x8, addend: 0x0, symName: __ZN4pyo35impl_8pymodule9ModuleDef16init_multi_phase17h38862b1cab151ba2E, symObjAddr: 0x4A24, symBinAddr: 0x10C50, symSize: 0x2C }
  - { offsetInCU: 0x6019, offset: 0x3D067, size: 0x8, addend: 0x0, symName: '__ZN5alloc3vec9into_iter21IntoIter$LT$T$C$A$GT$16as_raw_mut_slice17h4901e5257fde49a6E', symObjAddr: 0x6430, symBinAddr: 0x10C9C, symSize: 0xCC }
  - { offsetInCU: 0x8C, offset: 0x3D277, size: 0x8, addend: 0x0, symName: '__ZN81_$LT$pyo3..types..typeobject..PyType$u20$as$u20$pyo3..type_object..PyTypeInfo$GT$10is_type_of17h41f940b777b38cacE', symObjAddr: 0x94BC, symBinAddr: 0x13434, symSize: 0x30 }
  - { offsetInCU: 0xB8, offset: 0x3D2A3, size: 0x8, addend: 0x0, symName: '__ZN81_$LT$pyo3..types..typeobject..PyType$u20$as$u20$pyo3..type_object..PyTypeInfo$GT$15type_object_raw17h498d5b30a255bd2dE', symObjAddr: 0x94EC, symBinAddr: 0x13464, symSize: 0x24 }
  - { offsetInCU: 0xF4, offset: 0x3D2DF, size: 0x8, addend: 0x0, symName: '__ZN81_$LT$pyo3..types..typeobject..PyType$u20$as$u20$pyo3..type_object..PyTypeInfo$GT$15type_object_raw28_$u7b$$u7b$closure$u7d$$u7d$17h4f5b40a64c445d04E', symObjAddr: 0x9510, symBinAddr: 0x13488, symSize: 0x18 }
  - { offsetInCU: 0x184, offset: 0x3D36F, size: 0x8, addend: 0x0, symName: '__ZN107_$LT$pyo3..instance..Bound$LT$pyo3..types..list..PyList$GT$$u20$as$u20$pyo3..types..list..PyListMethods$GT$6append5inner17h739f2b1ab299137cE', symObjAddr: 0x714, symBinAddr: 0x10F2C, symSize: 0x60 }
  - { offsetInCU: 0x1F2, offset: 0x3D3DD, size: 0x8, addend: 0x0, symName: '__ZN75_$LT$pyo3..types..list..PyList$u20$as$u20$pyo3..type_object..PyTypeInfo$GT$10is_type_of17h1f57ff809e0c408cE', symObjAddr: 0x913C, symBinAddr: 0x131E8, symSize: 0x30 }
  - { offsetInCU: 0x21E, offset: 0x3D409, size: 0x8, addend: 0x0, symName: '__ZN75_$LT$pyo3..types..list..PyList$u20$as$u20$pyo3..type_object..PyTypeInfo$GT$15type_object_raw17h1eeb6ebae687dd4dE', symObjAddr: 0x916C, symBinAddr: 0x13218, symSize: 0x24 }
  - { offsetInCU: 0x25A, offset: 0x3D445, size: 0x8, addend: 0x0, symName: '__ZN75_$LT$pyo3..types..list..PyList$u20$as$u20$pyo3..type_object..PyTypeInfo$GT$15type_object_raw28_$u7b$$u7b$closure$u7d$$u7d$17hd1027778cdc011fbE', symObjAddr: 0x9190, symBinAddr: 0x1323C, symSize: 0x18 }
  - { offsetInCU: 0x38B, offset: 0x3D576, size: 0x8, addend: 0x0, symName: __ZN4pyo35types5tuple16array_into_tuple17h9d8505a94554fe80E, symObjAddr: 0x5740, symBinAddr: 0x1254C, symSize: 0x1FC }
  - { offsetInCU: 0x4A4, offset: 0x3D68F, size: 0x8, addend: 0x0, symName: '__ZN4pyo35types5tuple74_$LT$impl$u20$pyo3..conversion..IntoPyObject$u20$for$u20$$LP$T0$C$$RP$$GT$13into_pyobject17h34e9107996b34a6fE', symObjAddr: 0x7328, symBinAddr: 0x12860, symSize: 0xCC }
  - { offsetInCU: 0x51E, offset: 0x3D709, size: 0x8, addend: 0x0, symName: '__ZN77_$LT$pyo3..types..tuple..PyTuple$u20$as$u20$pyo3..type_object..PyTypeInfo$GT$10is_type_of17h5647fc3f94a2e850E', symObjAddr: 0x92C4, symBinAddr: 0x13310, symSize: 0x30 }
  - { offsetInCU: 0x54A, offset: 0x3D735, size: 0x8, addend: 0x0, symName: '__ZN77_$LT$pyo3..types..tuple..PyTuple$u20$as$u20$pyo3..type_object..PyTypeInfo$GT$15type_object_raw17he2838d6a91bd2a25E', symObjAddr: 0x92F4, symBinAddr: 0x13340, symSize: 0x24 }
  - { offsetInCU: 0x586, offset: 0x3D771, size: 0x8, addend: 0x0, symName: '__ZN77_$LT$pyo3..types..tuple..PyTuple$u20$as$u20$pyo3..type_object..PyTypeInfo$GT$15type_object_raw28_$u7b$$u7b$closure$u7d$$u7d$17hdbce20d169852cf8E', symObjAddr: 0x9318, symBinAddr: 0x13364, symSize: 0x18 }
  - { offsetInCU: 0x5D5, offset: 0x3D7C0, size: 0x8, addend: 0x0, symName: '__ZN97_$LT$pyo3..types..tuple..BoundTupleIterator$u20$as$u20$core..iter..traits..iterator..Iterator$GT$4next17hd6d9324cf1a6f12cE', symObjAddr: 0x979C, symBinAddr: 0x134A0, symSize: 0xD0 }
  - { offsetInCU: 0x6BA, offset: 0x3D8A5, size: 0x8, addend: 0x0, symName: '__ZN4pyo34sync8Interned3get28_$u7b$$u7b$closure$u7d$$u7d$17h01a1eb9fce492f4fE', symObjAddr: 0x4638, symBinAddr: 0x124B4, symSize: 0x34 }
  - { offsetInCU: 0x9CC, offset: 0x3DBB7, size: 0x8, addend: 0x0, symName: '__ZN4pyo311conversions3std6string68_$LT$impl$u20$pyo3..conversion..FromPyObject$u20$for$u20$$RF$str$GT$7extract17h8beb1a5218b49a49E', symObjAddr: 0x2338, symBinAddr: 0x10FA4, symSize: 0x88 }
  - { offsetInCU: 0xA1B, offset: 0x3DC06, size: 0x8, addend: 0x0, symName: '__ZN4pyo311conversions3std6string68_$LT$impl$u20$pyo3..conversion..IntoPyObject$u20$for$u20$$RF$str$GT$13into_pyobject17h23e7bd2aed257363E', symObjAddr: 0x23C0, symBinAddr: 0x1102C, symSize: 0x28 }
  - { offsetInCU: 0xA96, offset: 0x3DC81, size: 0x8, addend: 0x0, symName: '__ZN4pyo33err9err_state10PyErrState14lazy_arguments28_$u7b$$u7b$closure$u7d$$u7d$17hcfb28bc33187b30dE', symObjAddr: 0x2818, symBinAddr: 0x11424, symSize: 0x70 }
  - { offsetInCU: 0xAFC, offset: 0x3DCE7, size: 0x8, addend: 0x0, symName: '__ZN4pyo33err9err_state10PyErrState10normalized28_$u7b$$u7b$closure$u7d$$u7d$17h497a4a05f8e3f180E', symObjAddr: 0x266C, symBinAddr: 0x11278, symSize: 0xC }
  - { offsetInCU: 0xB2D, offset: 0x3DD18, size: 0x8, addend: 0x0, symName: '__ZN4pyo33err9err_state10PyErrState15make_normalized28_$u7b$$u7b$closure$u7d$$u7d$17hae2444ce68eab430E', symObjAddr: 0x2B4C, symBinAddr: 0x11494, symSize: 0x34 }
  - { offsetInCU: 0xB5C, offset: 0x3DD47, size: 0x8, addend: 0x0, symName: '__ZN4pyo33err9err_state10PyErrState15make_normalized28_$u7b$$u7b$closure$u7d$$u7d$28_$u7b$$u7b$closure$u7d$$u7d$17h29b660b9ccb1c380E', symObjAddr: 0x2B80, symBinAddr: 0x114C8, symSize: 0x360 }
  - { offsetInCU: 0xC0E, offset: 0x3DDF9, size: 0x8, addend: 0x0, symName: '__ZN4pyo33err9err_state10PyErrState15make_normalized28_$u7b$$u7b$closure$u7d$$u7d$28_$u7b$$u7b$closure$u7d$$u7d$28_$u7b$$u7b$closure$u7d$$u7d$17h1bb7735f23d9390eE', symObjAddr: 0x2EE0, symBinAddr: 0x11828, symSize: 0x50 }
  - { offsetInCU: 0xE89, offset: 0x3E074, size: 0x8, addend: 0x0, symName: __ZN4pyo33err9err_state10raise_lazy17h7c37d05ca6d91087E, symObjAddr: 0x301C, symBinAddr: 0x11964, symSize: 0x130 }
  - { offsetInCU: 0xF1D, offset: 0x3E108, size: 0x8, addend: 0x0, symName: '__ZN4pyo33err9err_state20PyErrStateNormalized10ptraceback28_$u7b$$u7b$closure$u7d$$u7d$17hb3dcfcf5ee9688e0E', symObjAddr: 0x33BC, symBinAddr: 0x11D04, symSize: 0x34 }
  - { offsetInCU: 0xF7B, offset: 0x3E166, size: 0x8, addend: 0x0, symName: '__ZN4pyo33err9err_state20PyErrStateNormalized25from_normalized_ffi_tuple28_$u7b$$u7b$closure$u7d$$u7d$17h4862856fba11fc9bE', symObjAddr: 0x3534, symBinAddr: 0x11E7C, symSize: 0x28 }
  - { offsetInCU: 0xFC1, offset: 0x3E1AC, size: 0x8, addend: 0x0, symName: '__ZN4pyo33err9err_state20PyErrStateNormalized3new28_$u7b$$u7b$closure$u7d$$u7d$17h871287169c94cacfE', symObjAddr: 0x36C0, symBinAddr: 0x12008, symSize: 0x28 }
  - { offsetInCU: 0x1004, offset: 0x3E1EF, size: 0x8, addend: 0x0, symName: '__ZN4pyo33err9err_state20PyErrStateNormalized4take28_$u7b$$u7b$closure$u7d$$u7d$17h9790a7800f2dc8f4E', symObjAddr: 0x38B4, symBinAddr: 0x121FC, symSize: 0x24 }
  - { offsetInCU: 0x103A, offset: 0x3E225, size: 0x8, addend: 0x0, symName: '__ZN4pyo33err9err_state20PyErrStateNormalized4take28_$u7b$$u7b$closure$u7d$$u7d$17hc0312502a9d57656E', symObjAddr: 0x38D8, symBinAddr: 0x12220, symSize: 0x158 }
  - { offsetInCU: 0x1086, offset: 0x3E271, size: 0x8, addend: 0x0, symName: '__ZN4pyo33err9err_state20PyErrStateNormalized4take28_$u7b$$u7b$closure$u7d$$u7d$17hdd6487627d59ae75E', symObjAddr: 0x3A30, symBinAddr: 0x12378, symSize: 0x24 }
  - { offsetInCU: 0x10BC, offset: 0x3E2A7, size: 0x8, addend: 0x0, symName: '__ZN4pyo33err9err_state20PyErrStateNormalized4take28_$u7b$$u7b$closure$u7d$$u7d$17hfe5b023ed9df3b9aE', symObjAddr: 0x3A54, symBinAddr: 0x1239C, symSize: 0x24 }
  - { offsetInCU: 0x1109, offset: 0x3E2F4, size: 0x8, addend: 0x0, symName: __ZN4pyo33err9err_state30lazy_into_normalized_ffi_tuple17h0ac6d36b3bf50c5dE, symObjAddr: 0x3BA4, symBinAddr: 0x123E8, symSize: 0x84 }
  - { offsetInCU: 0x121F, offset: 0x3E40A, size: 0x8, addend: 0x0, symName: '__ZN4pyo38internal5state12ATTACH_COUNT29_$u7b$$u7b$constant$u7d$$u7d$28_$u7b$$u7b$closure$u7d$$u7d$17hf6c47c64e58cbda0E', symObjAddr: 0x847C, symBinAddr: 0x12AD0, symSize: 0x30 }
  - { offsetInCU: 0x1267, offset: 0x3E452, size: 0x8, addend: 0x0, symName: __ZN4pyo38internal5state4POOL17h7f43e67906119f45E, symObjAddr: 0xBF00, symBinAddr: 0x804B0, symSize: 0x0 }
  - { offsetInCU: 0x1390, offset: 0x3E57B, size: 0x8, addend: 0x0, symName: '__ZN4pyo38internal5state11AttachGuard10try_attach28_$u7b$$u7b$closure$u7d$$u7d$17hcc1fc5526d729781E', symObjAddr: 0x8308, symBinAddr: 0x129EC, symSize: 0x24 }
  - { offsetInCU: 0x1416, offset: 0x3E601, size: 0x8, addend: 0x0, symName: '__ZN4pyo38internal5state13SuspendAttach3new28_$u7b$$u7b$closure$u7d$$u7d$17h093f42d38078050eE', symObjAddr: 0x88E0, symBinAddr: 0x12F34, symSize: 0x28 }
  - { offsetInCU: 0x14A2, offset: 0x3E68D, size: 0x8, addend: 0x0, symName: __ZN4pyo38internal5state15register_decref17h4713c93fc7f5a42fE, symObjAddr: 0x89D8, symBinAddr: 0x12F5C, symSize: 0x2C }
  - { offsetInCU: 0x14D1, offset: 0x3E6BC, size: 0x8, addend: 0x0, symName: '__ZN4pyo38internal5state18thread_is_attached28_$u7b$$u7b$closure$u7d$$u7d$17he5bf59fa5ded8f7aE', symObjAddr: 0x8A58, symBinAddr: 0x12F88, symSize: 0x2C }
  - { offsetInCU: 0x1514, offset: 0x3E6FF, size: 0x8, addend: 0x0, symName: '__ZN4pyo38internal5state22decrement_attach_count28_$u7b$$u7b$closure$u7d$$u7d$17h75e6f03c79641bb2E', symObjAddr: 0x8A84, symBinAddr: 0x12FB4, symSize: 0x8C }
  - { offsetInCU: 0x156C, offset: 0x3E757, size: 0x8, addend: 0x0, symName: '__ZN4pyo38internal5state22increment_attach_count28_$u7b$$u7b$closure$u7d$$u7d$17h06def157ffd887feE', symObjAddr: 0x8B10, symBinAddr: 0x13040, symSize: 0x74 }
  - { offsetInCU: 0x15BF, offset: 0x3E7AA, size: 0x8, addend: 0x0, symName: __ZN4pyo38internal5state24drop_deferred_references17h458f7657051ddcf8E, symObjAddr: 0x8B84, symBinAddr: 0x130B4, symSize: 0x4C }
  - { offsetInCU: 0x160F, offset: 0x3E7FA, size: 0x8, addend: 0x0, symName: __ZN4pyo38internal5state8get_pool17h822ad048bbb431d0E, symObjAddr: 0x8BD0, symBinAddr: 0x13100, symSize: 0x1C }
  - { offsetInCU: 0x163E, offset: 0x3E829, size: 0x8, addend: 0x0, symName: '__ZN76_$LT$pyo3..internal..state..AttachGuard$u20$as$u20$core..ops..drop..Drop$GT$4drop17hb68e126b9b16f201E', symObjAddr: 0x9268, symBinAddr: 0x132B4, symSize: 0x5C }
  - { offsetInCU: 0x169D, offset: 0x3E888, size: 0x8, addend: 0x0, symName: '__ZN78_$LT$pyo3..internal..state..SuspendAttach$u20$as$u20$core..ops..drop..Drop$GT$4drop17hf55f14fc1f6cc32aE', symObjAddr: 0x9330, symBinAddr: 0x1337C, symSize: 0x80 }
  - { offsetInCU: 0x16EA, offset: 0x3E8D5, size: 0x8, addend: 0x0, symName: '__ZN78_$LT$pyo3..internal..state..SuspendAttach$u20$as$u20$core..ops..drop..Drop$GT$4drop28_$u7b$$u7b$closure$u7d$$u7d$17h7ce31dc537951b94E', symObjAddr: 0x93B0, symBinAddr: 0x133FC, symSize: 0x38 }
  - { offsetInCU: 0x176F, offset: 0x3E95A, size: 0x8, addend: 0x0, symName: __ZN4pyo311type_object10PyTypeInfo11type_object17h4597297ce378b9deE, symObjAddr: 0x2448, symBinAddr: 0x11054, symSize: 0x30 }
  - { offsetInCU: 0x17AF, offset: 0x3E99A, size: 0x8, addend: 0x0, symName: __ZN4pyo311type_object10PyTypeInfo11type_object17h49dd56a94465db71E, symObjAddr: 0x2478, symBinAddr: 0x11084, symSize: 0x30 }
  - { offsetInCU: 0x17EF, offset: 0x3E9DA, size: 0x8, addend: 0x0, symName: __ZN4pyo311type_object10PyTypeInfo11type_object17hcedba3299c0b8126E, symObjAddr: 0x24A8, symBinAddr: 0x110B4, symSize: 0x30 }
  - { offsetInCU: 0x1835, offset: 0x3EA20, size: 0x8, addend: 0x0, symName: '__ZN52_$LT$T$u20$as$u20$pyo3..type_object..PyTypeCheck$GT$10type_check17h02aa4b09bf44ef43E', symObjAddr: 0x8E80, symBinAddr: 0x1311C, symSize: 0x24 }
  - { offsetInCU: 0x186A, offset: 0x3EA55, size: 0x8, addend: 0x0, symName: '__ZN52_$LT$T$u20$as$u20$pyo3..type_object..PyTypeCheck$GT$10type_check17haee69597c086a870E', symObjAddr: 0x8EEC, symBinAddr: 0x13140, symSize: 0x24 }
  - { offsetInCU: 0x189F, offset: 0x3EA8A, size: 0x8, addend: 0x0, symName: '__ZN52_$LT$T$u20$as$u20$pyo3..type_object..PyTypeCheck$GT$10type_check17hc93f6f6859fafcf9E', symObjAddr: 0x8F10, symBinAddr: 0x13164, symSize: 0x24 }
  - { offsetInCU: 0x18D4, offset: 0x3EABF, size: 0x8, addend: 0x0, symName: '__ZN52_$LT$T$u20$as$u20$pyo3..type_object..PyTypeCheck$GT$16classinfo_object17h076fe574fb12c9c1E', symObjAddr: 0x8F34, symBinAddr: 0x13188, symSize: 0x20 }
  - { offsetInCU: 0x1914, offset: 0x3EAFF, size: 0x8, addend: 0x0, symName: '__ZN52_$LT$T$u20$as$u20$pyo3..type_object..PyTypeCheck$GT$16classinfo_object17h3944d9d41e86d25aE', symObjAddr: 0x8F94, symBinAddr: 0x131A8, symSize: 0x20 }
  - { offsetInCU: 0x1954, offset: 0x3EB3F, size: 0x8, addend: 0x0, symName: '__ZN52_$LT$T$u20$as$u20$pyo3..type_object..PyTypeCheck$GT$16classinfo_object17h4c556706686a8665E', symObjAddr: 0x8FB4, symBinAddr: 0x131C8, symSize: 0x20 }
  - { offsetInCU: 0x2755, offset: 0x3F940, size: 0x8, addend: 0x0, symName: '__ZN104_$LT$core..ops..index_range..IndexRange$u20$as$u20$core..slice..index..SliceIndex$LT$$u5b$T$u5d$$GT$$GT$17get_unchecked_mut18precondition_check17h1767a4cb5bab6f73E', symObjAddr: 0x214, symBinAddr: 0x10ECC, symSize: 0x60 }
  - { offsetInCU: 0x27B4, offset: 0x3F99F, size: 0x8, addend: 0x0, symName: '__ZN75_$LT$usize$u20$as$u20$core..slice..index..SliceIndex$LT$$u5b$T$u5d$$GT$$GT$13get_unchecked18precondition_check17hf87436299b156738E', symObjAddr: 0x91A8, symBinAddr: 0x13254, symSize: 0x60 }
  - { offsetInCU: 0x289D, offset: 0x3FA88, size: 0x8, addend: 0x0, symName: __ZN4core4iter6traits8iterator8Iterator9enumerate17h38d988621414c468E, symObjAddr: 0xD54, symBinAddr: 0x10F8C, symSize: 0x18 }
  - { offsetInCU: 0x28CE, offset: 0x3FAB9, size: 0x8, addend: 0x0, symName: __ZN4core4iter6traits8iterator8Iterator9enumerate17h38d988621414c468E, symObjAddr: 0xD54, symBinAddr: 0x10F8C, symSize: 0x18 }
  - { offsetInCU: 0x36EE, offset: 0x408D9, size: 0x8, addend: 0x0, symName: __ZN4pyo33err9err_state10PyErrState10from_inner17hd4a210db4505af76E, symObjAddr: 0x24D8, symBinAddr: 0x110E4, symSize: 0x100 }
  - { offsetInCU: 0x372F, offset: 0x4091A, size: 0x8, addend: 0x0, symName: __ZN4pyo33err9err_state10PyErrState10normalized17h120b8c0eae161d49E, symObjAddr: 0x25D8, symBinAddr: 0x111E4, symSize: 0x94 }
  - { offsetInCU: 0x3781, offset: 0x4096C, size: 0x8, addend: 0x0, symName: __ZN4pyo33err9err_state10PyErrState13as_normalized17h7707c696728615d0E, symObjAddr: 0x2678, symBinAddr: 0x11284, symSize: 0xF8 }
  - { offsetInCU: 0x37E6, offset: 0x409D1, size: 0x8, addend: 0x0, symName: __ZN4pyo33err9err_state10PyErrState14lazy_arguments17h7dcdd013ff42d56eE, symObjAddr: 0x2770, symBinAddr: 0x1137C, symSize: 0xA8 }
  - { offsetInCU: 0x38AA, offset: 0x40A95, size: 0x8, addend: 0x0, symName: __ZN4pyo33err9err_state10PyErrState15make_normalized17hdf1bd7f4aa0d3996E, symObjAddr: 0x2888, symBinAddr: 0x514A0, symSize: 0x2C4 }
  - { offsetInCU: 0x396C, offset: 0x40B57, size: 0x8, addend: 0x0, symName: __ZN4pyo33err9err_state10PyErrState4lazy17hd71cc32cee15184bE, symObjAddr: 0x2F30, symBinAddr: 0x11878, symSize: 0x40 }
  - { offsetInCU: 0x39AA, offset: 0x40B95, size: 0x8, addend: 0x0, symName: __ZN4pyo33err9err_state10PyErrState7restore17haf994b11ed6ffb52E, symObjAddr: 0x2F70, symBinAddr: 0x118B8, symSize: 0xAC }
  - { offsetInCU: 0x3A04, offset: 0x40BEF, size: 0x8, addend: 0x0, symName: __ZN4pyo33err9err_state15PyErrStateInner7restore17h5c7f01314c35ae6dE, symObjAddr: 0x314C, symBinAddr: 0x11A94, symSize: 0x1A4 }
  - { offsetInCU: 0x3AEE, offset: 0x40CD9, size: 0x8, addend: 0x0, symName: __ZN4pyo33err9err_state15PyErrStateInner9normalize17hcfbd0ef194a237e7E, symObjAddr: 0x32F0, symBinAddr: 0x11C38, symSize: 0xA0 }
  - { offsetInCU: 0x3BA7, offset: 0x40D92, size: 0x8, addend: 0x0, symName: __ZN4pyo33err9err_state20PyErrStateNormalized10ptraceback17hd8f5a9341b0bbbbcE, symObjAddr: 0x3390, symBinAddr: 0x11CD8, symSize: 0x2C }
  - { offsetInCU: 0x3BE2, offset: 0x40DCD, size: 0x8, addend: 0x0, symName: __ZN4pyo33err9err_state20PyErrStateNormalized25from_normalized_ffi_tuple17h15c1f66e0ef13b5eE, symObjAddr: 0x33F0, symBinAddr: 0x11D38, symSize: 0x144 }
  - { offsetInCU: 0x3C39, offset: 0x40E24, size: 0x8, addend: 0x0, symName: __ZN4pyo33err9err_state20PyErrStateNormalized3new17hc15f67e937e0e880E, symObjAddr: 0x355C, symBinAddr: 0x11EA4, symSize: 0x164 }
  - { offsetInCU: 0x3C5B, offset: 0x40E46, size: 0x8, addend: 0x0, symName: __ZN4pyo33err9err_state20PyErrStateNormalized4take17he57ec0eb8ab447f9E, symObjAddr: 0x36E8, symBinAddr: 0x12030, symSize: 0x1CC }
  - { offsetInCU: 0x3D1B, offset: 0x40F06, size: 0x8, addend: 0x0, symName: __ZN4pyo33err9err_state20PyErrStateNormalized5ptype17hdc153aa35302c7cbE, symObjAddr: 0x3A78, symBinAddr: 0x123C0, symSize: 0x28 }
  - { offsetInCU: 0x3D84, offset: 0x40F6F, size: 0x8, addend: 0x0, symName: __ZN4pyo34sync8Interned3get17h67247897333e18b9E, symObjAddr: 0x45F0, symBinAddr: 0x1246C, symSize: 0x48 }
  - { offsetInCU: 0x3DBF, offset: 0x40FAA, size: 0x8, addend: 0x0, symName: __ZN4pyo35types10typeobject6PyType22from_borrowed_type_ptr17hc65666fcc1a790c5E, symObjAddr: 0x523C, symBinAddr: 0x124E8, symSize: 0x34 }
  - { offsetInCU: 0x3E14, offset: 0x40FFF, size: 0x8, addend: 0x0, symName: __ZN4pyo35types4list6PyList5empty17h8ad364cb2bb94493E, symObjAddr: 0x5710, symBinAddr: 0x1251C, symSize: 0x30 }
  - { offsetInCU: 0x3E41, offset: 0x4102C, size: 0x8, addend: 0x0, symName: __ZN4pyo35types5tuple18BoundTupleIterator3new17he9ab3b7af7a5213dE, symObjAddr: 0x688C, symBinAddr: 0x12748, symSize: 0x78 }
  - { offsetInCU: 0x3E8F, offset: 0x4107A, size: 0x8, addend: 0x0, symName: __ZN4pyo35types5tuple21BorrowedTupleIterator3new17hab431381dd99ae1bE, symObjAddr: 0x69C8, symBinAddr: 0x127C0, symSize: 0x48 }
  - { offsetInCU: 0x3EDD, offset: 0x410C8, size: 0x8, addend: 0x0, symName: __ZN4pyo35types5tuple21BorrowedTupleIterator8get_item17h7fe9f8e20a65dc72E, symObjAddr: 0x6A10, symBinAddr: 0x12808, symSize: 0x58 }
  - { offsetInCU: 0x3F43, offset: 0x4112E, size: 0x8, addend: 0x0, symName: __ZN4pyo38internal5state11AttachGuard10try_attach17hc9b3ab4ccdeed5e7E, symObjAddr: 0x8248, symBinAddr: 0x1292C, symSize: 0xC0 }
  - { offsetInCU: 0x3F83, offset: 0x4116E, size: 0x8, addend: 0x0, symName: __ZN4pyo38internal5state11AttachGuard19do_attach_unchecked17ha7e62532e09f3041E, symObjAddr: 0x8380, symBinAddr: 0x51764, symSize: 0x3C }
  - { offsetInCU: 0x3FC8, offset: 0x411B3, size: 0x8, addend: 0x0, symName: __ZN4pyo38internal5state11AttachGuard6assume17h332c5ed4ad463173E, symObjAddr: 0x83BC, symBinAddr: 0x12A10, symSize: 0x28 }
  - { offsetInCU: 0x3FF0, offset: 0x411DB, size: 0x8, addend: 0x0, symName: __ZN4pyo38internal5state11AttachGuard6attach17hf2f355b7592d58c0E, symObjAddr: 0x83E4, symBinAddr: 0x12A38, symSize: 0x78 }
  - { offsetInCU: 0x4021, offset: 0x4120C, size: 0x8, addend: 0x0, symName: __ZN4pyo38internal5state11AttachGuard6python17h306e3fb8c502d48dE, symObjAddr: 0x845C, symBinAddr: 0x12AB0, symSize: 0x20 }
  - { offsetInCU: 0x4093, offset: 0x4127E, size: 0x8, addend: 0x0, symName: __ZN4pyo38internal5state13ReferencePool15register_decref17h8e1bd9cb8b8af8a0E, symObjAddr: 0x84AC, symBinAddr: 0x12B00, symSize: 0x128 }
  - { offsetInCU: 0x4118, offset: 0x41303, size: 0x8, addend: 0x0, symName: __ZN4pyo38internal5state13ReferencePool24drop_deferred_references17h8867a2305f5e994cE, symObjAddr: 0x85D4, symBinAddr: 0x12C28, symSize: 0x280 }
  - { offsetInCU: 0x4219, offset: 0x41404, size: 0x8, addend: 0x0, symName: __ZN4pyo38internal5state13ReferencePool3new17h942f8424cb45feefE, symObjAddr: 0x8854, symBinAddr: 0x12EA8, symSize: 0x4C }
  - { offsetInCU: 0x4239, offset: 0x41424, size: 0x8, addend: 0x0, symName: __ZN4pyo38internal5state13SuspendAttach3new17h62f04e8586d119adE, symObjAddr: 0x88A0, symBinAddr: 0x12EF4, symSize: 0x40 }
  - { offsetInCU: 0x426A, offset: 0x41455, size: 0x8, addend: 0x0, symName: __ZN4pyo38internal5state15ForbidAttaching4bail17h835ac0fa64752e6fE, symObjAddr: 0x8988, symBinAddr: 0x517A0, symSize: 0x50 }
  - { offsetInCU: 0xA67, offset: 0x42006, size: 0x8, addend: 0x0, symName: '__ZN77_$LT$pyo3..panic..PanicException$u20$as$u20$pyo3..type_object..PyTypeInfo$GT$15type_object_raw11TYPE_OBJECT17haecf3583b3785cd1E', symObjAddr: 0x3D978, symBinAddr: 0x80FB8, symSize: 0x0 }
  - { offsetInCU: 0xA74, offset: 0x42013, size: 0x8, addend: 0x0, symName: '__ZN77_$LT$pyo3..panic..PanicException$u20$as$u20$pyo3..type_object..PyTypeInfo$GT$15type_object_raw28_$u7b$$u7b$closure$u7d$$u7d$17he115ab8cd32c5c72E', symObjAddr: 0x4D94, symBinAddr: 0x14130, symSize: 0xE0 }
  - { offsetInCU: 0xABF, offset: 0x4205E, size: 0x8, addend: 0x0, symName: '__ZN77_$LT$pyo3..panic..PanicException$u20$as$u20$pyo3..type_object..PyTypeInfo$GT$15type_object_raw17h670a81712fdd63c7E', symObjAddr: 0x4D60, symBinAddr: 0x140FC, symSize: 0x34 }
  - { offsetInCU: 0xD27, offset: 0x422C6, size: 0x8, addend: 0x0, symName: __ZN4pyo311type_object10PyTypeInfo11type_object17h526d04e61d0e37a2E, symObjAddr: 0x2658, symBinAddr: 0x14018, symSize: 0x30 }
  - { offsetInCU: 0xD67, offset: 0x42306, size: 0x8, addend: 0x0, symName: __ZN4pyo311type_object10PyTypeInfo16is_exact_type_of17h3d7c6dc1ead6a6caE, symObjAddr: 0x27D8, symBinAddr: 0x14048, symSize: 0x58 }
  - { offsetInCU: 0x1041, offset: 0x425E0, size: 0x8, addend: 0x0, symName: '__ZN4core3ptr8non_null16NonNull$LT$T$GT$13new_unchecked18precondition_check17h328070a0e6bea175E', symObjAddr: 0xE54, symBinAddr: 0x13B30, symSize: 0x58 }
  - { offsetInCU: 0x1A2E, offset: 0x42FCD, size: 0x8, addend: 0x0, symName: '__ZN90_$LT$core..ptr..non_null..NonNull$LT$T$GT$$u20$as$u20$core..convert..From$LT$$RF$T$GT$$GT$4from17h0be1e26b5d64de96E', symObjAddr: 0x57CC, symBinAddr: 0x142A0, symSize: 0x14 }
  - { offsetInCU: 0x1A65, offset: 0x43004, size: 0x8, addend: 0x0, symName: '__ZN90_$LT$core..ptr..non_null..NonNull$LT$T$GT$$u20$as$u20$core..convert..From$LT$$RF$T$GT$$GT$4from17h182bf6ce4688614fE', symObjAddr: 0x57E0, symBinAddr: 0x142B4, symSize: 0x14 }
  - { offsetInCU: 0x1A9C, offset: 0x4303B, size: 0x8, addend: 0x0, symName: '__ZN90_$LT$core..ptr..non_null..NonNull$LT$T$GT$$u20$as$u20$core..convert..From$LT$$RF$T$GT$$GT$4from17h1d507774cc86a3d2E', symObjAddr: 0x5808, symBinAddr: 0x142C8, symSize: 0x14 }
  - { offsetInCU: 0x1AD3, offset: 0x43072, size: 0x8, addend: 0x0, symName: '__ZN90_$LT$core..ptr..non_null..NonNull$LT$T$GT$$u20$as$u20$core..convert..From$LT$$RF$T$GT$$GT$4from17h40c2655b5a0e3c7bE', symObjAddr: 0x586C, symBinAddr: 0x142DC, symSize: 0x14 }
  - { offsetInCU: 0x1B0A, offset: 0x430A9, size: 0x8, addend: 0x0, symName: '__ZN90_$LT$core..ptr..non_null..NonNull$LT$T$GT$$u20$as$u20$core..convert..From$LT$$RF$T$GT$$GT$4from17h4b6f1ca8fdb5f047E', symObjAddr: 0x58A8, symBinAddr: 0x142F0, symSize: 0x14 }
  - { offsetInCU: 0x1B41, offset: 0x430E0, size: 0x8, addend: 0x0, symName: '__ZN90_$LT$core..ptr..non_null..NonNull$LT$T$GT$$u20$as$u20$core..convert..From$LT$$RF$T$GT$$GT$4from17h64f402799da25e3aE', symObjAddr: 0x58E8, symBinAddr: 0x14304, symSize: 0x14 }
  - { offsetInCU: 0x1B78, offset: 0x43117, size: 0x8, addend: 0x0, symName: '__ZN90_$LT$core..ptr..non_null..NonNull$LT$T$GT$$u20$as$u20$core..convert..From$LT$$RF$T$GT$$GT$4from17h760de48927a4bde2E', symObjAddr: 0x58FC, symBinAddr: 0x14318, symSize: 0x14 }
  - { offsetInCU: 0x1BAF, offset: 0x4314E, size: 0x8, addend: 0x0, symName: '__ZN90_$LT$core..ptr..non_null..NonNull$LT$T$GT$$u20$as$u20$core..convert..From$LT$$RF$T$GT$$GT$4from17h9785bf7099028a1bE', symObjAddr: 0x5924, symBinAddr: 0x1432C, symSize: 0x14 }
  - { offsetInCU: 0x1BE6, offset: 0x43185, size: 0x8, addend: 0x0, symName: '__ZN90_$LT$core..ptr..non_null..NonNull$LT$T$GT$$u20$as$u20$core..convert..From$LT$$RF$T$GT$$GT$4from17ha74ce8e8ebb3ea6aE', symObjAddr: 0x594C, symBinAddr: 0x14340, symSize: 0x14 }
  - { offsetInCU: 0x1C1D, offset: 0x431BC, size: 0x8, addend: 0x0, symName: '__ZN90_$LT$core..ptr..non_null..NonNull$LT$T$GT$$u20$as$u20$core..convert..From$LT$$RF$T$GT$$GT$4from17habd2acf514e64ba6E', symObjAddr: 0x5974, symBinAddr: 0x14354, symSize: 0x14 }
  - { offsetInCU: 0x1C54, offset: 0x431F3, size: 0x8, addend: 0x0, symName: '__ZN90_$LT$core..ptr..non_null..NonNull$LT$T$GT$$u20$as$u20$core..convert..From$LT$$RF$T$GT$$GT$4from17hc26324961e6c31abE', symObjAddr: 0x599C, symBinAddr: 0x14368, symSize: 0x14 }
  - { offsetInCU: 0x1C8B, offset: 0x4322A, size: 0x8, addend: 0x0, symName: '__ZN90_$LT$core..ptr..non_null..NonNull$LT$T$GT$$u20$as$u20$core..convert..From$LT$$RF$T$GT$$GT$4from17hf3bf857b56b0f00cE', symObjAddr: 0x59D8, symBinAddr: 0x1437C, symSize: 0x14 }
  - { offsetInCU: 0x370B, offset: 0x44CAA, size: 0x8, addend: 0x0, symName: '__ZN4core3str21_$LT$impl$u20$str$GT$3len17hda4baba1e5f848beE', symObjAddr: 0x1AC8, symBinAddr: 0x13F24, symSize: 0x1C }
  - { offsetInCU: 0x3767, offset: 0x44D06, size: 0x8, addend: 0x0, symName: __ZN4core9ub_checks23maybe_is_nonoverlapping7runtime17hc459d04d25e8ba6cE, symObjAddr: 0x1E60, symBinAddr: 0x13F40, symSize: 0xD8 }
  - { offsetInCU: 0x3979, offset: 0x44F18, size: 0x8, addend: 0x0, symName: __ZN8pyo3_ffi8pyerrors22PyExceptionClass_Check17hed8f376aa4c26ca8E, symObjAddr: 0x5728, symBinAddr: 0x14210, symSize: 0x60 }
  - { offsetInCU: 0x39A5, offset: 0x44F44, size: 0x8, addend: 0x0, symName: __ZN8pyo3_ffi8pyerrors25PyExceptionInstance_Check17hd4a27201143f4676E, symObjAddr: 0x5788, symBinAddr: 0x14270, symSize: 0x30 }
  - { offsetInCU: 0x42D7, offset: 0x45876, size: 0x8, addend: 0x0, symName: '__ZN3std6thread5local17LocalKey$LT$T$GT$4with17h6a3700a72056e640E', symObjAddr: 0x488, symBinAddr: 0x13570, symSize: 0x4C }
  - { offsetInCU: 0x4342, offset: 0x458E1, size: 0x8, addend: 0x0, symName: '__ZN3std6thread5local17LocalKey$LT$T$GT$4with17ha2d110e8460e952bE', symObjAddr: 0x4D4, symBinAddr: 0x135BC, symSize: 0x48 }
  - { offsetInCU: 0x43FB, offset: 0x4599A, size: 0x8, addend: 0x0, symName: '__ZN3std6thread5local17LocalKey$LT$T$GT$8try_with17h0418e4065bd5c9e6E', symObjAddr: 0x5B4, symBinAddr: 0x13604, symSize: 0xD8 }
  - { offsetInCU: 0x457D, offset: 0x45B1C, size: 0x8, addend: 0x0, symName: '__ZN3std6thread5local17LocalKey$LT$T$GT$8try_with17h044891c0fd06b69aE', symObjAddr: 0x68C, symBinAddr: 0x136DC, symSize: 0xD8 }
  - { offsetInCU: 0x4706, offset: 0x45CA5, size: 0x8, addend: 0x0, symName: '__ZN3std6thread5local17LocalKey$LT$T$GT$8try_with17h35dffe2dfa707982E', symObjAddr: 0x764, symBinAddr: 0x137B4, symSize: 0xD0 }
  - { offsetInCU: 0x4888, offset: 0x45E27, size: 0x8, addend: 0x0, symName: '__ZN3std6thread5local17LocalKey$LT$T$GT$8try_with17h3768872548eefebfE', symObjAddr: 0x834, symBinAddr: 0x13884, symSize: 0xCC }
  - { offsetInCU: 0x4A09, offset: 0x45FA8, size: 0x8, addend: 0x0, symName: '__ZN3std6thread5local17LocalKey$LT$T$GT$8try_with17h4e938b680c95346eE', symObjAddr: 0x900, symBinAddr: 0x13950, symSize: 0xCC }
  - { offsetInCU: 0x4B8A, offset: 0x46129, size: 0x8, addend: 0x0, symName: '__ZN3std6thread5local17LocalKey$LT$T$GT$8try_with17hbc4a48e39687798aE', symObjAddr: 0xAA4, symBinAddr: 0x13A1C, symSize: 0xD8 }
  - { offsetInCU: 0x4CD8, offset: 0x46277, size: 0x8, addend: 0x0, symName: '__ZN4core3ptr8non_null16NonNull$LT$T$GT$13new_unchecked17h44b64b3265918dedE', symObjAddr: 0xE18, symBinAddr: 0x13AF4, symSize: 0x3C }
  - { offsetInCU: 0x4D39, offset: 0x462D8, size: 0x8, addend: 0x0, symName: '__ZN4core3ptr8non_null16NonNull$LT$T$GT$20offset_from_unsigned17h2e1853ca056cf8dfE', symObjAddr: 0xF28, symBinAddr: 0x13B88, symSize: 0x7C }
  - { offsetInCU: 0x4E6A, offset: 0x46409, size: 0x8, addend: 0x0, symName: '__ZN4core3ptr8non_null16NonNull$LT$T$GT$20offset_from_unsigned17h6d4202a3b7cbd972E', symObjAddr: 0x1020, symBinAddr: 0x13C04, symSize: 0x7C }
  - { offsetInCU: 0x4F74, offset: 0x46513, size: 0x8, addend: 0x0, symName: '__ZN4core3ptr8non_null16NonNull$LT$T$GT$20offset_from_unsigned17h9d1f8e169ed1adbeE', symObjAddr: 0x1118, symBinAddr: 0x13C80, symSize: 0x7C }
  - { offsetInCU: 0x507E, offset: 0x4661D, size: 0x8, addend: 0x0, symName: '__ZN4core3ptr8non_null16NonNull$LT$T$GT$20offset_from_unsigned17hc6e1d69574b26112E', symObjAddr: 0x1210, symBinAddr: 0x13CFC, symSize: 0x7C }
  - { offsetInCU: 0x516D, offset: 0x4670C, size: 0x8, addend: 0x0, symName: '__ZN4core3ptr8non_null16NonNull$LT$T$GT$3new17h614e5b7e5b9b11f3E', symObjAddr: 0x128C, symBinAddr: 0x13D78, symSize: 0x58 }
  - { offsetInCU: 0x522C, offset: 0x467CB, size: 0x8, addend: 0x0, symName: '__ZN4core3ptr8non_null16NonNull$LT$T$GT$4cast17h0c38bb893aa91744E', symObjAddr: 0x13A8, symBinAddr: 0x13DD0, symSize: 0x14 }
  - { offsetInCU: 0x527B, offset: 0x4681A, size: 0x8, addend: 0x0, symName: '__ZN4core3ptr8non_null16NonNull$LT$T$GT$4cast17h0d83f562191b0b81E', symObjAddr: 0x13BC, symBinAddr: 0x13DE4, symSize: 0x14 }
  - { offsetInCU: 0x52FE, offset: 0x4689D, size: 0x8, addend: 0x0, symName: '__ZN4core3ptr8non_null16NonNull$LT$T$GT$4cast17h2760cfde30ddecb6E', symObjAddr: 0x145C, symBinAddr: 0x13DF8, symSize: 0x14 }
  - { offsetInCU: 0x5381, offset: 0x46920, size: 0x8, addend: 0x0, symName: '__ZN4core3ptr8non_null16NonNull$LT$T$GT$4cast17h675049a95ab0d850E', symObjAddr: 0x1510, symBinAddr: 0x13E0C, symSize: 0x14 }
  - { offsetInCU: 0x53B6, offset: 0x46955, size: 0x8, addend: 0x0, symName: '__ZN4core3ptr8non_null16NonNull$LT$T$GT$4cast17h6c2168166795d2dbE', symObjAddr: 0x1538, symBinAddr: 0x13E20, symSize: 0x14 }
  - { offsetInCU: 0x53EB, offset: 0x4698A, size: 0x8, addend: 0x0, symName: '__ZN4core3ptr8non_null16NonNull$LT$T$GT$4cast17h8896054bdccfc711E', symObjAddr: 0x159C, symBinAddr: 0x13E34, symSize: 0x14 }
  - { offsetInCU: 0x542D, offset: 0x469CC, size: 0x8, addend: 0x0, symName: '__ZN4core3ptr8non_null16NonNull$LT$T$GT$4cast17h89900b02214caf83E', symObjAddr: 0x15B0, symBinAddr: 0x13E48, symSize: 0x14 }
  - { offsetInCU: 0x546F, offset: 0x46A0E, size: 0x8, addend: 0x0, symName: '__ZN4core3ptr8non_null16NonNull$LT$T$GT$4cast17h91e5346941ba8d78E', symObjAddr: 0x15C4, symBinAddr: 0x13E5C, symSize: 0x14 }
  - { offsetInCU: 0x54B1, offset: 0x46A50, size: 0x8, addend: 0x0, symName: '__ZN4core3ptr8non_null16NonNull$LT$T$GT$4cast17h9448fba2f4737beaE', symObjAddr: 0x15EC, symBinAddr: 0x13E70, symSize: 0x14 }
  - { offsetInCU: 0x54F3, offset: 0x46A92, size: 0x8, addend: 0x0, symName: '__ZN4core3ptr8non_null16NonNull$LT$T$GT$4cast17ha518b36d17e094a4E', symObjAddr: 0x1614, symBinAddr: 0x13E84, symSize: 0x14 }
  - { offsetInCU: 0x5528, offset: 0x46AC7, size: 0x8, addend: 0x0, symName: '__ZN4core3ptr8non_null16NonNull$LT$T$GT$4cast17ha80112390e41aeb8E', symObjAddr: 0x1628, symBinAddr: 0x13E98, symSize: 0x14 }
  - { offsetInCU: 0x555D, offset: 0x46AFC, size: 0x8, addend: 0x0, symName: '__ZN4core3ptr8non_null16NonNull$LT$T$GT$4cast17haaf29aa4dcd9f714E', symObjAddr: 0x163C, symBinAddr: 0x13EAC, symSize: 0x14 }
  - { offsetInCU: 0x559F, offset: 0x46B3E, size: 0x8, addend: 0x0, symName: '__ZN4core3ptr8non_null16NonNull$LT$T$GT$4cast17hb7463fef98e38468E', symObjAddr: 0x1678, symBinAddr: 0x13EC0, symSize: 0x14 }
  - { offsetInCU: 0x55D4, offset: 0x46B73, size: 0x8, addend: 0x0, symName: '__ZN4core3ptr8non_null16NonNull$LT$T$GT$4cast17hb89058c8706b2efbE', symObjAddr: 0x168C, symBinAddr: 0x13ED4, symSize: 0x14 }
  - { offsetInCU: 0x5616, offset: 0x46BB5, size: 0x8, addend: 0x0, symName: '__ZN4core3ptr8non_null16NonNull$LT$T$GT$4cast17hc246260111121a5aE', symObjAddr: 0x16A0, symBinAddr: 0x13EE8, symSize: 0x14 }
  - { offsetInCU: 0x564B, offset: 0x46BEA, size: 0x8, addend: 0x0, symName: '__ZN4core3ptr8non_null16NonNull$LT$T$GT$4cast17hcede5f2fd23dc237E', symObjAddr: 0x16B4, symBinAddr: 0x13EFC, symSize: 0x14 }
  - { offsetInCU: 0x5680, offset: 0x46C1F, size: 0x8, addend: 0x0, symName: '__ZN4core3ptr8non_null16NonNull$LT$T$GT$4cast17hfb81a44d6d6d58ecE', symObjAddr: 0x1718, symBinAddr: 0x13F10, symSize: 0x14 }
  - { offsetInCU: 0x572F, offset: 0x46CCE, size: 0x8, addend: 0x0, symName: __ZN4pyo35panic14PanicException18from_panic_payload17h68d4203b5492015dE, symObjAddr: 0x311C, symBinAddr: 0x517F0, symSize: 0x144 }
  - { offsetInCU: 0x578E, offset: 0x46D2D, size: 0x8, addend: 0x0, symName: __ZN4pyo35panic14PanicException7new_err17h27145cda1fb042c8E, symObjAddr: 0x3260, symBinAddr: 0x140A0, symSize: 0x34 }
  - { offsetInCU: 0x57CD, offset: 0x46D6C, size: 0x8, addend: 0x0, symName: __ZN4pyo35panic14PanicException7new_err17h45d3272991aa2fe7E, symObjAddr: 0x3294, symBinAddr: 0x140D4, symSize: 0x28 }
  - { offsetInCU: 0x130F, offset: 0x481A2, size: 0x8, addend: 0x0, symName: __ZN4core3mem4drop17h85d4371262b1b475E, symObjAddr: 0xB6C, symBinAddr: 0x1471C, symSize: 0x2C }
  - { offsetInCU: 0x1342, offset: 0x481D5, size: 0x8, addend: 0x0, symName: __ZN4core3mem4drop17hdbe0eaeb8d7a90c4E, symObjAddr: 0xBC4, symBinAddr: 0x14748, symSize: 0x2C }
  - { offsetInCU: 0x13A8, offset: 0x4823B, size: 0x8, addend: 0x0, symName: __ZN4core3mem4take17ha70549eea7642135E, symObjAddr: 0xC98, symBinAddr: 0x14774, symSize: 0x54 }
  - { offsetInCU: 0x1405, offset: 0x48298, size: 0x8, addend: 0x0, symName: __ZN4core3mem6forget17h5dba7d9256a7ae83E, symObjAddr: 0xCEC, symBinAddr: 0x147C8, symSize: 0x14 }
  - { offsetInCU: 0x1471, offset: 0x48304, size: 0x8, addend: 0x0, symName: '__ZN50_$LT$T$u20$as$u20$core..convert..Into$LT$U$GT$$GT$4into17h8f07a79cae749195E', symObjAddr: 0x78BC, symBinAddr: 0x15F70, symSize: 0x30 }
  - { offsetInCU: 0x1B6F, offset: 0x48A02, size: 0x8, addend: 0x0, symName: '__ZN4pyo33err5PyErr3new28_$u7b$$u7b$closure$u7d$$u7d$17h295d575f58867e6aE', symObjAddr: 0x40BC, symBinAddr: 0x15338, symSize: 0xC0 }
  - { offsetInCU: 0x1BC7, offset: 0x48A5A, size: 0x8, addend: 0x0, symName: '__ZN4pyo33err5PyErr3new28_$u7b$$u7b$closure$u7d$$u7d$17h33bd4ac7d3503e75E', symObjAddr: 0x422C, symBinAddr: 0x153F8, symSize: 0xD4 }
  - { offsetInCU: 0x1C20, offset: 0x48AB3, size: 0x8, addend: 0x0, symName: '__ZN4pyo33err5PyErr3new28_$u7b$$u7b$closure$u7d$$u7d$17h6de9538cfd8e0617E', symObjAddr: 0x49C0, symBinAddr: 0x154CC, symSize: 0xC8 }
  - { offsetInCU: 0x1C78, offset: 0x48B0B, size: 0x8, addend: 0x0, symName: '__ZN4pyo33err5PyErr3new28_$u7b$$u7b$closure$u7d$$u7d$17h807e7bad877457e5E', symObjAddr: 0x4C00, symBinAddr: 0x15594, symSize: 0xD4 }
  - { offsetInCU: 0x1CD1, offset: 0x48B64, size: 0x8, addend: 0x0, symName: '__ZN4pyo33err5PyErr3new28_$u7b$$u7b$closure$u7d$$u7d$17he107855a9f5c035fE', symObjAddr: 0x58E4, symBinAddr: 0x15668, symSize: 0xD4 }
  - { offsetInCU: 0x1D30, offset: 0x48BC3, size: 0x8, addend: 0x0, symName: '__ZN4pyo33err5PyErr22print_panic_and_unwind28_$u7b$$u7b$closure$u7d$$u7d$17h350d7cda227848d1E', symObjAddr: 0x25E4, symBinAddr: 0x14F34, symSize: 0x7C }
  - { offsetInCU: 0x1D69, offset: 0x48BFC, size: 0x8, addend: 0x0, symName: '__ZN4pyo33err5PyErr22print_panic_and_unwind28_$u7b$$u7b$closure$u7d$$u7d$17ha875ac808f685cd2E', symObjAddr: 0x2660, symBinAddr: 0x14FB0, symSize: 0x64 }
  - { offsetInCU: 0x1DB3, offset: 0x48C46, size: 0x8, addend: 0x0, symName: '__ZN4pyo33err5PyErr9set_cause28_$u7b$$u7b$closure$u7d$$u7d$17h28c8d44a95d445b1E', symObjAddr: 0x6430, symBinAddr: 0x15D34, symSize: 0x38 }
  - { offsetInCU: 0x1E64, offset: 0x48CF7, size: 0x8, addend: 0x0, symName: '__ZN4pyo33err10cast_error106_$LT$impl$u20$core..convert..From$LT$pyo3..err..cast_error..CastError$GT$$u20$for$u20$pyo3..err..PyErr$GT$4from17h86414f1f08b2124fE', symObjAddr: 0x1108, symBinAddr: 0x147DC, symSize: 0xE0 }
  - { offsetInCU: 0x1EB3, offset: 0x48D46, size: 0x8, addend: 0x0, symName: '__ZN4pyo33err10cast_error110_$LT$impl$u20$core..convert..From$LT$pyo3..err..cast_error..CastIntoError$GT$$u20$for$u20$pyo3..err..PyErr$GT$4from17h6cb87f421f3bf3f5E', symObjAddr: 0x11E8, symBinAddr: 0x148BC, symSize: 0xF8 }
  - { offsetInCU: 0x1F45, offset: 0x48DD8, size: 0x8, addend: 0x0, symName: '__ZN47_$LT$T$u20$as$u20$pyo3..err..PyErrArguments$GT$9arguments17hde16e1725f08c8ceE', symObjAddr: 0x6C8, symBinAddr: 0x145E8, symSize: 0x11C }
  - { offsetInCU: 0x2B63, offset: 0x499F6, size: 0x8, addend: 0x0, symName: __ZN4pyo33err15failed_to_fetch17h39f9aed94f0de346E, symObjAddr: 0x14BC, symBinAddr: 0x51934, symSize: 0x18 }
  - { offsetInCU: 0x2B81, offset: 0x49A14, size: 0x8, addend: 0x0, symName: __ZN4pyo33err17error_on_minusone17hd0e7352ef290e890E, symObjAddr: 0x1664, symBinAddr: 0x149B4, symSize: 0xC8 }
  - { offsetInCU: 0x2BD8, offset: 0x49A6B, size: 0x8, addend: 0x0, symName: '__ZN53_$LT$pyo3..err..PyErr$u20$as$u20$core..fmt..Debug$GT$3fmt17ha9708c27daa42a96E', symObjAddr: 0x7964, symBinAddr: 0x15FA0, symSize: 0x40 }
  - { offsetInCU: 0x2C1A, offset: 0x49AAD, size: 0x8, addend: 0x0, symName: '__ZN53_$LT$pyo3..err..PyErr$u20$as$u20$core..fmt..Debug$GT$3fmt28_$u7b$$u7b$closure$u7d$$u7d$17hc4e3b49e9acf867dE', symObjAddr: 0x79A4, symBinAddr: 0x15FE0, symSize: 0x178 }
  - { offsetInCU: 0x2C7E, offset: 0x49B11, size: 0x8, addend: 0x0, symName: '__ZN53_$LT$pyo3..err..PyErr$u20$as$u20$core..fmt..Debug$GT$3fmt28_$u7b$$u7b$closure$u7d$$u7d$28_$u7b$$u7b$closure$u7d$$u7d$17hcd2c1dd2a2eb09d3E', symObjAddr: 0x7B1C, symBinAddr: 0x16158, symSize: 0x1A0 }
  - { offsetInCU: 0x2D74, offset: 0x49C07, size: 0x8, addend: 0x0, symName: '__ZN55_$LT$pyo3..err..PyErr$u20$as$u20$core..fmt..Display$GT$3fmt17hac502a0145ac2ea4E', symObjAddr: 0x7CBC, symBinAddr: 0x162F8, symSize: 0x34 }
  - { offsetInCU: 0x2DB6, offset: 0x49C49, size: 0x8, addend: 0x0, symName: '__ZN55_$LT$pyo3..err..PyErr$u20$as$u20$core..fmt..Display$GT$3fmt28_$u7b$$u7b$closure$u7d$$u7d$17h92e31ebffa23a1a9E', symObjAddr: 0x7CF0, symBinAddr: 0x1632C, symSize: 0x3B0 }
  - { offsetInCU: 0x2F1F, offset: 0x49DB2, size: 0x8, addend: 0x0, symName: '__ZN55_$LT$pyo3..err..PyErr$u20$as$u20$core..fmt..Display$GT$3fmt28_$u7b$$u7b$closure$u7d$$u7d$28_$u7b$$u7b$closure$u7d$$u7d$17h06af5bdd577f4926E', symObjAddr: 0x80A0, symBinAddr: 0x166DC, symSize: 0x1C }
  - { offsetInCU: 0x361E, offset: 0x4A4B1, size: 0x8, addend: 0x0, symName: __ZN4pyo35impl_10pyfunction20create_py_c_function17h939bb48af5b857f8E, symObjAddr: 0x6B10, symBinAddr: 0x15DC8, symSize: 0x1A8 }
  - { offsetInCU: 0x3A72, offset: 0x4A905, size: 0x8, addend: 0x0, symName: '__ZN66_$LT$std..thread..id..ThreadId$u20$as$u20$core..cmp..PartialEq$GT$2eq17hd79bd74cb85041a4E', symObjAddr: 0x8344, symBinAddr: 0x166F8, symSize: 0x2C }
  - { offsetInCU: 0x3AF6, offset: 0x4A989, size: 0x8, addend: 0x0, symName: '__ZN3std3sys4sync5mutex7pthread5Mutex3get28_$u7b$$u7b$closure$u7d$$u7d$17he0329fea1837c549E', symObjAddr: 0x310, symBinAddr: 0x14390, symSize: 0xF4 }
  - { offsetInCU: 0x3EFE, offset: 0x4AD91, size: 0x8, addend: 0x0, symName: '__ZN3std4sync6poison5mutex19MutexGuard$LT$T$GT$3new28_$u7b$$u7b$closure$u7d$$u7d$17h369291e8aff44de4E', symObjAddr: 0x598, symBinAddr: 0x145B8, symSize: 0x18 }
  - { offsetInCU: 0x3F46, offset: 0x4ADD9, size: 0x8, addend: 0x0, symName: '__ZN3std4sync6poison5mutex19MutexGuard$LT$T$GT$3new28_$u7b$$u7b$closure$u7d$$u7d$17h7336e5b40c8f6e3eE', symObjAddr: 0x5B0, symBinAddr: 0x145D0, symSize: 0x18 }
  - { offsetInCU: 0x3F95, offset: 0x4AE28, size: 0x8, addend: 0x0, symName: '__ZN87_$LT$std..sync..poison..mutex..MutexGuard$LT$T$GT$$u20$as$u20$core..ops..drop..Drop$GT$4drop17h3d9ea7101784ae47E', symObjAddr: 0x8408, symBinAddr: 0x16724, symSize: 0x58 }
  - { offsetInCU: 0x4013, offset: 0x4AEA6, size: 0x8, addend: 0x0, symName: '__ZN87_$LT$std..sync..poison..mutex..MutexGuard$LT$T$GT$$u20$as$u20$core..ops..drop..Drop$GT$4drop17hc266b4a69f2f0195E', symObjAddr: 0x8460, symBinAddr: 0x1677C, symSize: 0x58 }
  - { offsetInCU: 0x4097, offset: 0x4AF2A, size: 0x8, addend: 0x0, symName: '__ZN89_$LT$std..sync..poison..mutex..MutexGuard$LT$T$GT$$u20$as$u20$core..ops..deref..Deref$GT$5deref17h126a8a3e004872b0E', symObjAddr: 0x8510, symBinAddr: 0x167D4, symSize: 0x1C }
  - { offsetInCU: 0x40E3, offset: 0x4AF76, size: 0x8, addend: 0x0, symName: '__ZN89_$LT$std..sync..poison..mutex..MutexGuard$LT$T$GT$$u20$as$u20$core..ops..deref..Deref$GT$5deref17h930c0680a4ceff24E', symObjAddr: 0x8548, symBinAddr: 0x167F0, symSize: 0x1C }
  - { offsetInCU: 0x4135, offset: 0x4AFC8, size: 0x8, addend: 0x0, symName: '__ZN92_$LT$std..sync..poison..mutex..MutexGuard$LT$T$GT$$u20$as$u20$core..ops..deref..DerefMut$GT$9deref_mut17h45843e50fca51b25E', symObjAddr: 0x89DC, symBinAddr: 0x16838, symSize: 0x1C }
  - { offsetInCU: 0x4181, offset: 0x4B014, size: 0x8, addend: 0x0, symName: '__ZN92_$LT$std..sync..poison..mutex..MutexGuard$LT$T$GT$$u20$as$u20$core..ops..deref..DerefMut$GT$9deref_mut17hbf6f1439cedda883E', symObjAddr: 0x89F8, symBinAddr: 0x16854, symSize: 0x1C }
  - { offsetInCU: 0x4385, offset: 0x4B218, size: 0x8, addend: 0x0, symName: __ZN8pyo3_ffi12moduleobject14PyModule_Check17h806e9924294e8ab3E, symObjAddr: 0x85B0, symBinAddr: 0x1680C, symSize: 0x2C }
  - { offsetInCU: 0x4595, offset: 0x4B428, size: 0x8, addend: 0x0, symName: '__ZN3std4sync6poison5mutex14Mutex$LT$T$GT$3new17h0f890b3f08a6a38bE', symObjAddr: 0x404, symBinAddr: 0x14484, symSize: 0x60 }
  - { offsetInCU: 0x4671, offset: 0x4B504, size: 0x8, addend: 0x0, symName: '__ZN3std4sync6poison5mutex14Mutex$LT$T$GT$3new17h53d6ad3dded9ff4aE', symObjAddr: 0x464, symBinAddr: 0x144E4, symSize: 0x44 }
  - { offsetInCU: 0x476D, offset: 0x4B600, size: 0x8, addend: 0x0, symName: '__ZN3std4sync6poison5mutex14Mutex$LT$T$GT$4lock17ha0b03468a6f9454aE', symObjAddr: 0x4F0, symBinAddr: 0x14528, symSize: 0x48 }
  - { offsetInCU: 0x483F, offset: 0x4B6D2, size: 0x8, addend: 0x0, symName: '__ZN3std4sync6poison5mutex14Mutex$LT$T$GT$4lock17haa7fb322ad5887fdE', symObjAddr: 0x538, symBinAddr: 0x14570, symSize: 0x48 }
  - { offsetInCU: 0x4940, offset: 0x4B7D3, size: 0x8, addend: 0x0, symName: __ZN4core3ffi5c_str4CStr6as_ptr17h44c5e0ce5aeaa5acE, symObjAddr: 0xA40, symBinAddr: 0x14704, symSize: 0x18 }
  - { offsetInCU: 0x4A9F, offset: 0x4B932, size: 0x8, addend: 0x0, symName: __ZN4pyo33err5PyErr10from_state17hddd3c0c3159a4670E, symObjAddr: 0x172C, symBinAddr: 0x14A7C, symSize: 0x30 }
  - { offsetInCU: 0x4AC3, offset: 0x4B956, size: 0x8, addend: 0x0, symName: __ZN4pyo33err5PyErr10from_value17h5c2d1657fb673cceE, symObjAddr: 0x175C, symBinAddr: 0x14AAC, symSize: 0x1C0 }
  - { offsetInCU: 0x4B60, offset: 0x4B9F3, size: 0x8, addend: 0x0, symName: __ZN4pyo33err5PyErr10into_value17h37fb3a284b972ce8E, symObjAddr: 0x191C, symBinAddr: 0x14C6C, symSize: 0x128 }
  - { offsetInCU: 0x4BE8, offset: 0x4BA7B, size: 0x8, addend: 0x0, symName: __ZN4pyo33err5PyErr10normalized17h13da8a6c3e3a26cfE, symObjAddr: 0x1A44, symBinAddr: 0x14D94, symSize: 0x24 }
  - { offsetInCU: 0x4C33, offset: 0x4BAC6, size: 0x8, addend: 0x0, symName: __ZN4pyo33err5PyErr11is_instance17h0f78dc95a386bdcaE, symObjAddr: 0x1A68, symBinAddr: 0x14DB8, symSize: 0xA0 }
  - { offsetInCU: 0x4C96, offset: 0x4BB29, size: 0x8, addend: 0x0, symName: __ZN4pyo33err5PyErr14is_instance_of17h528e62783464a84dE, symObjAddr: 0x1DAC, symBinAddr: 0x14E58, symSize: 0x84 }
  - { offsetInCU: 0x4CDD, offset: 0x4BB70, size: 0x8, addend: 0x0, symName: __ZN4pyo33err5PyErr16write_unraisable17h519544a4d7109098E, symObjAddr: 0x2358, symBinAddr: 0x14EDC, symSize: 0x58 }
  - { offsetInCU: 0x4D38, offset: 0x4BBCB, size: 0x8, addend: 0x0, symName: __ZN4pyo33err5PyErr22print_panic_and_unwind17h4e7ec2fc4dc74ee1E, symObjAddr: 0x23B0, symBinAddr: 0x5194C, symSize: 0x234 }
  - { offsetInCU: 0x4DBA, offset: 0x4BC4D, size: 0x8, addend: 0x0, symName: __ZN4pyo33err5PyErr3new17h76d62f08fd9d3d24E, symObjAddr: 0x31E4, symBinAddr: 0x15014, symSize: 0x9C }
  - { offsetInCU: 0x4E18, offset: 0x4BCAB, size: 0x8, addend: 0x0, symName: __ZN4pyo33err5PyErr3new17h933dbd305d58a9f7E, symObjAddr: 0x348C, symBinAddr: 0x150B0, symSize: 0xA8 }
  - { offsetInCU: 0x4E76, offset: 0x4BD09, size: 0x8, addend: 0x0, symName: __ZN4pyo33err5PyErr3new17h95121b8665982749E, symObjAddr: 0x3534, symBinAddr: 0x15158, symSize: 0xA0 }
  - { offsetInCU: 0x4ED5, offset: 0x4BD68, size: 0x8, addend: 0x0, symName: __ZN4pyo33err5PyErr3new17h981e34644c8a2e00E, symObjAddr: 0x35D4, symBinAddr: 0x151F8, symSize: 0xA0 }
  - { offsetInCU: 0x4F34, offset: 0x4BDC7, size: 0x8, addend: 0x0, symName: __ZN4pyo33err5PyErr3new17hf65f9fd1b87b81d6E, symObjAddr: 0x3C68, symBinAddr: 0x15298, symSize: 0xA0 }
  - { offsetInCU: 0x4F86, offset: 0x4BE19, size: 0x8, addend: 0x0, symName: __ZN4pyo33err5PyErr4take17h1fb4ce6c95dd3395E, symObjAddr: 0x5C0C, symBinAddr: 0x1573C, symSize: 0x188 }
  - { offsetInCU: 0x5008, offset: 0x4BE9B, size: 0x8, addend: 0x0, symName: __ZN4pyo33err5PyErr5cause17h2f9b0229fa1a664eE, symObjAddr: 0x5E08, symBinAddr: 0x158C4, symSize: 0x44 }
  - { offsetInCU: 0x508F, offset: 0x4BF22, size: 0x8, addend: 0x0, symName: __ZN4pyo33err5PyErr5fetch17h231ff1d19e70f706E, symObjAddr: 0x5E4C, symBinAddr: 0x15908, symSize: 0x3C }
  - { offsetInCU: 0x50CB, offset: 0x4BF5E, size: 0x8, addend: 0x0, symName: __ZN4pyo33err5PyErr5value17h85c47a5e20e1fe2bE, symObjAddr: 0x5EC4, symBinAddr: 0x15944, symSize: 0x2C }
  - { offsetInCU: 0x5106, offset: 0x4BF99, size: 0x8, addend: 0x0, symName: __ZN4pyo33err5PyErr7restore17h4589fe8bc9a4153bE, symObjAddr: 0x601C, symBinAddr: 0x15970, symSize: 0x38 }
  - { offsetInCU: 0x5145, offset: 0x4BFD8, size: 0x8, addend: 0x0, symName: __ZN4pyo33err5PyErr8get_type17hc62c2134170af66cE, symObjAddr: 0x6054, symBinAddr: 0x159A8, symSize: 0x28 }
  - { offsetInCU: 0x518D, offset: 0x4C020, size: 0x8, addend: 0x0, symName: __ZN4pyo33err5PyErr8new_type17h4bd947899b295058E, symObjAddr: 0x607C, symBinAddr: 0x159D0, symSize: 0x200 }
  - { offsetInCU: 0x52C4, offset: 0x4C157, size: 0x8, addend: 0x0, symName: __ZN4pyo33err5PyErr9set_cause17hac511e0b9316c875E, symObjAddr: 0x62CC, symBinAddr: 0x15BD0, symSize: 0x164 }
  - { offsetInCU: 0x5353, offset: 0x4C1E6, size: 0x8, addend: 0x0, symName: __ZN4pyo33err5PyErr9traceback17hce7bccf94a1b3fc2E, symObjAddr: 0x6468, symBinAddr: 0x15D6C, symSize: 0x28 }
  - { offsetInCU: 0x53AB, offset: 0x4C23E, size: 0x8, addend: 0x0, symName: __ZN4pyo35impl_10pyfunction13PyFunctionDef20create_py_c_function17hd2556251ee2c749bE, symObjAddr: 0x6AA0, symBinAddr: 0x15D94, symSize: 0x34 }
  - { offsetInCU: 0xBD6, offset: 0x4D104, size: 0x8, addend: 0x0, symName: __ZN4core4sync6atomic11atomic_load17hfaca05a500a1eb1eE, symObjAddr: 0x1C7C, symBinAddr: 0x171F0, symSize: 0xF8 }
  - { offsetInCU: 0xC1C, offset: 0x4D14A, size: 0x8, addend: 0x0, symName: __ZN4core4sync6atomic11atomic_load17hfacdde05ac2e92c1E, symObjAddr: 0x1D74, symBinAddr: 0x172E8, symSize: 0xF8 }
  - { offsetInCU: 0xC62, offset: 0x4D190, size: 0x8, addend: 0x0, symName: __ZN4core4sync6atomic11atomic_load17hff2ffa1b24df75caE, symObjAddr: 0x1E6C, symBinAddr: 0x173E0, symSize: 0xF8 }
  - { offsetInCU: 0xCA8, offset: 0x4D1D6, size: 0x8, addend: 0x0, symName: __ZN4core4sync6atomic23atomic_compare_exchange17hb82aa9dd1a48f5c2E, symObjAddr: 0x29E4, symBinAddr: 0x174D8, symSize: 0x4B4 }
  - { offsetInCU: 0x1886, offset: 0x4DDB4, size: 0x8, addend: 0x0, symName: '__ZN4core3cmp5impls54_$LT$impl$u20$core..cmp..PartialEq$u20$for$u20$i32$GT$2ne17hcb2dd027809636bfE', symObjAddr: 0xBFC, symBinAddr: 0x16CE8, symSize: 0x2C }
  - { offsetInCU: 0x18C9, offset: 0x4DDF7, size: 0x8, addend: 0x0, symName: '__ZN4core3cmp5impls69_$LT$impl$u20$core..cmp..PartialEq$LT$$RF$B$GT$$u20$for$u20$$RF$A$GT$2eq17h9a1db2bec813e37aE', symObjAddr: 0xD40, symBinAddr: 0x16D14, symSize: 0x44 }
  - { offsetInCU: 0x192F, offset: 0x4DE5D, size: 0x8, addend: 0x0, symName: '__ZN102_$LT$core..iter..adapters..zip..Zip$LT$A$C$B$GT$$u20$as$u20$core..iter..traits..iterator..Iterator$GT$4next17h2dc24fe61dfd858aE', symObjAddr: 0x30C, symBinAddr: 0x16870, symSize: 0x24 }
  - { offsetInCU: 0x196D, offset: 0x4DE9B, size: 0x8, addend: 0x0, symName: '__ZN102_$LT$core..iter..adapters..zip..Zip$LT$A$C$B$GT$$u20$as$u20$core..iter..traits..iterator..Iterator$GT$4next17hfbfbc9bb540bfcbeE', symObjAddr: 0x354, symBinAddr: 0x16894, symSize: 0x24 }
  - { offsetInCU: 0x19AB, offset: 0x4DED9, size: 0x8, addend: 0x0, symName: '__ZN102_$LT$core..iter..adapters..zip..Zip$LT$A$C$B$GT$$u20$as$u20$core..iter..traits..iterator..Iterator$GT$9size_hint17h0e04ce72679983eaE', symObjAddr: 0x378, symBinAddr: 0x168B8, symSize: 0x24 }
  - { offsetInCU: 0x19E9, offset: 0x4DF17, size: 0x8, addend: 0x0, symName: '__ZN102_$LT$core..iter..adapters..zip..Zip$LT$A$C$B$GT$$u20$as$u20$core..iter..traits..iterator..Iterator$GT$9size_hint17h89afb99fd7d3ec72E', symObjAddr: 0x39C, symBinAddr: 0x168DC, symSize: 0x24 }
  - { offsetInCU: 0x1A2D, offset: 0x4DF5B, size: 0x8, addend: 0x0, symName: '__ZN111_$LT$core..iter..adapters..zip..Zip$LT$A$C$B$GT$$u20$as$u20$core..iter..adapters..zip..ZipImpl$LT$A$C$B$GT$$GT$3new17h290e04b447f7b690E', symObjAddr: 0x4A8, symBinAddr: 0x16900, symSize: 0x3C }
  - { offsetInCU: 0x1A79, offset: 0x4DFA7, size: 0x8, addend: 0x0, symName: '__ZN111_$LT$core..iter..adapters..zip..Zip$LT$A$C$B$GT$$u20$as$u20$core..iter..adapters..zip..ZipImpl$LT$A$C$B$GT$$GT$4next17h83180a9b0e9fa78dE', symObjAddr: 0x7EC, symBinAddr: 0x16AA8, symSize: 0xE0 }
  - { offsetInCU: 0x1BDA, offset: 0x4E108, size: 0x8, addend: 0x0, symName: '__ZN111_$LT$core..iter..adapters..zip..Zip$LT$A$C$B$GT$$u20$as$u20$core..iter..adapters..zip..ZipImpl$LT$A$C$B$GT$$GT$9size_hint17hd9f94c44a928a874E', symObjAddr: 0xA08, symBinAddr: 0x16BBC, symSize: 0x12C }
  - { offsetInCU: 0x1D2D, offset: 0x4E25B, size: 0x8, addend: 0x0, symName: '__ZN111_$LT$core..iter..adapters..zip..Zip$LT$A$C$B$GT$$u20$as$u20$core..iter..adapters..zip..ZipImpl$LT$A$C$B$GT$$GT$3new17hd03a6a98a745544bE', symObjAddr: 0x5A0, symBinAddr: 0x1693C, symSize: 0xBC }
  - { offsetInCU: 0x1DC0, offset: 0x4E2EE, size: 0x8, addend: 0x0, symName: '__ZN111_$LT$core..iter..adapters..zip..Zip$LT$A$C$B$GT$$u20$as$u20$core..iter..adapters..zip..ZipImpl$LT$A$C$B$GT$$GT$4next17h82f56f3402634f6dE', symObjAddr: 0x73C, symBinAddr: 0x169F8, symSize: 0xB0 }
  - { offsetInCU: 0x1E16, offset: 0x4E344, size: 0x8, addend: 0x0, symName: '__ZN111_$LT$core..iter..adapters..zip..Zip$LT$A$C$B$GT$$u20$as$u20$core..iter..adapters..zip..ZipImpl$LT$A$C$B$GT$$GT$9size_hint17h61cfc8cb91d73181E', symObjAddr: 0x9A0, symBinAddr: 0x16B88, symSize: 0x34 }
  - { offsetInCU: 0x1FF2, offset: 0x4E520, size: 0x8, addend: 0x0, symName: __ZN4core4iter6traits8iterator8Iterator10filter_map17h6e03d8ffb7315e3fE, symObjAddr: 0x130C, symBinAddr: 0x16D58, symSize: 0x30 }
  - { offsetInCU: 0x2060, offset: 0x4E58E, size: 0x8, addend: 0x0, symName: __ZN4core4iter6traits8iterator8Iterator10filter_map17h7ae08b9ca9c0393aE, symObjAddr: 0x133C, symBinAddr: 0x16D88, symSize: 0x30 }
  - { offsetInCU: 0x20CE, offset: 0x4E5FC, size: 0x8, addend: 0x0, symName: __ZN4core4iter6traits8iterator8Iterator8find_map17h6b5313b5035bd77aE, symObjAddr: 0x14B4, symBinAddr: 0x16DB8, symSize: 0x8C }
  - { offsetInCU: 0x2156, offset: 0x4E684, size: 0x8, addend: 0x0, symName: __ZN4core4iter6traits8iterator8Iterator8find_map17h9eacca2cb0692e01E, symObjAddr: 0x1540, symBinAddr: 0x16E44, symSize: 0x8C }
  - { offsetInCU: 0x21DE, offset: 0x4E70C, size: 0x8, addend: 0x0, symName: __ZN4core4iter6traits8iterator8Iterator8try_fold17h06af48c6a3842269E, symObjAddr: 0x1608, symBinAddr: 0x16ED0, symSize: 0x190 }
  - { offsetInCU: 0x2294, offset: 0x4E7C2, size: 0x8, addend: 0x0, symName: __ZN4core4iter6traits8iterator8Iterator8try_fold17hef2e46d277e4ab47E, symObjAddr: 0x1798, symBinAddr: 0x17060, symSize: 0x190 }
  - { offsetInCU: 0x27BF, offset: 0x4ECED, size: 0x8, addend: 0x0, symName: '__ZN9once_cell3imp17OnceCell$LT$T$GT$10initialize28_$u7b$$u7b$closure$u7d$$u7d$17h10a8c4be09d8b351E', symObjAddr: 0x4CF4, symBinAddr: 0x17C58, symSize: 0x1A8 }
  - { offsetInCU: 0x285D, offset: 0x4ED8B, size: 0x8, addend: 0x0, symName: '__ZN9once_cell3imp17OnceCell$LT$T$GT$10initialize28_$u7b$$u7b$closure$u7d$$u7d$17h750f76f0129f420eE', symObjAddr: 0x5334, symBinAddr: 0x17E00, symSize: 0x180 }
  - { offsetInCU: 0x300B, offset: 0x4F539, size: 0x8, addend: 0x0, symName: __ZN8pyo3_ffi13unicodeobject15PyUnicode_Check17haceba0ef0643da56E, symObjAddr: 0x434C, symBinAddr: 0x17C28, symSize: 0x30 }
  - { offsetInCU: 0x336D, offset: 0x4F89B, size: 0x8, addend: 0x0, symName: '__ZN63_$LT$alloc..alloc..Global$u20$as$u20$core..alloc..Allocator$GT$10deallocate17h9fdeb779a4df2710E', symObjAddr: 0x3CDC, symBinAddr: 0x17BD0, symSize: 0x58 }
  - { offsetInCU: 0x33FA, offset: 0x4F928, size: 0x8, addend: 0x0, symName: __ZN5alloc5alloc15exchange_malloc17he44d38a2c41e7612E, symObjAddr: 0x3A24, symBinAddr: 0x1798C, symSize: 0xAC }
  - { offsetInCU: 0x395F, offset: 0x4FE8D, size: 0x8, addend: 0x0, symName: __ZN5alloc5alloc6Global10alloc_impl17h2fe63b88acf63098E, symObjAddr: 0x3AD0, symBinAddr: 0x17A38, symSize: 0x198 }
  - { offsetInCU: 0x3D4B, offset: 0x50279, size: 0x8, addend: 0x0, symName: '__ZN9once_cell3imp17OnceCell$LT$T$GT$10initialize17h3a46dd8e23531bb7E', symObjAddr: 0x4540, symBinAddr: 0x51B80, symSize: 0xAC }
  - { offsetInCU: 0x3E32, offset: 0x50360, size: 0x8, addend: 0x0, symName: '__ZN9once_cell3imp17OnceCell$LT$T$GT$10initialize17hdc934d8571f609e1E', symObjAddr: 0x4934, symBinAddr: 0x51C2C, symSize: 0xA8 }
  - { offsetInCU: 0x3EEF, offset: 0x5041D, size: 0x8, addend: 0x0, symName: '__ZN9once_cell3imp17OnceCell$LT$T$GT$13get_unchecked17h3a972256daaabe74E', symObjAddr: 0x5C5C, symBinAddr: 0x17F80, symSize: 0xC0 }
  - { offsetInCU: 0x3F44, offset: 0x50472, size: 0x8, addend: 0x0, symName: '__ZN9once_cell3imp17OnceCell$LT$T$GT$13get_unchecked17he700f87676d63952E', symObjAddr: 0x5F5C, symBinAddr: 0x18040, symSize: 0xC0 }
  - { offsetInCU: 0x3F8C, offset: 0x504BA, size: 0x8, addend: 0x0, symName: '__ZN9once_cell3imp17OnceCell$LT$T$GT$14is_initialized17h03e33ff77db231bbE', symObjAddr: 0x601C, symBinAddr: 0x18100, symSize: 0x30 }
  - { offsetInCU: 0x3FB7, offset: 0x504E5, size: 0x8, addend: 0x0, symName: '__ZN9once_cell3imp17OnceCell$LT$T$GT$14is_initialized17hff1aa31e29ad1082E', symObjAddr: 0x610C, symBinAddr: 0x18130, symSize: 0x30 }
  - { offsetInCU: 0x18B2, offset: 0x51EAE, size: 0x8, addend: 0x0, symName: '__ZN53_$LT$core..fmt..Error$u20$as$u20$core..fmt..Debug$GT$3fmt17hb004e7b8635ecccbE', symObjAddr: 0x2110, symBinAddr: 0x18AAC, symSize: 0x40 }
  - { offsetInCU: 0x19DB, offset: 0x51FD7, size: 0x8, addend: 0x0, symName: '__ZN91_$LT$core..slice..iter..Iter$LT$T$GT$$u20$as$u20$core..iter..traits..iterator..Iterator$GT$24__iterator_get_unchecked17h859addaad0da75bbE', symObjAddr: 0x2C04, symBinAddr: 0x18B0C, symSize: 0x28 }
  - { offsetInCU: 0x1A36, offset: 0x52032, size: 0x8, addend: 0x0, symName: '__ZN91_$LT$core..slice..iter..Iter$LT$T$GT$$u20$as$u20$core..iter..traits..iterator..Iterator$GT$24__iterator_get_unchecked17hd558ba8f9c832313E', symObjAddr: 0x2C4C, symBinAddr: 0x18B34, symSize: 0x20 }
  - { offsetInCU: 0x1A91, offset: 0x5208D, size: 0x8, addend: 0x0, symName: '__ZN91_$LT$core..slice..iter..Iter$LT$T$GT$$u20$as$u20$core..iter..traits..iterator..Iterator$GT$4next17h627f97c97bd98d41E', symObjAddr: 0x301C, symBinAddr: 0x18B54, symSize: 0x84 }
  - { offsetInCU: 0x1B47, offset: 0x52143, size: 0x8, addend: 0x0, symName: '__ZN91_$LT$core..slice..iter..Iter$LT$T$GT$$u20$as$u20$core..iter..traits..iterator..Iterator$GT$4next17h8259c9af958ee201E', symObjAddr: 0x30A0, symBinAddr: 0x18BD8, symSize: 0x84 }
  - { offsetInCU: 0x1BFD, offset: 0x521F9, size: 0x8, addend: 0x0, symName: '__ZN91_$LT$core..slice..iter..Iter$LT$T$GT$$u20$as$u20$core..iter..traits..iterator..Iterator$GT$9size_hint17h05ea922f17626ed6E', symObjAddr: 0x32B0, symBinAddr: 0x18C5C, symSize: 0x60 }
  - { offsetInCU: 0x1C6C, offset: 0x52268, size: 0x8, addend: 0x0, symName: '__ZN91_$LT$core..slice..iter..Iter$LT$T$GT$$u20$as$u20$core..iter..traits..iterator..Iterator$GT$9size_hint17h09d7a4fb93b0e7e4E', symObjAddr: 0x3310, symBinAddr: 0x18CBC, symSize: 0x60 }
  - { offsetInCU: 0x1CDB, offset: 0x522D7, size: 0x8, addend: 0x0, symName: '__ZN91_$LT$core..slice..iter..Iter$LT$T$GT$$u20$as$u20$core..iter..traits..iterator..Iterator$GT$9size_hint17h43433ac5ce045568E', symObjAddr: 0x3370, symBinAddr: 0x18D1C, symSize: 0x60 }
  - { offsetInCU: 0x1D81, offset: 0x5237D, size: 0x8, addend: 0x0, symName: __ZN4core5slice3raw14from_raw_parts17h0988f24304c66762E, symObjAddr: 0x12B4, symBinAddr: 0x188A0, symSize: 0x58 }
  - { offsetInCU: 0x1DC9, offset: 0x523C5, size: 0x8, addend: 0x0, symName: __ZN4core5slice3raw14from_raw_parts18precondition_check17h5227179b680b54cbE, symObjAddr: 0x13BC, symBinAddr: 0x188F8, symSize: 0x10C }
  - { offsetInCU: 0x1EEC, offset: 0x524E8, size: 0x8, addend: 0x0, symName: __ZN4core3str8converts19from_utf8_unchecked17h03842aab470bdcc8E, symObjAddr: 0xDA8, symBinAddr: 0x18714, symSize: 0x18 }
  - { offsetInCU: 0x1FA5, offset: 0x525A1, size: 0x8, addend: 0x0, symName: __ZN4core4iter8adapters3zip27TrustedRandomAccessNoCoerce4size17hc49679a7d822c650E, symObjAddr: 0x125C, symBinAddr: 0x18848, symSize: 0x2C }
  - { offsetInCU: 0x1FDC, offset: 0x525D8, size: 0x8, addend: 0x0, symName: __ZN4core4iter8adapters3zip27TrustedRandomAccessNoCoerce4size17he22deb0025d5fd10E, symObjAddr: 0x1288, symBinAddr: 0x18874, symSize: 0x2C }
  - { offsetInCU: 0x20C6, offset: 0x526C2, size: 0x8, addend: 0x0, symName: __ZN4core4iter6traits8iterator8Iterator3zip17h3df442099b07a7a6E, symObjAddr: 0xEA8, symBinAddr: 0x1872C, symSize: 0xC8 }
  - { offsetInCU: 0x213C, offset: 0x52738, size: 0x8, addend: 0x0, symName: __ZN4core4iter6traits8iterator8Iterator4take17h649e6ae7eb7815cdE, symObjAddr: 0x1038, symBinAddr: 0x187F4, symSize: 0x2C }
  - { offsetInCU: 0x2197, offset: 0x52793, size: 0x8, addend: 0x0, symName: __ZN4core4iter6traits8iterator8Iterator9enumerate17h248d40afb01bfc2eE, symObjAddr: 0x11DC, symBinAddr: 0x18820, symSize: 0x28 }
  - { offsetInCU: 0x24B4, offset: 0x52AB0, size: 0x8, addend: 0x0, symName: '__ZN3std4sync9once_lock17OnceLock$LT$T$GT$11get_or_init28_$u7b$$u7b$closure$u7d$$u7d$17h3f3d3d501fe87a5aE', symObjAddr: 0x1BC, symBinAddr: 0x18230, symSize: 0x3C }
  - { offsetInCU: 0x24FB, offset: 0x52AF7, size: 0x8, addend: 0x0, symName: '__ZN3std4sync9once_lock17OnceLock$LT$T$GT$10initialize28_$u7b$$u7b$closure$u7d$$u7d$17ha441fa5c7a00e291E', symObjAddr: 0xEC, symBinAddr: 0x18160, symSize: 0xA4 }
  - { offsetInCU: 0x2983, offset: 0x52F7F, size: 0x8, addend: 0x0, symName: '__ZN71_$LT$pyo3..impl_..panic..PanicTrap$u20$as$u20$core..ops..drop..Drop$GT$4drop17hb1ce39ea11a2f5feE', symObjAddr: 0x21BC, symBinAddr: 0x18AEC, symSize: 0x20 }
  - { offsetInCU: 0x2F87, offset: 0x53583, size: 0x8, addend: 0x0, symName: '__ZN3std4sync9once_lock17OnceLock$LT$T$GT$10initialize17hb63eb0e795d25bd4E', symObjAddr: 0x9C, symBinAddr: 0x51CD4, symSize: 0x50 }
  - { offsetInCU: 0x30C1, offset: 0x536BD, size: 0x8, addend: 0x0, symName: '__ZN3std4sync9once_lock17OnceLock$LT$T$GT$11get_or_init17hc2cc7e276ce56bd8E', symObjAddr: 0x190, symBinAddr: 0x18204, symSize: 0x2C }
  - { offsetInCU: 0x31F0, offset: 0x537EC, size: 0x8, addend: 0x0, symName: '__ZN3std4sync9once_lock17OnceLock$LT$T$GT$15get_or_try_init17h9c2ab262b2e27a89E', symObjAddr: 0x1F8, symBinAddr: 0x1826C, symSize: 0xD8 }
  - { offsetInCU: 0x3523, offset: 0x53B1F, size: 0x8, addend: 0x0, symName: '__ZN3std4sync9once_lock17OnceLock$LT$T$GT$3get17h8cd0d7a37633f069E', symObjAddr: 0x2D0, symBinAddr: 0x18344, symSize: 0x64 }
  - { offsetInCU: 0x377B, offset: 0x53D77, size: 0x8, addend: 0x0, symName: __ZN4core3fmt9Arguments23as_statically_known_str17h0b2c6c257bd660bcE, symObjAddr: 0x5E4, symBinAddr: 0x183A8, symSize: 0x104 }
  - { offsetInCU: 0x38BF, offset: 0x53EBB, size: 0x8, addend: 0x0, symName: __ZN4core3fmt9Arguments3new17h2874623d3fa1b1b1E, symObjAddr: 0x720, symBinAddr: 0x184AC, symSize: 0x1C }
  - { offsetInCU: 0x3925, offset: 0x53F21, size: 0x8, addend: 0x0, symName: __ZN4core3fmt9Arguments3new17h34d929de6c2181c7E, symObjAddr: 0x758, symBinAddr: 0x184C8, symSize: 0x1C }
  - { offsetInCU: 0x398B, offset: 0x53F87, size: 0x8, addend: 0x0, symName: __ZN4core3fmt9Arguments3new17h3fd1794d1666a171E, symObjAddr: 0x790, symBinAddr: 0x184E4, symSize: 0x1C }
  - { offsetInCU: 0x39BD, offset: 0x53FB9, size: 0x8, addend: 0x0, symName: __ZN4core3fmt9Arguments3new17h4036d9ad9405e80fE, symObjAddr: 0x7AC, symBinAddr: 0x18500, symSize: 0x1C }
  - { offsetInCU: 0x3A16, offset: 0x54012, size: 0x8, addend: 0x0, symName: __ZN4core3fmt9Arguments3new17h44bd0b7d9d215887E, symObjAddr: 0x7E4, symBinAddr: 0x1851C, symSize: 0x1C }
  - { offsetInCU: 0x3AFE, offset: 0x540FA, size: 0x8, addend: 0x0, symName: __ZN4core3fmt9Arguments3new17h98d882d90d37c9b1E, symObjAddr: 0x8A8, symBinAddr: 0x18538, symSize: 0x1C }
  - { offsetInCU: 0x3B98, offset: 0x54194, size: 0x8, addend: 0x0, symName: __ZN4core3fmt9Arguments3new17hbe95fbba1a9eabd6E, symObjAddr: 0x8FC, symBinAddr: 0x18554, symSize: 0x1C }
  - { offsetInCU: 0x3BE4, offset: 0x541E0, size: 0x8, addend: 0x0, symName: __ZN4core3fmt9Arguments3new17hbfa150d124fdb999E, symObjAddr: 0x918, symBinAddr: 0x18570, symSize: 0x1C }
  - { offsetInCU: 0x3C4A, offset: 0x54246, size: 0x8, addend: 0x0, symName: __ZN4core3fmt9Arguments3new17hc4f9370717f7d24bE, symObjAddr: 0x950, symBinAddr: 0x1858C, symSize: 0x1C }
  - { offsetInCU: 0x3C96, offset: 0x54292, size: 0x8, addend: 0x0, symName: __ZN4core3fmt9Arguments3new17hc5793bd10ec1f496E, symObjAddr: 0x96C, symBinAddr: 0x185A8, symSize: 0x1C }
  - { offsetInCU: 0x3CFC, offset: 0x542F8, size: 0x8, addend: 0x0, symName: __ZN4core3fmt9Arguments3new17hcb97e14c257874bdE, symObjAddr: 0x988, symBinAddr: 0x185C4, symSize: 0x1C }
  - { offsetInCU: 0x3D48, offset: 0x54344, size: 0x8, addend: 0x0, symName: __ZN4core3fmt9Arguments3new17hd1eff26a5a3fd948E, symObjAddr: 0x9A4, symBinAddr: 0x185E0, symSize: 0x1C }
  - { offsetInCU: 0x3D94, offset: 0x54390, size: 0x8, addend: 0x0, symName: __ZN4core3fmt9Arguments3new17hdc3be7b6b3d4674fE, symObjAddr: 0x9C0, symBinAddr: 0x185FC, symSize: 0x1C }
  - { offsetInCU: 0x3DE0, offset: 0x543DC, size: 0x8, addend: 0x0, symName: __ZN4core3fmt9Arguments3new17hde2023c8c4f622f9E, symObjAddr: 0x9DC, symBinAddr: 0x18618, symSize: 0x1C }
  - { offsetInCU: 0x3E2C, offset: 0x54428, size: 0x8, addend: 0x0, symName: __ZN4core3fmt9Arguments3new17hed4f3f936dac0d84E, symObjAddr: 0x9F8, symBinAddr: 0x18634, symSize: 0x1C }
  - { offsetInCU: 0x3E78, offset: 0x54474, size: 0x8, addend: 0x0, symName: __ZN4core3fmt9Arguments8from_str17h296f0d0d490843f0E, symObjAddr: 0xA30, symBinAddr: 0x18650, symSize: 0x20 }
  - { offsetInCU: 0x3E9B, offset: 0x54497, size: 0x8, addend: 0x0, symName: __ZN4core3fmt9Formatter9write_fmt17hb29591c56d87f123E, symObjAddr: 0xA50, symBinAddr: 0x18670, symSize: 0xA4 }
  - { offsetInCU: 0x405E, offset: 0x5465A, size: 0x8, addend: 0x0, symName: '__ZN4core5slice4iter13Iter$LT$T$GT$3new17hb93d7019647fe206E', symObjAddr: 0x1684, symBinAddr: 0x18A04, symSize: 0x50 }
  - { offsetInCU: 0x420E, offset: 0x5480A, size: 0x8, addend: 0x0, symName: '__ZN4core5slice4iter13Iter$LT$T$GT$3new17hea838d7a1846b6ecE', symObjAddr: 0x16D4, symBinAddr: 0x18A54, symSize: 0x58 }
  - { offsetInCU: 0x450B, offset: 0x54B07, size: 0x8, addend: 0x0, symName: '__ZN9once_cell4sync17OnceCell$LT$T$GT$11get_or_init28_$u7b$$u7b$closure$u7d$$u7d$17h69cbdffe2c9c015cE', symObjAddr: 0x3734, symBinAddr: 0x18E08, symSize: 0x38 }
  - { offsetInCU: 0x454D, offset: 0x54B49, size: 0x8, addend: 0x0, symName: '__ZN9once_cell4sync17OnceCell$LT$T$GT$11get_or_init28_$u7b$$u7b$closure$u7d$$u7d$17hafe7386ae2ad6c7eE', symObjAddr: 0x376C, symBinAddr: 0x18E40, symSize: 0x34 }
  - { offsetInCU: 0x477F, offset: 0x54D7B, size: 0x8, addend: 0x0, symName: '__ZN9once_cell4sync17OnceCell$LT$T$GT$11get_or_init17h7dcc7e9ca77458feE', symObjAddr: 0x36A8, symBinAddr: 0x18D7C, symSize: 0x44 }
  - { offsetInCU: 0x47DE, offset: 0x54DDA, size: 0x8, addend: 0x0, symName: '__ZN9once_cell4sync17OnceCell$LT$T$GT$11get_or_init17hba5d6ee6fad7f720E', symObjAddr: 0x36EC, symBinAddr: 0x18DC0, symSize: 0x48 }
  - { offsetInCU: 0x4823, offset: 0x54E1F, size: 0x8, addend: 0x0, symName: '__ZN9once_cell4sync17OnceCell$LT$T$GT$13get_unchecked17h1df66a4c9683b3deE', symObjAddr: 0x37A0, symBinAddr: 0x18E74, symSize: 0x24 }
  - { offsetInCU: 0x484F, offset: 0x54E4B, size: 0x8, addend: 0x0, symName: '__ZN9once_cell4sync17OnceCell$LT$T$GT$13get_unchecked17hcef3584796b12b30E', symObjAddr: 0x3854, symBinAddr: 0x18E98, symSize: 0x24 }
  - { offsetInCU: 0x487B, offset: 0x54E77, size: 0x8, addend: 0x0, symName: '__ZN9once_cell4sync17OnceCell$LT$T$GT$15get_or_try_init17h7ffe68ab2387f803E', symObjAddr: 0x3C10, symBinAddr: 0x18EBC, symSize: 0x14C }
  - { offsetInCU: 0x48DF, offset: 0x54EDB, size: 0x8, addend: 0x0, symName: '__ZN9once_cell4sync17OnceCell$LT$T$GT$15get_or_try_init17h95b8054bbe395180E', symObjAddr: 0x3D5C, symBinAddr: 0x19008, symSize: 0x150 }
  - { offsetInCU: 0x4943, offset: 0x54F3F, size: 0x8, addend: 0x0, symName: '__ZN9once_cell4sync17OnceCell$LT$T$GT$3get17h4fa024348289b0acE', symObjAddr: 0x461C, symBinAddr: 0x19158, symSize: 0x4C }
  - { offsetInCU: 0x496F, offset: 0x54F6B, size: 0x8, addend: 0x0, symName: '__ZN9once_cell4sync17OnceCell$LT$T$GT$3get17h7ba73dcb3bbd6a74E', symObjAddr: 0x4668, symBinAddr: 0x191A4, symSize: 0x4C }
  - { offsetInCU: 0x51, offset: 0x550A2, size: 0x8, addend: 0x0, symName: '__ZN127_$LT$pyo3..instance..Bound$LT$pyo3..types..traceback..PyTraceback$GT$$u20$as$u20$pyo3..types..traceback..PyTracebackMethods$GT$6format8INTERNED17h1793ad075e23c2fbE', symObjAddr: 0x9B80, symBinAddr: 0x804E0, symSize: 0x0 }
  - { offsetInCU: 0x6B, offset: 0x550BC, size: 0x8, addend: 0x0, symName: '__ZN127_$LT$pyo3..instance..Bound$LT$pyo3..types..traceback..PyTraceback$GT$$u20$as$u20$pyo3..types..traceback..PyTracebackMethods$GT$6format8INTERNED17hb5ea32702a682be9E', symObjAddr: 0x9BA0, symBinAddr: 0x80500, symSize: 0x0 }
  - { offsetInCU: 0x85, offset: 0x550D6, size: 0x8, addend: 0x0, symName: '__ZN127_$LT$pyo3..instance..Bound$LT$pyo3..types..traceback..PyTraceback$GT$$u20$as$u20$pyo3..types..traceback..PyTracebackMethods$GT$6format8INTERNED17hd5a789ed02128f15E', symObjAddr: 0x9BC0, symBinAddr: 0x80520, symSize: 0x0 }
  - { offsetInCU: 0x105, offset: 0x55156, size: 0x8, addend: 0x0, symName: '__ZN4pyo35types5tuple74_$LT$impl$u20$pyo3..conversion..IntoPyObject$u20$for$u20$$LP$T0$C$$RP$$GT$13into_pyobject17h1ca0179a84e67966E', symObjAddr: 0x7AA8, symBinAddr: 0x1B930, symSize: 0xD8 }
  - { offsetInCU: 0x679, offset: 0x556CA, size: 0x8, addend: 0x0, symName: '__ZN4pyo311conversions3std6string82_$LT$impl$u20$pyo3..conversion..IntoPyObject$u20$for$u20$alloc..string..String$GT$13into_pyobject17h68886815b9eceaadE', symObjAddr: 0x71AC, symBinAddr: 0x1B8BC, symSize: 0x74 }
  - { offsetInCU: 0x8FA, offset: 0x5594B, size: 0x8, addend: 0x0, symName: '__ZN47_$LT$T$u20$as$u20$pyo3..err..PyErrArguments$GT$9arguments17h176df7e8656b1d78E', symObjAddr: 0xA38, symBinAddr: 0x19568, symSize: 0x4C }
  - { offsetInCU: 0x968, offset: 0x559B9, size: 0x8, addend: 0x0, symName: '__ZN47_$LT$T$u20$as$u20$pyo3..err..PyErrArguments$GT$9arguments17h4176f861ab96af93E', symObjAddr: 0xA84, symBinAddr: 0x195B4, symSize: 0x134 }
  - { offsetInCU: 0xB1B, offset: 0x55B6C, size: 0x8, addend: 0x0, symName: __ZN4pyo310conversion15IntoPyObjectExt11into_py_any17h4944fb43323d64f3E, symObjAddr: 0x6FFC, symBinAddr: 0x1B7FC, symSize: 0x60 }
  - { offsetInCU: 0xB88, offset: 0x55BD9, size: 0x8, addend: 0x0, symName: __ZN4pyo310conversion15IntoPyObjectExt17into_bound_py_any17h937fc2caf7da1a61E, symObjAddr: 0x705C, symBinAddr: 0x1B85C, symSize: 0x60 }
  - { offsetInCU: 0x1074, offset: 0x560C5, size: 0x8, addend: 0x0, symName: '__ZN4core3ptr101drop_in_place$LT$core..result..Result$LT$alloc..borrow..Cow$LT$str$GT$$C$$RF$pyo3..err..PyErr$GT$$GT$17hf47f6fea8471c779E', symObjAddr: 0x2E6C, symBinAddr: 0x19FB0, symSize: 0x4C }
  - { offsetInCU: 0x10A3, offset: 0x560F4, size: 0x8, addend: 0x0, symName: '__ZN4core3ptr101drop_in_place$LT$std..io..error..ErrorData$LT$alloc..boxed..Box$LT$std..io..error..Custom$GT$$GT$$GT$17h3bde0ac6cd31ca14E', symObjAddr: 0x2EDC, symBinAddr: 0x19FFC, symSize: 0x48 }
  - { offsetInCU: 0x10D2, offset: 0x56123, size: 0x8, addend: 0x0, symName: '__ZN4core3ptr101drop_in_place$LT$std..sys..sync..once_box..OnceBox$LT$std..sys..pal..unix..sync..mutex..Mutex$GT$$GT$17h83f0385f33b6c1f6E', symObjAddr: 0x2F24, symBinAddr: 0x1A044, symSize: 0x24 }
  - { offsetInCU: 0x1101, offset: 0x56152, size: 0x8, addend: 0x0, symName: '__ZN4core3ptr104drop_in_place$LT$core..option..Option$LT$pyo3..instance..Py$LT$pyo3..types..string..PyString$GT$$GT$$GT$17h169f001584adfadcE', symObjAddr: 0x3024, symBinAddr: 0x1A068, symSize: 0x44 }
  - { offsetInCU: 0x1130, offset: 0x56181, size: 0x8, addend: 0x0, symName: '__ZN4core3ptr106drop_in_place$LT$alloc..vec..Vec$LT$core..ptr..non_null..NonNull$LT$pyo3_ffi..object..PyObject$GT$$GT$$GT$17h87273a355d531576E', symObjAddr: 0x3068, symBinAddr: 0x1A0AC, symSize: 0x5C }
  - { offsetInCU: 0x115F, offset: 0x561B0, size: 0x8, addend: 0x0, symName: '__ZN4core3ptr106drop_in_place$LT$core..option..Option$LT$pyo3..instance..Py$LT$pyo3..types..typeobject..PyType$GT$$GT$$GT$17ha1ea88564dce964cE', symObjAddr: 0x3108, symBinAddr: 0x1A108, symSize: 0x44 }
  - { offsetInCU: 0x118E, offset: 0x561DF, size: 0x8, addend: 0x0, symName: '__ZN4core3ptr107drop_in_place$LT$core..option..Option$LT$pyo3..instance..Bound$LT$pyo3..types..string..PyString$GT$$GT$$GT$17h8e9f0f8e6538692aE', symObjAddr: 0x3170, symBinAddr: 0x1A14C, symSize: 0x44 }
  - { offsetInCU: 0x11BD, offset: 0x5620E, size: 0x8, addend: 0x0, symName: '__ZN4core3ptr107drop_in_place$LT$core..pin..Pin$LT$alloc..boxed..Box$LT$std..sys..pal..unix..sync..mutex..Mutex$GT$$GT$$GT$17hf608ff4f7f87023dE', symObjAddr: 0x31B4, symBinAddr: 0x1A190, symSize: 0x24 }
  - { offsetInCU: 0x11EC, offset: 0x5623D, size: 0x8, addend: 0x0, symName: '__ZN4core3ptr108drop_in_place$LT$core..option..Option$LT$pyo3..instance..Py$LT$pyo3..exceptions..PyBaseException$GT$$GT$$GT$17h486ccdf621ca0e89E', symObjAddr: 0x31D8, symBinAddr: 0x1A1B4, symSize: 0x44 }
  - { offsetInCU: 0x121B, offset: 0x5626C, size: 0x8, addend: 0x0, symName: '__ZN4core3ptr109drop_in_place$LT$core..iter..adapters..enumerate..Enumerate$LT$pyo3..types..tuple..BoundTupleIterator$GT$$GT$17h295de2e43518dbc9E', symObjAddr: 0x3284, symBinAddr: 0x1A1F8, symSize: 0x24 }
  - { offsetInCU: 0x124A, offset: 0x5629B, size: 0x8, addend: 0x0, symName: '__ZN4core3ptr109drop_in_place$LT$core..option..Option$LT$pyo3..instance..Bound$LT$pyo3..types..typeobject..PyType$GT$$GT$$GT$17haf5b718a57b7870eE', symObjAddr: 0x32A8, symBinAddr: 0x1A21C, symSize: 0x44 }
  - { offsetInCU: 0x1279, offset: 0x562CA, size: 0x8, addend: 0x0, symName: '__ZN4core3ptr110drop_in_place$LT$core..option..Option$LT$pyo3..instance..Py$LT$pyo3..types..traceback..PyTraceback$GT$$GT$$GT$17he0486879d65aab51E', symObjAddr: 0x3310, symBinAddr: 0x1A260, symSize: 0x44 }
  - { offsetInCU: 0x12A8, offset: 0x562F9, size: 0x8, addend: 0x0, symName: '__ZN4core3ptr111drop_in_place$LT$core..option..Option$LT$pyo3..instance..Bound$LT$pyo3..exceptions..PyBaseException$GT$$GT$$GT$17h82865035c90e7729E', symObjAddr: 0x339C, symBinAddr: 0x1A2A4, symSize: 0x44 }
  - { offsetInCU: 0x12D7, offset: 0x56328, size: 0x8, addend: 0x0, symName: '__ZN4core3ptr113drop_in_place$LT$alloc..raw_vec..RawVec$LT$core..ptr..non_null..NonNull$LT$pyo3_ffi..object..PyObject$GT$$GT$$GT$17h14a45aa5fdcd5d72E', symObjAddr: 0x34E4, symBinAddr: 0x1A2E8, symSize: 0x24 }
  - { offsetInCU: 0x1306, offset: 0x56357, size: 0x8, addend: 0x0, symName: '__ZN4core3ptr113drop_in_place$LT$core..option..Option$LT$pyo3..instance..Bound$LT$pyo3..types..traceback..PyTraceback$GT$$GT$$GT$17hc336538f334a5b59E', symObjAddr: 0x3508, symBinAddr: 0x1A30C, symSize: 0x44 }
  - { offsetInCU: 0x1335, offset: 0x56386, size: 0x8, addend: 0x0, symName: '__ZN4core3ptr113drop_in_place$LT$std..sync..poison..mutex..Mutex$LT$core..option..Option$LT$std..thread..id..ThreadId$GT$$GT$$GT$17h331c39c1f28ad8feE', symObjAddr: 0x3570, symBinAddr: 0x1A350, symSize: 0x24 }
  - { offsetInCU: 0x1364, offset: 0x563B5, size: 0x8, addend: 0x0, symName: '__ZN4core3ptr116drop_in_place$LT$core..cell..UnsafeCell$LT$core..option..Option$LT$pyo3..err..err_state..PyErrStateInner$GT$$GT$$GT$17h13d401bb619ff18cE', symObjAddr: 0x35DC, symBinAddr: 0x1A374, symSize: 0x24 }
  - { offsetInCU: 0x1393, offset: 0x563E4, size: 0x8, addend: 0x0, symName: '__ZN4core3ptr118drop_in_place$LT$alloc..boxed..Box$LT$dyn$u20$core..error..Error$u2b$core..marker..Sync$u2b$core..marker..Send$GT$$GT$17ha246d35e80fd870fE', symObjAddr: 0x372C, symBinAddr: 0x1A398, symSize: 0x80 }
  - { offsetInCU: 0x13C2, offset: 0x56413, size: 0x8, addend: 0x0, symName: '__ZN4core3ptr118drop_in_place$LT$core..array..iter..IntoIter$LT$pyo3..instance..Bound$LT$pyo3..types..any..PyAny$GT$$C$1_usize$GT$$GT$17h0640867ef4ec176dE', symObjAddr: 0x37AC, symBinAddr: 0x1A418, symSize: 0x24 }
  - { offsetInCU: 0x13F1, offset: 0x56442, size: 0x8, addend: 0x0, symName: '__ZN4core3ptr118drop_in_place$LT$std..sync..poison..mutex..MutexGuard$LT$core..option..Option$LT$std..thread..id..ThreadId$GT$$GT$$GT$17h19c979386f11cc37E', symObjAddr: 0x3860, symBinAddr: 0x1A43C, symSize: 0x24 }
  - { offsetInCU: 0x1420, offset: 0x56471, size: 0x8, addend: 0x0, symName: '__ZN4core3ptr122drop_in_place$LT$alloc..vec..into_iter..IntoIter$LT$core..ptr..non_null..NonNull$LT$pyo3_ffi..object..PyObject$GT$$GT$$GT$17h4faac03722ef187fE', symObjAddr: 0x3980, symBinAddr: 0x1A460, symSize: 0x24 }
  - { offsetInCU: 0x144F, offset: 0x564A0, size: 0x8, addend: 0x0, symName: '__ZN4core3ptr126drop_in_place$LT$core..result..Result$LT$pyo3..instance..Bound$LT$pyo3..types..string..PyString$GT$$C$pyo3..err..PyErr$GT$$GT$17h17394852a83b3710E', symObjAddr: 0x3A28, symBinAddr: 0x1A484, symSize: 0x50 }
  - { offsetInCU: 0x147E, offset: 0x564CF, size: 0x8, addend: 0x0, symName: '__ZN4core3ptr132drop_in_place$LT$pyo3..err..PyErr..new$LT$pyo3..exceptions..PyTypeError$C$alloc..string..String$GT$..$u7b$$u7b$closure$u7d$$u7d$$GT$17haae3f647bf689088E', symObjAddr: 0x3B1C, symBinAddr: 0x1A4D4, symSize: 0x24 }
  - { offsetInCU: 0x14AD, offset: 0x564FE, size: 0x8, addend: 0x0, symName: '__ZN4core3ptr135drop_in_place$LT$core..option..Option$LT$core..pin..Pin$LT$alloc..boxed..Box$LT$std..sys..pal..unix..sync..mutex..Mutex$GT$$GT$$GT$$GT$17h8ed09d19d28c2c2aE', symObjAddr: 0x3BD0, symBinAddr: 0x1A4F8, symSize: 0x44 }
  - { offsetInCU: 0x14DC, offset: 0x5652D, size: 0x8, addend: 0x0, symName: '__ZN4core3ptr135drop_in_place$LT$pyo3..err..PyErr..new$LT$pyo3..exceptions..PyRuntimeError$C$alloc..string..String$GT$..$u7b$$u7b$closure$u7d$$u7d$$GT$17h43a912673634b5deE', symObjAddr: 0x3C14, symBinAddr: 0x1A53C, symSize: 0x24 }
  - { offsetInCU: 0x150B, offset: 0x5655C, size: 0x8, addend: 0x0, symName: '__ZN4core3ptr141drop_in_place$LT$pyo3..err..PyErr..new$LT$pyo3..panic..PanicException$C$$LP$alloc..string..String$C$$RP$$GT$..$u7b$$u7b$closure$u7d$$u7d$$GT$17hbd9f103c3e47ee98E', symObjAddr: 0x3EE0, symBinAddr: 0x1A560, symSize: 0x24 }
  - { offsetInCU: 0x153A, offset: 0x5658B, size: 0x8, addend: 0x0, symName: '__ZN4core3ptr144drop_in_place$LT$core..result..Result$LT$$RF$pyo3..instance..Bound$LT$pyo3..types..tuple..PyTuple$GT$$C$pyo3..err..cast_error..CastError$GT$$GT$17h351d951a912ad839E', symObjAddr: 0x3F6C, symBinAddr: 0x1A584, symSize: 0x44 }
  - { offsetInCU: 0x1569, offset: 0x565BA, size: 0x8, addend: 0x0, symName: '__ZN4core3ptr148drop_in_place$LT$core..result..Result$LT$$RF$pyo3..instance..Bound$LT$pyo3..types..typeobject..PyType$GT$$C$pyo3..err..cast_error..CastError$GT$$GT$17hc3f348c67bc1990aE', symObjAddr: 0x40E4, symBinAddr: 0x1A5C8, symSize: 0x44 }
  - { offsetInCU: 0x1598, offset: 0x565E9, size: 0x8, addend: 0x0, symName: '__ZN4core3ptr150drop_in_place$LT$std..sync..poison..mutex..MutexGuard$LT$alloc..vec..Vec$LT$core..ptr..non_null..NonNull$LT$pyo3_ffi..object..PyObject$GT$$GT$$GT$$GT$17hf319c1ea3e9ab175E', symObjAddr: 0x414C, symBinAddr: 0x1A60C, symSize: 0x24 }
  - { offsetInCU: 0x15C7, offset: 0x56618, size: 0x8, addend: 0x0, symName: '__ZN4core3ptr152drop_in_place$LT$pyo3..err..PyErr..new$LT$pyo3..exceptions..PyTypeError$C$pyo3..err..cast_error..CastErrorArguments$GT$..$u7b$$u7b$closure$u7d$$u7d$$GT$17h16ee8ddc4cc3745fE', symObjAddr: 0x41D8, symBinAddr: 0x1A630, symSize: 0x24 }
  - { offsetInCU: 0x15F6, offset: 0x56647, size: 0x8, addend: 0x0, symName: '__ZN4core3ptr155drop_in_place$LT$pyo3..err..err_state..PyErrState..lazy_arguments$LT$pyo3..instance..Py$LT$pyo3..types..any..PyAny$GT$$GT$..$u7b$$u7b$closure$u7d$$u7d$$GT$17h772ae284ff7e3af3E', symObjAddr: 0x4220, symBinAddr: 0x1A654, symSize: 0x60 }
  - { offsetInCU: 0x1625, offset: 0x56676, size: 0x8, addend: 0x0, symName: '__ZN4core3ptr156drop_in_place$LT$std..sync..poison..PoisonError$LT$std..sync..poison..mutex..MutexGuard$LT$core..option..Option$LT$std..thread..id..ThreadId$GT$$GT$$GT$$GT$17h98c875bf40b5f0edE', symObjAddr: 0x4280, symBinAddr: 0x1A6B4, symSize: 0x24 }
  - { offsetInCU: 0x1654, offset: 0x566A5, size: 0x8, addend: 0x0, symName: '__ZN4core3ptr157drop_in_place$LT$pyo3..err..err_state..PyErrState..make_normalized..$u7b$$u7b$closure$u7d$$u7d$..$u7b$$u7b$closure$u7d$$u7d$..$u7b$$u7b$closure$u7d$$u7d$$GT$17hae2d3520236291f9E', symObjAddr: 0x42A4, symBinAddr: 0x1A6D8, symSize: 0x24 }
  - { offsetInCU: 0x1683, offset: 0x566D4, size: 0x8, addend: 0x0, symName: '__ZN4core3ptr168drop_in_place$LT$core..iter..adapters..enumerate..Enumerate$LT$core..array..iter..IntoIter$LT$pyo3..instance..Bound$LT$pyo3..types..any..PyAny$GT$$C$1_usize$GT$$GT$$GT$17h9a6e0014470903b7E', symObjAddr: 0x4310, symBinAddr: 0x1A6FC, symSize: 0x24 }
  - { offsetInCU: 0x16B2, offset: 0x56703, size: 0x8, addend: 0x0, symName: '__ZN4core3ptr188drop_in_place$LT$std..sync..poison..PoisonError$LT$std..sync..poison..mutex..MutexGuard$LT$alloc..vec..Vec$LT$core..ptr..non_null..NonNull$LT$pyo3_ffi..object..PyObject$GT$$GT$$GT$$GT$$GT$17h0bdd29a3e0004e62E', symObjAddr: 0x440C, symBinAddr: 0x1A720, symSize: 0x24 }
  - { offsetInCU: 0x16E1, offset: 0x56732, size: 0x8, addend: 0x0, symName: '__ZN4core3ptr192drop_in_place$LT$core..array..iter..iter_inner..PolymorphicIter$LT$$u5b$core..mem..maybe_uninit..MaybeUninit$LT$pyo3..instance..Bound$LT$pyo3..types..any..PyAny$GT$$GT$$u3b$$u20$1$u5d$$GT$$GT$17ha40b1dd9e53329c5E', symObjAddr: 0x4430, symBinAddr: 0x1A744, symSize: 0x24 }
  - { offsetInCU: 0x1710, offset: 0x56761, size: 0x8, addend: 0x0, symName: '__ZN4core3ptr216drop_in_place$LT$$LT$alloc..vec..into_iter..IntoIter$LT$T$C$A$GT$$u20$as$u20$core..ops..drop..Drop$GT$..drop..DropGuard$LT$core..ptr..non_null..NonNull$LT$pyo3_ffi..object..PyObject$GT$$C$alloc..alloc..Global$GT$$GT$17hd946bc2969eedf58E', symObjAddr: 0x4574, symBinAddr: 0x1A768, symSize: 0x24 }
  - { offsetInCU: 0x173F, offset: 0x56790, size: 0x8, addend: 0x0, symName: '__ZN4core3ptr219drop_in_place$LT$pyo3..sync..once_lock..init_once_cell_py_attached$LT$pyo3..sync..Interned..get..$u7b$$u7b$closure$u7d$$u7d$$C$pyo3..instance..Py$LT$pyo3..types..string..PyString$GT$$GT$..$u7b$$u7b$closure$u7d$$u7d$$GT$17h3fbbb110b2924cd1E', symObjAddr: 0x4598, symBinAddr: 0x1A78C, symSize: 0x24 }
  - { offsetInCU: 0x176E, offset: 0x567BF, size: 0x8, addend: 0x0, symName: '__ZN4core3ptr236drop_in_place$LT$alloc..boxed..Box$LT$dyn$u20$core..ops..function..FnOnce$LT$$LP$pyo3..marker..Python$C$$RP$$GT$$u2b$Output$u20$$u3d$$u20$pyo3..err..err_state..PyErrStateLazyFnOutput$u2b$core..marker..Sync$u2b$core..marker..Send$GT$$GT$17he3623cbaa69b6f8cE', symObjAddr: 0x45BC, symBinAddr: 0x1A7B0, symSize: 0x80 }
  - { offsetInCU: 0x179D, offset: 0x567EE, size: 0x8, addend: 0x0, symName: '__ZN4core3ptr289drop_in_place$LT$pyo3..sync..once_lock..init_once_cell_py_attached$LT$$LT$pyo3..panic..PanicException$u20$as$u20$pyo3..type_object..PyTypeInfo$GT$..type_object_raw..$u7b$$u7b$closure$u7d$$u7d$$C$pyo3..instance..Py$LT$pyo3..types..typeobject..PyType$GT$$GT$..$u7b$$u7b$closure$u7d$$u7d$$GT$17h5605311dc70bd5a8E', symObjAddr: 0x4710, symBinAddr: 0x1A830, symSize: 0x24 }
  - { offsetInCU: 0x17CC, offset: 0x5681D, size: 0x8, addend: 0x0, symName: '__ZN4core3ptr357drop_in_place$LT$once_cell..sync..OnceCell$LT$pyo3..instance..Py$LT$pyo3..types..string..PyString$GT$$GT$..get_or_init$LT$pyo3..sync..once_lock..init_once_cell_py_attached$LT$pyo3..sync..Interned..get..$u7b$$u7b$closure$u7d$$u7d$$C$pyo3..instance..Py$LT$pyo3..types..string..PyString$GT$$GT$..$u7b$$u7b$closure$u7d$$u7d$$GT$..$u7b$$u7b$closure$u7d$$u7d$$GT$17h7ef0366b1a448778E', symObjAddr: 0x4918, symBinAddr: 0x1A854, symSize: 0x24 }
  - { offsetInCU: 0x17FB, offset: 0x5684C, size: 0x8, addend: 0x0, symName: '__ZN4core3ptr37drop_in_place$LT$pyo3..err..PyErr$GT$17ha4587150310787e6E', symObjAddr: 0x493C, symBinAddr: 0x1A878, symSize: 0x24 }
  - { offsetInCU: 0x182A, offset: 0x5687B, size: 0x8, addend: 0x0, symName: '__ZN4core3ptr385drop_in_place$LT$core..option..Option$LT$once_cell..sync..OnceCell$LT$pyo3..instance..Py$LT$pyo3..types..string..PyString$GT$$GT$..get_or_init$LT$pyo3..sync..once_lock..init_once_cell_py_attached$LT$pyo3..sync..Interned..get..$u7b$$u7b$closure$u7d$$u7d$$C$pyo3..instance..Py$LT$pyo3..types..string..PyString$GT$$GT$..$u7b$$u7b$closure$u7d$$u7d$$GT$..$u7b$$u7b$closure$u7d$$u7d$$GT$$GT$17h9af3650f6f09deb8E', symObjAddr: 0x4960, symBinAddr: 0x1A89C, symSize: 0x44 }
  - { offsetInCU: 0x1859, offset: 0x568AA, size: 0x8, addend: 0x0, symName: '__ZN4core3ptr429drop_in_place$LT$once_cell..sync..OnceCell$LT$pyo3..instance..Py$LT$pyo3..types..typeobject..PyType$GT$$GT$..get_or_init$LT$pyo3..sync..once_lock..init_once_cell_py_attached$LT$$LT$pyo3..panic..PanicException$u20$as$u20$pyo3..type_object..PyTypeInfo$GT$..type_object_raw..$u7b$$u7b$closure$u7d$$u7d$$C$pyo3..instance..Py$LT$pyo3..types..typeobject..PyType$GT$$GT$..$u7b$$u7b$closure$u7d$$u7d$$GT$..$u7b$$u7b$closure$u7d$$u7d$$GT$17hd79ceb567f575dcdE', symObjAddr: 0x49EC, symBinAddr: 0x1A8E0, symSize: 0x24 }
  - { offsetInCU: 0x1888, offset: 0x568D9, size: 0x8, addend: 0x0, symName: '__ZN4core3ptr42drop_in_place$LT$alloc..string..String$GT$17h53d15a14bdeb4671E', symObjAddr: 0x4A10, symBinAddr: 0x1A904, symSize: 0x24 }
  - { offsetInCU: 0x18B7, offset: 0x56908, size: 0x8, addend: 0x0, symName: '__ZN4core3ptr42drop_in_place$LT$std..io..error..Error$GT$17h7bdf3c2fe85fdf1dE', symObjAddr: 0x4A34, symBinAddr: 0x1A928, symSize: 0x24 }
  - { offsetInCU: 0x18E6, offset: 0x56937, size: 0x8, addend: 0x0, symName: '__ZN4core3ptr43drop_in_place$LT$std..io..error..Custom$GT$17hecffe4f84d7e1390E', symObjAddr: 0x4A58, symBinAddr: 0x1A94C, symSize: 0x24 }
  - { offsetInCU: 0x1915, offset: 0x56966, size: 0x8, addend: 0x0, symName: '__ZN4core3ptr457drop_in_place$LT$core..option..Option$LT$once_cell..sync..OnceCell$LT$pyo3..instance..Py$LT$pyo3..types..typeobject..PyType$GT$$GT$..get_or_init$LT$pyo3..sync..once_lock..init_once_cell_py_attached$LT$$LT$pyo3..panic..PanicException$u20$as$u20$pyo3..type_object..PyTypeInfo$GT$..type_object_raw..$u7b$$u7b$closure$u7d$$u7d$$C$pyo3..instance..Py$LT$pyo3..types..typeobject..PyType$GT$$GT$..$u7b$$u7b$closure$u7d$$u7d$$GT$..$u7b$$u7b$closure$u7d$$u7d$$GT$$GT$17h0b41c47b181f7879E', symObjAddr: 0x4AA0, symBinAddr: 0x1A970, symSize: 0x44 }
  - { offsetInCU: 0x1944, offset: 0x56995, size: 0x8, addend: 0x0, symName: '__ZN4core3ptr46drop_in_place$LT$alloc..vec..Vec$LT$u8$GT$$GT$17h1f03ef2dc4a459c5E', symObjAddr: 0x4AE4, symBinAddr: 0x1A9B4, symSize: 0x5C }
  - { offsetInCU: 0x1973, offset: 0x569C4, size: 0x8, addend: 0x0, symName: '__ZN4core3ptr50drop_in_place$LT$alloc..borrow..Cow$LT$str$GT$$GT$17h7023123bda1efeccE', symObjAddr: 0x4C74, symBinAddr: 0x1AA10, symSize: 0x48 }
  - { offsetInCU: 0x19A2, offset: 0x569F3, size: 0x8, addend: 0x0, symName: '__ZN4core3ptr50drop_in_place$LT$pyo3..impl_..panic..PanicTrap$GT$17h2e37f87d34fe6c4eE', symObjAddr: 0x4D18, symBinAddr: 0x1AA58, symSize: 0x24 }
  - { offsetInCU: 0x19D1, offset: 0x56A22, size: 0x8, addend: 0x0, symName: '__ZN4core3ptr51drop_in_place$LT$alloc..vec..Vec$LT$$RF$str$GT$$GT$17h06e3f665fbf5afbeE', symObjAddr: 0x4D3C, symBinAddr: 0x1AA7C, symSize: 0x5C }
  - { offsetInCU: 0x1A00, offset: 0x56A51, size: 0x8, addend: 0x0, symName: '__ZN4core3ptr53drop_in_place$LT$$LP$alloc..string..String$C$$RP$$GT$17h3d6fc8aab32b8940E', symObjAddr: 0x4D98, symBinAddr: 0x1AAD8, symSize: 0x24 }
  - { offsetInCU: 0x1A2F, offset: 0x56A80, size: 0x8, addend: 0x0, symName: '__ZN4core3ptr53drop_in_place$LT$alloc..raw_vec..RawVec$LT$u8$GT$$GT$17habc18f555b64cbc5E', symObjAddr: 0x4DBC, symBinAddr: 0x1AAFC, symSize: 0x24 }
  - { offsetInCU: 0x1A5E, offset: 0x56AAF, size: 0x8, addend: 0x0, symName: '__ZN4core3ptr53drop_in_place$LT$pyo3..err..cast_error..CastError$GT$17h1dfcc61e2314517fE', symObjAddr: 0x4DE0, symBinAddr: 0x1AB20, symSize: 0x24 }
  - { offsetInCU: 0x1A8D, offset: 0x56ADE, size: 0x8, addend: 0x0, symName: '__ZN4core3ptr53drop_in_place$LT$pyo3..err..err_state..PyErrState$GT$17h6a185db6deedd774E', symObjAddr: 0x4E04, symBinAddr: 0x1AB44, symSize: 0x5C }
  - { offsetInCU: 0x1ABC, offset: 0x56B0D, size: 0x8, addend: 0x0, symName: '__ZN4core3ptr55drop_in_place$LT$pyo3..internal..state..AttachGuard$GT$17h4ba2ec50f119fe5fE', symObjAddr: 0x4E84, symBinAddr: 0x1ABA0, symSize: 0x60 }
  - { offsetInCU: 0x1AEB, offset: 0x56B3C, size: 0x8, addend: 0x0, symName: '__ZN4core3ptr57drop_in_place$LT$pyo3..internal..state..SuspendAttach$GT$17h5043cf0af11a116cE', symObjAddr: 0x4F2C, symBinAddr: 0x1AC00, symSize: 0x24 }
  - { offsetInCU: 0x1B1A, offset: 0x56B6B, size: 0x8, addend: 0x0, symName: '__ZN4core3ptr57drop_in_place$LT$std..io..error..repr_bitpacked..Repr$GT$17h28c6dcc8f6ef389eE', symObjAddr: 0x4F50, symBinAddr: 0x1AC24, symSize: 0x24 }
  - { offsetInCU: 0x1B49, offset: 0x56B9A, size: 0x8, addend: 0x0, symName: '__ZN4core3ptr58drop_in_place$LT$alloc..raw_vec..RawVec$LT$$RF$str$GT$$GT$17h3e47c6dfb963765dE', symObjAddr: 0x4FA0, symBinAddr: 0x1AC48, symSize: 0x24 }
  - { offsetInCU: 0x1B78, offset: 0x56BC9, size: 0x8, addend: 0x0, symName: '__ZN4core3ptr58drop_in_place$LT$pyo3..err..err_state..PyErrStateInner$GT$17h7efa4d84d35ef630E', symObjAddr: 0x4FC4, symBinAddr: 0x1AC6C, symSize: 0x54 }
  - { offsetInCU: 0x1BA7, offset: 0x56BF8, size: 0x8, addend: 0x0, symName: '__ZN4core3ptr58drop_in_place$LT$std..sys..sync..mutex..pthread..Mutex$GT$17h6c48bf8ec560272fE', symObjAddr: 0x5018, symBinAddr: 0x1ACC0, symSize: 0x5C }
  - { offsetInCU: 0x1BD6, offset: 0x56C27, size: 0x8, addend: 0x0, symName: '__ZN4core3ptr59drop_in_place$LT$pyo3..types..tuple..BoundTupleIterator$GT$17h25b94a8fbc61cc9aE', symObjAddr: 0x5074, symBinAddr: 0x1AD1C, symSize: 0x24 }
  - { offsetInCU: 0x1C05, offset: 0x56C56, size: 0x8, addend: 0x0, symName: '__ZN4core3ptr60drop_in_place$LT$std..sys..pal..unix..sync..mutex..Mutex$GT$17h6ca0226d1faef7c8E', symObjAddr: 0x5098, symBinAddr: 0x1AD40, symSize: 0x24 }
  - { offsetInCU: 0x1C34, offset: 0x56C85, size: 0x8, addend: 0x0, symName: '__ZN4core3ptr62drop_in_place$LT$pyo3..err..cast_error..CastErrorArguments$GT$17h1bb79f921639dd67E', symObjAddr: 0x50E0, symBinAddr: 0x1AD64, symSize: 0x60 }
  - { offsetInCU: 0x1C63, offset: 0x56CB4, size: 0x8, addend: 0x0, symName: '__ZN4core3ptr63drop_in_place$LT$pyo3..err..err_state..PyErrStateNormalized$GT$17hd572ebe9456cf0d1E', symObjAddr: 0x5164, symBinAddr: 0x1ADC4, symSize: 0x90 }
  - { offsetInCU: 0x1C92, offset: 0x56CE3, size: 0x8, addend: 0x0, symName: '__ZN4core3ptr65drop_in_place$LT$core..option..Option$LT$pyo3..err..PyErr$GT$$GT$17hc486bab85fb37dd5E', symObjAddr: 0x51F4, symBinAddr: 0x1AE54, symSize: 0x40 }
  - { offsetInCU: 0x1CC1, offset: 0x56D12, size: 0x8, addend: 0x0, symName: '__ZN4core3ptr68drop_in_place$LT$alloc..boxed..Box$LT$std..io..error..Custom$GT$$GT$17h084a6d625740176cE', symObjAddr: 0x527C, symBinAddr: 0x1AE94, symSize: 0x60 }
  - { offsetInCU: 0x1CF0, offset: 0x56D41, size: 0x8, addend: 0x0, symName: '__ZN4core3ptr70drop_in_place$LT$core..option..Option$LT$alloc..string..String$GT$$GT$17hcf2ef93453e0420aE', symObjAddr: 0x5454, symBinAddr: 0x1AEF4, symSize: 0x48 }
  - { offsetInCU: 0x1D1F, offset: 0x56D70, size: 0x8, addend: 0x0, symName: '__ZN4core3ptr70drop_in_place$LT$pyo3..instance..Py$LT$pyo3..types..any..PyAny$GT$$GT$17hc44ba714ce07992bE', symObjAddr: 0x54F8, symBinAddr: 0x1AF3C, symSize: 0x24 }
  - { offsetInCU: 0x1D4E, offset: 0x56D9F, size: 0x8, addend: 0x0, symName: '__ZN4core3ptr73drop_in_place$LT$pyo3..instance..Bound$LT$pyo3..types..any..PyAny$GT$$GT$17h8fe3eb2b114ddb57E', symObjAddr: 0x56B8, symBinAddr: 0x1AF60, symSize: 0x24 }
  - { offsetInCU: 0x1D7D, offset: 0x56DCE, size: 0x8, addend: 0x0, symName: '__ZN4core3ptr75drop_in_place$LT$core..result..Result$LT$$RF$str$C$pyo3..err..PyErr$GT$$GT$17hc4111543aa49bffdE', symObjAddr: 0x5780, symBinAddr: 0x1AF84, symSize: 0x40 }
  - { offsetInCU: 0x1DAC, offset: 0x56DFD, size: 0x8, addend: 0x0, symName: '__ZN4core3ptr75drop_in_place$LT$pyo3..instance..Bound$LT$pyo3..types..list..PyList$GT$$GT$17hb30717ae39c719f3E', symObjAddr: 0x5808, symBinAddr: 0x1AFC4, symSize: 0x24 }
  - { offsetInCU: 0x1DDB, offset: 0x56E2C, size: 0x8, addend: 0x0, symName: '__ZN4core3ptr76drop_in_place$LT$core..result..Result$LT$$LP$$RP$$C$pyo3..err..PyErr$GT$$GT$17hd61b5cc8e22c89b6E', symObjAddr: 0x582C, symBinAddr: 0x1AFE8, symSize: 0x40 }
  - { offsetInCU: 0x1E0A, offset: 0x56E5B, size: 0x8, addend: 0x0, symName: '__ZN4core3ptr76drop_in_place$LT$pyo3..instance..Py$LT$pyo3..types..string..PyString$GT$$GT$17h2b0f860c93516e48E', symObjAddr: 0x5890, symBinAddr: 0x1B028, symSize: 0x24 }
  - { offsetInCU: 0x1E39, offset: 0x56E8A, size: 0x8, addend: 0x0, symName: '__ZN4core3ptr77drop_in_place$LT$pyo3..instance..Bound$LT$pyo3..types..bytes..PyBytes$GT$$GT$17h99fb0cc87ae74779E', symObjAddr: 0x58B4, symBinAddr: 0x1B04C, symSize: 0x24 }
  - { offsetInCU: 0x1E68, offset: 0x56EB9, size: 0x8, addend: 0x0, symName: '__ZN4core3ptr77drop_in_place$LT$pyo3..instance..Bound$LT$pyo3..types..tuple..PyTuple$GT$$GT$17h33393007d63ec358E', symObjAddr: 0x58FC, symBinAddr: 0x1B070, symSize: 0x24 }
  - { offsetInCU: 0x1E97, offset: 0x56EE8, size: 0x8, addend: 0x0, symName: '__ZN4core3ptr78drop_in_place$LT$pyo3..instance..Py$LT$pyo3..types..typeobject..PyType$GT$$GT$17h5d31d8b9ac4915d9E', symObjAddr: 0x59FC, symBinAddr: 0x1B094, symSize: 0x24 }
  - { offsetInCU: 0x1EC6, offset: 0x56F17, size: 0x8, addend: 0x0, symName: '__ZN4core3ptr79drop_in_place$LT$pyo3..instance..Bound$LT$pyo3..types..module..PyModule$GT$$GT$17hc6423a02c2c1ff88E', symObjAddr: 0x5B8C, symBinAddr: 0x1B0B8, symSize: 0x24 }
  - { offsetInCU: 0x1EF5, offset: 0x56F46, size: 0x8, addend: 0x0, symName: '__ZN4core3ptr79drop_in_place$LT$pyo3..instance..Bound$LT$pyo3..types..string..PyString$GT$$GT$17h1db22a050d3dec69E', symObjAddr: 0x5BB0, symBinAddr: 0x1B0DC, symSize: 0x24 }
  - { offsetInCU: 0x1F24, offset: 0x56F75, size: 0x8, addend: 0x0, symName: '__ZN4core3ptr80drop_in_place$LT$pyo3..instance..Py$LT$pyo3..exceptions..PyBaseException$GT$$GT$17habc4de3e44760712E', symObjAddr: 0x5C40, symBinAddr: 0x1B100, symSize: 0x24 }
  - { offsetInCU: 0x1F53, offset: 0x56FA4, size: 0x8, addend: 0x0, symName: '__ZN4core3ptr81drop_in_place$LT$pyo3..instance..Bound$LT$pyo3..types..typeobject..PyType$GT$$GT$17hae774a8d76929cbdE', symObjAddr: 0x5CF0, symBinAddr: 0x1B124, symSize: 0x24 }
  - { offsetInCU: 0x1F82, offset: 0x56FD3, size: 0x8, addend: 0x0, symName: '__ZN4core3ptr82drop_in_place$LT$pyo3..instance..Py$LT$pyo3..types..traceback..PyTraceback$GT$$GT$17h91ad0d50a5a6dca4E', symObjAddr: 0x5D14, symBinAddr: 0x1B148, symSize: 0x24 }
  - { offsetInCU: 0x1FB1, offset: 0x57002, size: 0x8, addend: 0x0, symName: '__ZN4core3ptr83drop_in_place$LT$$u5b$pyo3..instance..Bound$LT$pyo3..types..any..PyAny$GT$$u5d$$GT$17hce3c66306fc91e41E', symObjAddr: 0x5D38, symBinAddr: 0x1B16C, symSize: 0xB4 }
  - { offsetInCU: 0x1FE0, offset: 0x57031, size: 0x8, addend: 0x0, symName: '__ZN4core3ptr83drop_in_place$LT$pyo3..instance..Bound$LT$pyo3..exceptions..PyBaseException$GT$$GT$17hd6992e50003eba43E', symObjAddr: 0x5DEC, symBinAddr: 0x1B220, symSize: 0x24 }
  - { offsetInCU: 0x200F, offset: 0x57060, size: 0x8, addend: 0x0, symName: '__ZN4core3ptr84drop_in_place$LT$pyo3..instance..Bound$LT$pyo3..types..function..PyCFunction$GT$$GT$17h0d7bfba5d590ab00E', symObjAddr: 0x5E34, symBinAddr: 0x1B244, symSize: 0x24 }
  - { offsetInCU: 0x203E, offset: 0x5708F, size: 0x8, addend: 0x0, symName: '__ZN4core3ptr85drop_in_place$LT$alloc..boxed..Box$LT$std..sys..pal..unix..sync..mutex..Mutex$GT$$GT$17h9ea89d2bda3a69cdE', symObjAddr: 0x5E58, symBinAddr: 0x1B268, symSize: 0x60 }
  - { offsetInCU: 0x206D, offset: 0x570BE, size: 0x8, addend: 0x0, symName: '__ZN4core3ptr85drop_in_place$LT$pyo3..instance..Bound$LT$pyo3..types..traceback..PyTraceback$GT$$GT$17h815ddf790fb039baE', symObjAddr: 0x5F6C, symBinAddr: 0x1B2C8, symSize: 0x24 }
  - { offsetInCU: 0x209C, offset: 0x570ED, size: 0x8, addend: 0x0, symName: '__ZN4core3ptr86drop_in_place$LT$core..option..Option$LT$pyo3..err..err_state..PyErrStateInner$GT$$GT$17h34d6269ddf6dcdb8E', symObjAddr: 0x5FD8, symBinAddr: 0x1B2EC, symSize: 0x40 }
  - { offsetInCU: 0x20CB, offset: 0x5711C, size: 0x8, addend: 0x0, symName: '__ZN4core3ptr91drop_in_place$LT$alloc..boxed..Box$LT$dyn$u20$core..any..Any$u2b$core..marker..Send$GT$$GT$17he0b9c12bae2b558eE', symObjAddr: 0x6114, symBinAddr: 0x1B32C, symSize: 0x80 }
  - { offsetInCU: 0x20FA, offset: 0x5714B, size: 0x8, addend: 0x0, symName: '__ZN4core3ptr94drop_in_place$LT$$u5b$pyo3..instance..Bound$LT$pyo3..types..any..PyAny$GT$$u3b$$u20$1$u5d$$GT$17h003408e32566c7aaE', symObjAddr: 0x62DC, symBinAddr: 0x1B3AC, symSize: 0xA4 }
  - { offsetInCU: 0x2129, offset: 0x5717A, size: 0x8, addend: 0x0, symName: '__ZN4core3ptr98drop_in_place$LT$pyo3..err..err_state..PyErrStateNormalized..take..$u7b$$u7b$closure$u7d$$u7d$$GT$17h9ea1111238940ea2E', symObjAddr: 0x66C8, symBinAddr: 0x1B450, symSize: 0x60 }
  - { offsetInCU: 0x2167, offset: 0x571B8, size: 0x8, addend: 0x0, symName: '__ZN4core3ptr9const_ptr33_$LT$impl$u20$$BP$const$u20$T$GT$20offset_from_unsigned18precondition_check17h1252055c2020a626E', symObjAddr: 0x674C, symBinAddr: 0x1B4B0, symSize: 0x60 }
  - { offsetInCU: 0x21D2, offset: 0x57223, size: 0x8, addend: 0x0, symName: '__ZN4core3ptr9const_ptr33_$LT$impl$u20$$BP$const$u20$T$GT$7is_null17h665267089d6ea6e1E', symObjAddr: 0x67AC, symBinAddr: 0x1B510, symSize: 0x18 }
  - { offsetInCU: 0x3246, offset: 0x58297, size: 0x8, addend: 0x0, symName: '__ZN70_$LT$core..num..error..TryFromIntError$u20$as$u20$core..fmt..Debug$GT$3fmt17h6993844c78d47725E', symObjAddr: 0x875C, symBinAddr: 0x1BDF0, symSize: 0x54 }
  - { offsetInCU: 0x332C, offset: 0x5837D, size: 0x8, addend: 0x0, symName: '__ZN4core3str6traits54_$LT$impl$u20$core..cmp..PartialEq$u20$for$u20$str$GT$2eq17hb78e59c9e5b55ff0E', symObjAddr: 0x6874, symBinAddr: 0x1B528, symSize: 0xA0 }
  - { offsetInCU: 0x343D, offset: 0x5848E, size: 0x8, addend: 0x0, symName: '__ZN4core3str6traits99_$LT$impl$u20$core..slice..index..SliceIndex$LT$str$GT$$u20$for$u20$core..ops..range..RangeFull$GT$5index17h6431e17a30890878E', symObjAddr: 0x6914, symBinAddr: 0x1B5C8, symSize: 0x18 }
  - { offsetInCU: 0x3576, offset: 0x585C7, size: 0x8, addend: 0x0, symName: __ZN4core3cmp3Ord3max17h8a889517fb4d238cE, symObjAddr: 0x181C, symBinAddr: 0x197DC, symSize: 0x74 }
  - { offsetInCU: 0x35E4, offset: 0x58635, size: 0x8, addend: 0x0, symName: __ZN4core3cmp3Ord3min17hd48e41248015428eE, symObjAddr: 0x1890, symBinAddr: 0x19850, symSize: 0x74 }
  - { offsetInCU: 0x36D7, offset: 0x58728, size: 0x8, addend: 0x0, symName: '__ZN4core3ops8function6FnOnce40call_once$u7b$$u7b$vtable.shim$u7d$$u7d$17h01c3d37a9b3764e5E', symObjAddr: 0x1998, symBinAddr: 0x198F8, symSize: 0x24 }
  - { offsetInCU: 0x371B, offset: 0x5876C, size: 0x8, addend: 0x0, symName: '__ZN4core3ops8function6FnOnce40call_once$u7b$$u7b$vtable.shim$u7d$$u7d$17h1b5e7a3628363cf9E', symObjAddr: 0x1A44, symBinAddr: 0x1991C, symSize: 0x24 }
  - { offsetInCU: 0x375F, offset: 0x587B0, size: 0x8, addend: 0x0, symName: '__ZN4core3ops8function6FnOnce40call_once$u7b$$u7b$vtable.shim$u7d$$u7d$17h377f7bc1526309daE', symObjAddr: 0x1C00, symBinAddr: 0x19940, symSize: 0x30 }
  - { offsetInCU: 0x379F, offset: 0x587F0, size: 0x8, addend: 0x0, symName: '__ZN4core3ops8function6FnOnce40call_once$u7b$$u7b$vtable.shim$u7d$$u7d$17h40e828f1b5410f1fE', symObjAddr: 0x1C80, symBinAddr: 0x19970, symSize: 0x24 }
  - { offsetInCU: 0x37E3, offset: 0x58834, size: 0x8, addend: 0x0, symName: '__ZN4core3ops8function6FnOnce40call_once$u7b$$u7b$vtable.shim$u7d$$u7d$17h5519d871846f2eb1E', symObjAddr: 0x1D3C, symBinAddr: 0x19994, symSize: 0x30 }
  - { offsetInCU: 0x3827, offset: 0x58878, size: 0x8, addend: 0x0, symName: '__ZN4core3ops8function6FnOnce40call_once$u7b$$u7b$vtable.shim$u7d$$u7d$17h71cfe0c4f04ef8f2E', symObjAddr: 0x1E64, symBinAddr: 0x199C4, symSize: 0x30 }
  - { offsetInCU: 0x3867, offset: 0x588B8, size: 0x8, addend: 0x0, symName: '__ZN4core3ops8function6FnOnce40call_once$u7b$$u7b$vtable.shim$u7d$$u7d$17h87c798bd1328c1d4E', symObjAddr: 0x1EEC, symBinAddr: 0x199F4, symSize: 0x30 }
  - { offsetInCU: 0x38A7, offset: 0x588F8, size: 0x8, addend: 0x0, symName: '__ZN4core3ops8function6FnOnce40call_once$u7b$$u7b$vtable.shim$u7d$$u7d$17haac53a28bac0825cE', symObjAddr: 0x1FB0, symBinAddr: 0x19A24, symSize: 0x30 }
  - { offsetInCU: 0x38EB, offset: 0x5893C, size: 0x8, addend: 0x0, symName: '__ZN4core3ops8function6FnOnce40call_once$u7b$$u7b$vtable.shim$u7d$$u7d$17hb98c15566dd3067fE', symObjAddr: 0x2018, symBinAddr: 0x19A54, symSize: 0x30 }
  - { offsetInCU: 0x392B, offset: 0x5897C, size: 0x8, addend: 0x0, symName: '__ZN4core3ops8function6FnOnce40call_once$u7b$$u7b$vtable.shim$u7d$$u7d$17hbc1158da0940c9fdE', symObjAddr: 0x2094, symBinAddr: 0x19A84, symSize: 0x30 }
  - { offsetInCU: 0x396B, offset: 0x589BC, size: 0x8, addend: 0x0, symName: '__ZN4core3ops8function6FnOnce40call_once$u7b$$u7b$vtable.shim$u7d$$u7d$17hd7d2f676501e05bdE', symObjAddr: 0x217C, symBinAddr: 0x19AB4, symSize: 0x24 }
  - { offsetInCU: 0x39AF, offset: 0x58A00, size: 0x8, addend: 0x0, symName: '__ZN4core3ops8function6FnOnce40call_once$u7b$$u7b$vtable.shim$u7d$$u7d$17he3fe03492325eeb9E', symObjAddr: 0x2248, symBinAddr: 0x19AD8, symSize: 0x30 }
  - { offsetInCU: 0x39F3, offset: 0x58A44, size: 0x8, addend: 0x0, symName: '__ZN4core3ops8function6FnOnce40call_once$u7b$$u7b$vtable.shim$u7d$$u7d$17he78a09d18e3e8bbeE', symObjAddr: 0x2278, symBinAddr: 0x19B08, symSize: 0x24 }
  - { offsetInCU: 0x3A37, offset: 0x58A88, size: 0x8, addend: 0x0, symName: '__ZN4core3ops8function6FnOnce40call_once$u7b$$u7b$vtable.shim$u7d$$u7d$17hec31120f38b1348aE', symObjAddr: 0x229C, symBinAddr: 0x19B2C, symSize: 0x30 }
  - { offsetInCU: 0x3A77, offset: 0x58AC8, size: 0x8, addend: 0x0, symName: __ZN4core3ops8function6FnOnce9call_once17h087b1422ee9131c4E, symObjAddr: 0x2360, symBinAddr: 0x19B5C, symSize: 0x4C }
  - { offsetInCU: 0x3AB7, offset: 0x58B08, size: 0x8, addend: 0x0, symName: __ZN4core3ops8function6FnOnce9call_once17h257b91d33affbcbeE, symObjAddr: 0x244C, symBinAddr: 0x19BA8, symSize: 0x24 }
  - { offsetInCU: 0x3AFB, offset: 0x58B4C, size: 0x8, addend: 0x0, symName: __ZN4core3ops8function6FnOnce9call_once17h25e9559820000b5bE, symObjAddr: 0x2470, symBinAddr: 0x19BCC, symSize: 0x1C }
  - { offsetInCU: 0x3B3F, offset: 0x58B90, size: 0x8, addend: 0x0, symName: __ZN4core3ops8function6FnOnce9call_once17h306270cde12d645bE, symObjAddr: 0x24C0, symBinAddr: 0x19BE8, symSize: 0x24 }
  - { offsetInCU: 0x3B83, offset: 0x58BD4, size: 0x8, addend: 0x0, symName: __ZN4core3ops8function6FnOnce9call_once17h37619c2866c0884aE, symObjAddr: 0x2508, symBinAddr: 0x19C0C, symSize: 0x4C }
  - { offsetInCU: 0x3BC3, offset: 0x58C14, size: 0x8, addend: 0x0, symName: __ZN4core3ops8function6FnOnce9call_once17h3c42484e8d141a28E, symObjAddr: 0x2588, symBinAddr: 0x19C58, symSize: 0x4C }
  - { offsetInCU: 0x3C07, offset: 0x58C58, size: 0x8, addend: 0x0, symName: __ZN4core3ops8function6FnOnce9call_once17h4346dda1eab2a7a2E, symObjAddr: 0x2620, symBinAddr: 0x19CA4, symSize: 0x24 }
  - { offsetInCU: 0x3C4B, offset: 0x58C9C, size: 0x8, addend: 0x0, symName: __ZN4core3ops8function6FnOnce9call_once17h440e058080d94858E, symObjAddr: 0x2644, symBinAddr: 0x19CC8, symSize: 0x24 }
  - { offsetInCU: 0x3C8F, offset: 0x58CE0, size: 0x8, addend: 0x0, symName: __ZN4core3ops8function6FnOnce9call_once17h5b8ecefb780eea80E, symObjAddr: 0x2764, symBinAddr: 0x19CEC, symSize: 0x24 }
  - { offsetInCU: 0x3CD3, offset: 0x58D24, size: 0x8, addend: 0x0, symName: __ZN4core3ops8function6FnOnce9call_once17h763cb2029be2c1b8E, symObjAddr: 0x2850, symBinAddr: 0x19D10, symSize: 0x40 }
  - { offsetInCU: 0x3D18, offset: 0x58D69, size: 0x8, addend: 0x0, symName: __ZN4core3ops8function6FnOnce9call_once17h7974c2f99db8334aE, symObjAddr: 0x2890, symBinAddr: 0x19D50, symSize: 0x4C }
  - { offsetInCU: 0x3D58, offset: 0x58DA9, size: 0x8, addend: 0x0, symName: __ZN4core3ops8function6FnOnce9call_once17h7ad122efe67aff99E, symObjAddr: 0x28DC, symBinAddr: 0x19D9C, symSize: 0x4C }
  - { offsetInCU: 0x3D98, offset: 0x58DE9, size: 0x8, addend: 0x0, symName: __ZN4core3ops8function6FnOnce9call_once17h7fda7bbe27281468E, symObjAddr: 0x2928, symBinAddr: 0x19DE8, symSize: 0x40 }
  - { offsetInCU: 0x3DDD, offset: 0x58E2E, size: 0x8, addend: 0x0, symName: __ZN4core3ops8function6FnOnce9call_once17h8ec4c64a2249f1d0E, symObjAddr: 0x2A68, symBinAddr: 0x19E28, symSize: 0x24 }
  - { offsetInCU: 0x3E21, offset: 0x58E72, size: 0x8, addend: 0x0, symName: __ZN4core3ops8function6FnOnce9call_once17hb01a8a5b03f68c18E, symObjAddr: 0x2B0C, symBinAddr: 0x19E4C, symSize: 0x2C }
  - { offsetInCU: 0x3E65, offset: 0x58EB6, size: 0x8, addend: 0x0, symName: __ZN4core3ops8function6FnOnce9call_once17hb06695ec71471eb8E, symObjAddr: 0x2B38, symBinAddr: 0x19E78, symSize: 0x4C }
  - { offsetInCU: 0x3EA5, offset: 0x58EF6, size: 0x8, addend: 0x0, symName: __ZN4core3ops8function6FnOnce9call_once17hb6e20d7f13f6eca8E, symObjAddr: 0x2B84, symBinAddr: 0x19EC4, symSize: 0x2C }
  - { offsetInCU: 0x3EE9, offset: 0x58F3A, size: 0x8, addend: 0x0, symName: __ZN4core3ops8function6FnOnce9call_once17hb9ca67634c65c2efE, symObjAddr: 0x2BB0, symBinAddr: 0x19EF0, symSize: 0x4C }
  - { offsetInCU: 0x3F29, offset: 0x58F7A, size: 0x8, addend: 0x0, symName: __ZN4core3ops8function6FnOnce9call_once17hd81eb56c887e4107E, symObjAddr: 0x2CA8, symBinAddr: 0x19F3C, symSize: 0x24 }
  - { offsetInCU: 0x3F6D, offset: 0x58FBE, size: 0x8, addend: 0x0, symName: __ZN4core3ops8function6FnOnce9call_once17he7cc42675e82beefE, symObjAddr: 0x2D30, symBinAddr: 0x19F60, symSize: 0x24 }
  - { offsetInCU: 0x3FB1, offset: 0x59002, size: 0x8, addend: 0x0, symName: __ZN4core3ops8function6FnOnce9call_once17he9883e04e7a7971eE, symObjAddr: 0x2D54, symBinAddr: 0x19F84, symSize: 0x2C }
  - { offsetInCU: 0x4058, offset: 0x590A9, size: 0x8, addend: 0x0, symName: '__ZN36_$LT$T$u20$as$u20$core..any..Any$GT$7type_id17hf8275f013fa3795aE', symObjAddr: 0x110, symBinAddr: 0x191F0, symSize: 0x20 }
  - { offsetInCU: 0x4C67, offset: 0x59CB8, size: 0x8, addend: 0x0, symName: '__ZN42_$LT$$RF$T$u20$as$u20$core..fmt..Debug$GT$3fmt17he7e6518a250a3816E', symObjAddr: 0x7E8, symBinAddr: 0x194F0, symSize: 0x30 }
  - { offsetInCU: 0x4D2C, offset: 0x59D7D, size: 0x8, addend: 0x0, symName: __ZN4core3fmt5Write9write_fmt17h62d5033036c92bd7E, symObjAddr: 0x1934, symBinAddr: 0x198C4, symSize: 0x34 }
  - { offsetInCU: 0x4D79, offset: 0x59DCA, size: 0x8, addend: 0x0, symName: '__ZN75_$LT$$RF$mut$u20$W$u20$as$u20$core..fmt..Write..write_fmt..SpecWriteFmt$GT$14spec_write_fmt17haeb04713dbfcda84E', symObjAddr: 0x882C, symBinAddr: 0x1BEC0, symSize: 0x98 }
  - { offsetInCU: 0x50C5, offset: 0x5A116, size: 0x8, addend: 0x0, symName: __ZN4core4char7methods25encode_utf8_raw_unchecked17h21aa75d58edb17e4E, symObjAddr: 0x6C20, symBinAddr: 0x1B5E0, symSize: 0x188 }
  - { offsetInCU: 0x5299, offset: 0x5A2EA, size: 0x8, addend: 0x0, symName: __ZN4core4hint16assert_unchecked18precondition_check17hc132e65ad233f4b8E, symObjAddr: 0x6DA8, symBinAddr: 0x1B768, symSize: 0x58 }
  - { offsetInCU: 0x52E4, offset: 0x5A335, size: 0x8, addend: 0x0, symName: __ZN4core4hint21unreachable_unchecked18precondition_check17h42aeef933130a678E, symObjAddr: 0x6E00, symBinAddr: 0x1B7C0, symSize: 0x3C }
  - { offsetInCU: 0x5CF8, offset: 0x5AD49, size: 0x8, addend: 0x0, symName: __ZN3std4sync6poison10map_result17h313e3656ce0f6932E, symObjAddr: 0x414, symBinAddr: 0x19210, symSize: 0xC4 }
  - { offsetInCU: 0x5D8C, offset: 0x5ADDD, size: 0x8, addend: 0x0, symName: __ZN3std4sync6poison10map_result17hede9ce761e25dc1aE, symObjAddr: 0x59C, symBinAddr: 0x192D4, symSize: 0xC4 }
  - { offsetInCU: 0x5E58, offset: 0x5AEA9, size: 0x8, addend: 0x0, symName: '__ZN76_$LT$std..sync..poison..PoisonError$LT$T$GT$$u20$as$u20$core..fmt..Debug$GT$3fmt17h48e4d26126d9baf3E', symObjAddr: 0x8964, symBinAddr: 0x1BFA8, symSize: 0x50 }
  - { offsetInCU: 0x5E9B, offset: 0x5AEEC, size: 0x8, addend: 0x0, symName: '__ZN76_$LT$std..sync..poison..PoisonError$LT$T$GT$$u20$as$u20$core..fmt..Debug$GT$3fmt17he27c7d3f1d79bbb3E', symObjAddr: 0x89B4, symBinAddr: 0x1BFF8, symSize: 0x50 }
  - { offsetInCU: 0x619B, offset: 0x5B1EC, size: 0x8, addend: 0x0, symName: '__ZN45_$LT$T$u20$as$u20$alloc..string..ToString$GT$9to_string17h3b8572d544095f23E', symObjAddr: 0x8AC, symBinAddr: 0x19520, symSize: 0x24 }
  - { offsetInCU: 0x61D2, offset: 0x5B223, size: 0x8, addend: 0x0, symName: '__ZN45_$LT$T$u20$as$u20$alloc..string..ToString$GT$9to_string17h8bb2e703966d834cE', symObjAddr: 0x984, symBinAddr: 0x19544, symSize: 0x24 }
  - { offsetInCU: 0x620F, offset: 0x5B260, size: 0x8, addend: 0x0, symName: '__ZN49_$LT$T$u20$as$u20$alloc..string..SpecToString$GT$14spec_to_string17h58e280c7a2621096E', symObjAddr: 0xE94, symBinAddr: 0x196E8, symSize: 0xF4 }
  - { offsetInCU: 0x62FD, offset: 0x5B34E, size: 0x8, addend: 0x0, symName: '__ZN76_$LT$alloc..string..String$u20$as$u20$core..convert..From$LT$$RF$str$GT$$GT$4from17h67753442686e8f00E', symObjAddr: 0x88C4, symBinAddr: 0x1BF58, symSize: 0x50 }
  - { offsetInCU: 0x63EA, offset: 0x5B43B, size: 0x8, addend: 0x0, symName: '__ZN55_$LT$$RF$str$u20$as$u20$alloc..string..SpecToString$GT$14spec_to_string17he7334d1c11b53187E', symObjAddr: 0x7DDC, symBinAddr: 0x1BA08, symSize: 0x5C }
  - { offsetInCU: 0x654F, offset: 0x5B5A0, size: 0x8, addend: 0x0, symName: '__ZN65_$LT$alloc..string..String$u20$as$u20$core..ops..deref..Deref$GT$5deref17hb2ba9cd4aee42a07E', symObjAddr: 0x8468, symBinAddr: 0x1BDCC, symSize: 0x24 }
  - { offsetInCU: 0x6583, offset: 0x5B5D4, size: 0x8, addend: 0x0, symName: '__ZN58_$LT$alloc..string..String$u20$as$u20$core..fmt..Debug$GT$3fmt17h502694cfa9999e1aE', symObjAddr: 0x7E38, symBinAddr: 0x1BA64, symSize: 0x80 }
  - { offsetInCU: 0x66E8, offset: 0x5B739, size: 0x8, addend: 0x0, symName: '__ZN58_$LT$alloc..string..String$u20$as$u20$core..fmt..Write$GT$10write_char17hc6f7efda1da68d37E', symObjAddr: 0x7EB8, symBinAddr: 0x1BAE4, symSize: 0x30 }
  - { offsetInCU: 0x6725, offset: 0x5B776, size: 0x8, addend: 0x0, symName: '__ZN58_$LT$alloc..string..String$u20$as$u20$core..fmt..Write$GT$9write_str17h2b4562fed76f8ed1E', symObjAddr: 0x7EE8, symBinAddr: 0x1BB14, symSize: 0x38 }
  - { offsetInCU: 0x6789, offset: 0x5B7DA, size: 0x8, addend: 0x0, symName: '__ZN60_$LT$alloc..string..String$u20$as$u20$core..fmt..Display$GT$3fmt17hd6f779e48daba90cE', symObjAddr: 0x8298, symBinAddr: 0x1BD4C, symSize: 0x80 }
  - { offsetInCU: 0x68EE, offset: 0x5B93F, size: 0x8, addend: 0x0, symName: '__ZN74_$LT$alloc..string..String$u20$as$u20$core..ops..index..Index$LT$I$GT$$GT$5index17h50aebbdd770d86a0E', symObjAddr: 0x87B0, symBinAddr: 0x1BE44, symSize: 0x7C }
  - { offsetInCU: 0x6F12, offset: 0x5BF63, size: 0x8, addend: 0x0, symName: '__ZN5alloc3str83_$LT$impl$u20$core..borrow..Borrow$LT$str$GT$$u20$for$u20$alloc..string..String$GT$6borrow17h368854e2c71c493eE', symObjAddr: 0x7F34, symBinAddr: 0x1BB4C, symSize: 0x2C }
  - { offsetInCU: 0x7306, offset: 0x5C357, size: 0x8, addend: 0x0, symName: __ZN3std4sync6poison4Flag4done17h2c9884057920e050E, symObjAddr: 0x660, symBinAddr: 0x19398, symSize: 0x8C }
  - { offsetInCU: 0x73F4, offset: 0x5C445, size: 0x8, addend: 0x0, symName: __ZN3std4sync6poison4Flag5guard17h652225d265984c9bE, symObjAddr: 0x6EC, symBinAddr: 0x19424, symSize: 0xCC }
  - { offsetInCU: 0x7855, offset: 0x5C8A6, size: 0x8, addend: 0x0, symName: __ZN5alloc6string6String4push17h6a416fabb91ed8e5E, symObjAddr: 0x7F74, symBinAddr: 0x1BB78, symSize: 0x114 }
  - { offsetInCU: 0x7B18, offset: 0x5CB69, size: 0x8, addend: 0x0, symName: __ZN5alloc6string6String6as_str17h73e1e107a798c802E, symObjAddr: 0x8088, symBinAddr: 0x1BC8C, symSize: 0x70 }
  - { offsetInCU: 0x7CE6, offset: 0x5CD37, size: 0x8, addend: 0x0, symName: __ZN5alloc6string6String8push_str17hac5af2825b150466E, symObjAddr: 0x80F8, symBinAddr: 0x1BCFC, symSize: 0x50 }
  - { offsetInCU: 0x1C64, offset: 0x5F61D, size: 0x8, addend: 0x0, symName: __ZN8pyo3_ffi11tupleobject13PyTuple_Check17h1defd6d84ea86ab5E, symObjAddr: 0x383C, symBinAddr: 0x1CBC8, symSize: 0x30 }
  - { offsetInCU: 0x27EA, offset: 0x601A3, size: 0x8, addend: 0x0, symName: '__ZN111_$LT$alloc..vec..Vec$LT$T$GT$$u20$as$u20$alloc..vec..spec_from_iter_nested..SpecFromIterNested$LT$T$C$I$GT$$GT$9from_iter17h70f9c0c5035f87b1E', symObjAddr: 0xA4, symBinAddr: 0x1C048, symSize: 0x24C }
  - { offsetInCU: 0x2A49, offset: 0x60402, size: 0x8, addend: 0x0, symName: '__ZN111_$LT$alloc..vec..Vec$LT$T$GT$$u20$as$u20$alloc..vec..spec_from_iter_nested..SpecFromIterNested$LT$T$C$I$GT$$GT$9from_iter17hc0fa7a97bd036d9bE', symObjAddr: 0x420, symBinAddr: 0x1C294, symSize: 0x24C }
  - { offsetInCU: 0x2CB4, offset: 0x6066D, size: 0x8, addend: 0x0, symName: '__ZN5alloc3vec16Vec$LT$T$C$A$GT$7set_len18precondition_check17h9a192936c5ea84f1E', symObjAddr: 0x2BB8, symBinAddr: 0x1C96C, symSize: 0x60 }
  - { offsetInCU: 0x2E29, offset: 0x607E2, size: 0x8, addend: 0x0, symName: '__ZN72_$LT$alloc..vec..Vec$LT$T$C$A$GT$$u20$as$u20$core..ops..deref..Deref$GT$5deref17h932416d872667cbbE', symObjAddr: 0x37F4, symBinAddr: 0x1CBA4, symSize: 0x24 }
  - { offsetInCU: 0x2E6F, offset: 0x60828, size: 0x8, addend: 0x0, symName: '__ZN67_$LT$alloc..vec..Vec$LT$T$GT$$u20$as$u20$core..default..Default$GT$7default17hfe283babe344d07dE', symObjAddr: 0x362C, symBinAddr: 0x1CB48, symSize: 0x14 }
  - { offsetInCU: 0x2E91, offset: 0x6084A, size: 0x8, addend: 0x0, symName: '__ZN67_$LT$alloc..vec..Vec$LT$T$GT$$u20$as$u20$core..default..Default$GT$7default17hfe283babe344d07dE', symObjAddr: 0x362C, symBinAddr: 0x1CB48, symSize: 0x14 }
  - { offsetInCU: 0x2EB2, offset: 0x6086B, size: 0x8, addend: 0x0, symName: '__ZN70_$LT$alloc..vec..Vec$LT$T$C$A$GT$$u20$as$u20$core..ops..drop..Drop$GT$4drop17h5ff84ca45317b380E', symObjAddr: 0x3688, symBinAddr: 0x1CB5C, symSize: 0x24 }
  - { offsetInCU: 0x2F62, offset: 0x6091B, size: 0x8, addend: 0x0, symName: '__ZN70_$LT$alloc..vec..Vec$LT$T$C$A$GT$$u20$as$u20$core..ops..drop..Drop$GT$4drop17h91e78fd21470b624E', symObjAddr: 0x3718, symBinAddr: 0x1CB80, symSize: 0x24 }
  - { offsetInCU: 0x3018, offset: 0x609D1, size: 0x8, addend: 0x0, symName: '__ZN90_$LT$alloc..vec..Vec$LT$T$C$A$GT$$u20$as$u20$core..iter..traits..collect..IntoIterator$GT$9into_iter17habd5cee1bfae5912E', symObjAddr: 0x386C, symBinAddr: 0x1CBF8, symSize: 0x98 }
  - { offsetInCU: 0x3201, offset: 0x60BBA, size: 0x8, addend: 0x0, symName: '__ZN95_$LT$alloc..vec..Vec$LT$T$GT$$u20$as$u20$core..iter..traits..collect..FromIterator$LT$T$GT$$GT$9from_iter17h40b9a0825519815fE', symObjAddr: 0x3A08, symBinAddr: 0x1CC90, symSize: 0x34 }
  - { offsetInCU: 0x3242, offset: 0x60BFB, size: 0x8, addend: 0x0, symName: '__ZN95_$LT$alloc..vec..Vec$LT$T$GT$$u20$as$u20$core..iter..traits..collect..FromIterator$LT$T$GT$$GT$9from_iter17hfe82dc67430429d8E', symObjAddr: 0x3A3C, symBinAddr: 0x1CCC4, symSize: 0x34 }
  - { offsetInCU: 0x328E, offset: 0x60C47, size: 0x8, addend: 0x0, symName: '__ZN97_$LT$alloc..vec..Vec$LT$T$C$A$GT$$u20$as$u20$alloc..vec..spec_extend..SpecExtend$LT$T$C$I$GT$$GT$11spec_extend17h35bd81e6402ebf19E', symObjAddr: 0x3A94, symBinAddr: 0x1CCF8, symSize: 0x24 }
  - { offsetInCU: 0x32E0, offset: 0x60C99, size: 0x8, addend: 0x0, symName: '__ZN97_$LT$alloc..vec..Vec$LT$T$C$A$GT$$u20$as$u20$alloc..vec..spec_extend..SpecExtend$LT$T$C$I$GT$$GT$11spec_extend17h75ef94f8e1c1343fE', symObjAddr: 0x3AE4, symBinAddr: 0x1CD1C, symSize: 0x24 }
  - { offsetInCU: 0x333E, offset: 0x60CF7, size: 0x8, addend: 0x0, symName: '__ZN98_$LT$alloc..vec..Vec$LT$T$GT$$u20$as$u20$alloc..vec..spec_from_iter..SpecFromIter$LT$T$C$I$GT$$GT$9from_iter17hadc353fa7e3336baE', symObjAddr: 0x3B08, symBinAddr: 0x1CD40, symSize: 0x14 }
  - { offsetInCU: 0x337D, offset: 0x60D36, size: 0x8, addend: 0x0, symName: '__ZN98_$LT$alloc..vec..Vec$LT$T$GT$$u20$as$u20$alloc..vec..spec_from_iter..SpecFromIter$LT$T$C$I$GT$$GT$9from_iter17hbb3818afe8519fd0E', symObjAddr: 0x3B30, symBinAddr: 0x1CD54, symSize: 0x14 }
  - { offsetInCU: 0x39FD, offset: 0x613B6, size: 0x8, addend: 0x0, symName: __ZN3std6thread6thread6Thread2id17h5591cf2a47f63ccdE, symObjAddr: 0xCB0, symBinAddr: 0x1C4E0, symSize: 0x1C }
  - { offsetInCU: 0x3BD7, offset: 0x61590, size: 0x8, addend: 0x0, symName: '__ZN5alloc3vec12Vec$LT$T$GT$3new17h538779652aba5aafE', symObjAddr: 0x10E0, symBinAddr: 0x1C4FC, symSize: 0x14 }
  - { offsetInCU: 0x3E59, offset: 0x61812, size: 0x8, addend: 0x0, symName: '__ZN5alloc3vec16Vec$LT$T$C$A$GT$16extend_desugared17h845e97fb6adad101E', symObjAddr: 0x1D04, symBinAddr: 0x1C510, symSize: 0x1C4 }
  - { offsetInCU: 0x4251, offset: 0x61C0A, size: 0x8, addend: 0x0, symName: '__ZN5alloc3vec16Vec$LT$T$C$A$GT$16extend_desugared17hadef0b66551f4b60E', symObjAddr: 0x1EC8, symBinAddr: 0x1C6D4, symSize: 0x1C4 }
  - { offsetInCU: 0x4519, offset: 0x61ED2, size: 0x8, addend: 0x0, symName: '__ZN5alloc3vec16Vec$LT$T$C$A$GT$4push17h6fa28bb44d66739aE', symObjAddr: 0x26E0, symBinAddr: 0x1C898, symSize: 0x2C }
  - { offsetInCU: 0x4680, offset: 0x62039, size: 0x8, addend: 0x0, symName: '__ZN5alloc3vec16Vec$LT$T$C$A$GT$7reserve17h327399d5048d8930E', symObjAddr: 0x29C0, symBinAddr: 0x1C8C4, symSize: 0xA8 }
  - { offsetInCU: 0x4865, offset: 0x6221E, size: 0x8, addend: 0x0, symName: '__ZN5alloc3vec16Vec$LT$T$C$A$GT$8as_slice17ha6301f40ba9b9f47E', symObjAddr: 0x2C18, symBinAddr: 0x1C9CC, symSize: 0x6C }
  - { offsetInCU: 0x4944, offset: 0x622FD, size: 0x8, addend: 0x0, symName: '__ZN5alloc3vec16Vec$LT$T$C$A$GT$8is_empty17h6774343b6ea78270E', symObjAddr: 0x2D2C, symBinAddr: 0x1CA38, symSize: 0x20 }
  - { offsetInCU: 0x49C9, offset: 0x62382, size: 0x8, addend: 0x0, symName: '__ZN5alloc3vec16Vec$LT$T$C$A$GT$8is_empty17ha91170dd444fd61dE', symObjAddr: 0x2D4C, symBinAddr: 0x1CA58, symSize: 0x20 }
  - { offsetInCU: 0x4B64, offset: 0x6251D, size: 0x8, addend: 0x0, symName: '__ZN5alloc3vec16Vec$LT$T$C$A$GT$8push_mut17h9ae0f471fc5c8f0bE', symObjAddr: 0x31D4, symBinAddr: 0x1CA78, symSize: 0xD0 }
  - { offsetInCU: 0x1E, offset: 0x6293C, size: 0x8, addend: 0x0, symName: '__ZN100_$LT$core..iter..adapters..take..Take$LT$I$GT$$u20$as$u20$core..iter..traits..iterator..Iterator$GT$4next17h6e9edb3085e608cdE', symObjAddr: 0x0, symBinAddr: 0x1CD68, symSize: 0x58 }
  - { offsetInCU: 0xDF9, offset: 0x63717, size: 0x8, addend: 0x0, symName: __ZN4core9panicking13panic_display17h21d5c87b39b448d2E, symObjAddr: 0x1428, symBinAddr: 0x1D350, symSize: 0x5C }
  - { offsetInCU: 0xEBA, offset: 0x637D8, size: 0x8, addend: 0x0, symName: '__ZN100_$LT$core..iter..adapters..take..Take$LT$I$GT$$u20$as$u20$core..iter..traits..iterator..Iterator$GT$4next17h6e9edb3085e608cdE', symObjAddr: 0x0, symBinAddr: 0x1CD68, symSize: 0x58 }
  - { offsetInCU: 0xEEF, offset: 0x6380D, size: 0x8, addend: 0x0, symName: '__ZN100_$LT$core..iter..adapters..take..Take$LT$I$GT$$u20$as$u20$core..iter..traits..iterator..Iterator$GT$9size_hint17h6861a9618a130c44E', symObjAddr: 0x118, symBinAddr: 0x1CDC0, symSize: 0x100 }
  - { offsetInCU: 0xFD5, offset: 0x638F3, size: 0x8, addend: 0x0, symName: '__ZN110_$LT$core..iter..adapters..enumerate..Enumerate$LT$I$GT$$u20$as$u20$core..iter..traits..iterator..Iterator$GT$4next17h6b055814ed047c13E', symObjAddr: 0x4DC, symBinAddr: 0x1CEC0, symSize: 0xEC }
  - { offsetInCU: 0x10BB, offset: 0x639D9, size: 0x8, addend: 0x0, symName: '__ZN110_$LT$core..iter..adapters..enumerate..Enumerate$LT$I$GT$$u20$as$u20$core..iter..traits..iterator..Iterator$GT$4next17h8d0586c08349c5abE', symObjAddr: 0x5C8, symBinAddr: 0x1CFAC, symSize: 0xE0 }
  - { offsetInCU: 0x11A1, offset: 0x63ABF, size: 0x8, addend: 0x0, symName: '__ZN110_$LT$core..iter..adapters..enumerate..Enumerate$LT$I$GT$$u20$as$u20$core..iter..traits..iterator..Iterator$GT$4next17he014f4df058d22c0E', symObjAddr: 0x6A8, symBinAddr: 0x1D08C, symSize: 0xEC }
  - { offsetInCU: 0x1394, offset: 0x63CB2, size: 0x8, addend: 0x0, symName: __ZN4core4iter6traits8iterator8Iterator3zip17hb10c27d23820d17aE, symObjAddr: 0x10C8, symBinAddr: 0x1D278, symSize: 0xB0 }
  - { offsetInCU: 0x1416, offset: 0x63D34, size: 0x8, addend: 0x0, symName: '__ZN63_$LT$I$u20$as$u20$core..iter..traits..collect..IntoIterator$GT$9into_iter17h11ed808cc02e2db0E', symObjAddr: 0x8048, symBinAddr: 0x1DC9C, symSize: 0x14 }
  - { offsetInCU: 0x144D, offset: 0x63D6B, size: 0x8, addend: 0x0, symName: '__ZN63_$LT$I$u20$as$u20$core..iter..traits..collect..IntoIterator$GT$9into_iter17h38fdaa1b7589a52fE', symObjAddr: 0x8074, symBinAddr: 0x1DCB0, symSize: 0x14 }
  - { offsetInCU: 0x1484, offset: 0x63DA2, size: 0x8, addend: 0x0, symName: '__ZN63_$LT$I$u20$as$u20$core..iter..traits..collect..IntoIterator$GT$9into_iter17h5a24fd6bb174990cE', symObjAddr: 0x80A0, symBinAddr: 0x1DCC4, symSize: 0x18 }
  - { offsetInCU: 0x1610, offset: 0x63F2E, size: 0x8, addend: 0x0, symName: '__ZN4core3ops8function5impls79_$LT$impl$u20$core..ops..function..FnMut$LT$A$GT$$u20$for$u20$$RF$mut$u20$F$GT$8call_mut17h3fcf13bfc42c6defE', symObjAddr: 0x1058, symBinAddr: 0x1D208, symSize: 0x38 }
  - { offsetInCU: 0x165F, offset: 0x63F7D, size: 0x8, addend: 0x0, symName: '__ZN4core3ops8function5impls79_$LT$impl$u20$core..ops..function..FnMut$LT$A$GT$$u20$for$u20$$RF$mut$u20$F$GT$8call_mut17ha3ed6c6c54b601e6E', symObjAddr: 0x1090, symBinAddr: 0x1D240, symSize: 0x38 }
  - { offsetInCU: 0x1B02, offset: 0x64420, size: 0x8, addend: 0x0, symName: '__ZN4core5slice29_$LT$impl$u20$$u5b$T$u5d$$GT$4iter17hfcd74bfde739e7deE', symObjAddr: 0x12D4, symBinAddr: 0x1D328, symSize: 0x28 }
  - { offsetInCU: 0x1FBA, offset: 0x648D8, size: 0x8, addend: 0x0, symName: __ZN5alloc3fmt6format17hab8f6f2ffc234f92E, symObjAddr: 0x7F40, symBinAddr: 0x1DB94, symSize: 0xD8 }
  - { offsetInCU: 0x206E, offset: 0x6498C, size: 0x8, addend: 0x0, symName: '__ZN5alloc3fmt6format28_$u7b$$u7b$closure$u7d$$u7d$17h49fd7078e2d7d878E', symObjAddr: 0x8018, symBinAddr: 0x1DC6C, symSize: 0x30 }
  - { offsetInCU: 0x2A13, offset: 0x65331, size: 0x8, addend: 0x0, symName: '__ZN4pyo35impl_16extract_argument19FunctionDescription34missing_required_keyword_arguments28_$u7b$$u7b$closure$u7d$$u7d$17h888bfe40b51e0fe2E', symObjAddr: 0x3118, symBinAddr: 0x1D41C, symSize: 0x84 }
  - { offsetInCU: 0x2A83, offset: 0x653A1, size: 0x8, addend: 0x0, symName: '__ZN4pyo35impl_16extract_argument19FunctionDescription37missing_required_positional_arguments28_$u7b$$u7b$closure$u7d$$u7d$17heec570d5e5f85a9fE', symObjAddr: 0x32E4, symBinAddr: 0x1D4A0, symSize: 0x78 }
  - { offsetInCU: 0x2AEF, offset: 0x6540D, size: 0x8, addend: 0x0, symName: __ZN4pyo35impl_16extract_argument19push_parameter_list17hfc8904805b94f1b3E, symObjAddr: 0x3468, symBinAddr: 0x1D624, symSize: 0x16C }
  - { offsetInCU: 0x2B7B, offset: 0x65499, size: 0x8, addend: 0x0, symName: __ZN4pyo35impl_16extract_argument25argument_extraction_error17h15cf6a72ee73cd25E, symObjAddr: 0x35D4, symBinAddr: 0x52868, symSize: 0x230 }
  - { offsetInCU: 0x2C59, offset: 0x65577, size: 0x8, addend: 0x0, symName: '__ZN152_$LT$core..result..Result$LT$pyo3..instance..Bound$LT$pyo3..types..any..PyAny$GT$$C$pyo3..err..PyErr$GT$$u20$as$u20$pyo3..py_result_ext..PyResultExt$GT$19cast_into_unchecked28_$u7b$$u7b$closure$u7d$$u7d$17h53f4564164528c96E', symObjAddr: 0xAF4, symBinAddr: 0x1D178, symSize: 0x24 }
  - { offsetInCU: 0x2C98, offset: 0x655B6, size: 0x8, addend: 0x0, symName: '__ZN152_$LT$core..result..Result$LT$pyo3..instance..Bound$LT$pyo3..types..any..PyAny$GT$$C$pyo3..err..PyErr$GT$$u20$as$u20$pyo3..py_result_ext..PyResultExt$GT$19cast_into_unchecked28_$u7b$$u7b$closure$u7d$$u7d$17h8dcc30908f5c9891E', symObjAddr: 0xB60, symBinAddr: 0x1D19C, symSize: 0x24 }
  - { offsetInCU: 0x2CD7, offset: 0x655F5, size: 0x8, addend: 0x0, symName: '__ZN152_$LT$core..result..Result$LT$pyo3..instance..Bound$LT$pyo3..types..any..PyAny$GT$$C$pyo3..err..PyErr$GT$$u20$as$u20$pyo3..py_result_ext..PyResultExt$GT$19cast_into_unchecked28_$u7b$$u7b$closure$u7d$$u7d$17hd53fc4a2dc30a8abE', symObjAddr: 0xBF0, symBinAddr: 0x1D1C0, symSize: 0x24 }
  - { offsetInCU: 0x2D16, offset: 0x65634, size: 0x8, addend: 0x0, symName: '__ZN152_$LT$core..result..Result$LT$pyo3..instance..Bound$LT$pyo3..types..any..PyAny$GT$$C$pyo3..err..PyErr$GT$$u20$as$u20$pyo3..py_result_ext..PyResultExt$GT$19cast_into_unchecked28_$u7b$$u7b$closure$u7d$$u7d$17hdd855e59c79341eeE', symObjAddr: 0xC14, symBinAddr: 0x1D1E4, symSize: 0x24 }
  - { offsetInCU: 0x2E0E, offset: 0x6572C, size: 0x8, addend: 0x0, symName: '__ZN78_$LT$pyo3..err..cast_error..DisplayCastError$u20$as$u20$core..fmt..Display$GT$3fmt17hdbbb378fb3db96caE', symObjAddr: 0x82E8, symBinAddr: 0x1DCDC, symSize: 0x244 }
  - { offsetInCU: 0x2F0E, offset: 0x6582C, size: 0x8, addend: 0x0, symName: '__ZN78_$LT$pyo3..err..cast_error..DisplayCastError$u20$as$u20$core..fmt..Display$GT$3fmt28_$u7b$$u7b$closure$u7d$$u7d$17h9863cdb5bbba3753E', symObjAddr: 0x852C, symBinAddr: 0x1DF20, symSize: 0x24 }
  - { offsetInCU: 0x2F52, offset: 0x65870, size: 0x8, addend: 0x0, symName: '__ZN78_$LT$pyo3..err..cast_error..DisplayClassInfo$u20$as$u20$core..fmt..Display$GT$3fmt17h1b10d2fcccf6c8c6E', symObjAddr: 0x8550, symBinAddr: 0x1DF44, symSize: 0x520 }
  - { offsetInCU: 0x308B, offset: 0x659A9, size: 0x8, addend: 0x0, symName: '__ZN78_$LT$pyo3..err..cast_error..DisplayClassInfo$u20$as$u20$core..fmt..Display$GT$3fmt28_$u7b$$u7b$closure$u7d$$u7d$17h0cc61ccc8ff120e5E', symObjAddr: 0x8A70, symBinAddr: 0x1E464, symSize: 0x1C }
  - { offsetInCU: 0x30C8, offset: 0x659E6, size: 0x8, addend: 0x0, symName: '__ZN87_$LT$pyo3..err..cast_error..CastErrorArguments$u20$as$u20$pyo3..err..PyErrArguments$GT$9arguments17he6eb422f4e2d0ab9E', symObjAddr: 0x8A8C, symBinAddr: 0x1E480, symSize: 0x1AC }
  - { offsetInCU: 0x374C, offset: 0x6606A, size: 0x8, addend: 0x0, symName: __ZN4pyo33err10cast_error13CastIntoError10into_inner17hb1d4fdd14e94b0e2E, symObjAddr: 0x1D78, symBinAddr: 0x1D3AC, symSize: 0x38 }
  - { offsetInCU: 0x376E, offset: 0x6608C, size: 0x8, addend: 0x0, symName: __ZN4pyo33err10cast_error13CastIntoError3new17hec1754ea4dd6d2e2E, symObjAddr: 0x1DB0, symBinAddr: 0x1D3E4, symSize: 0x1C }
  - { offsetInCU: 0x379E, offset: 0x660BC, size: 0x8, addend: 0x0, symName: __ZN4pyo33err10cast_error9CastError3new17h012a4d31ba180453E, symObjAddr: 0x1DCC, symBinAddr: 0x1D400, symSize: 0x1C }
  - { offsetInCU: 0x387E, offset: 0x6619C, size: 0x8, addend: 0x0, symName: __ZN4pyo35impl_16extract_argument19FunctionDescription26missing_required_arguments17h8a1ca86c74a32a00E, symObjAddr: 0x271C, symBinAddr: 0x51D24, symSize: 0x1F8 }
  - { offsetInCU: 0x3943, offset: 0x66261, size: 0x8, addend: 0x0, symName: __ZN4pyo35impl_16extract_argument19FunctionDescription27unexpected_keyword_argument17ha446c75b6aa216d2E, symObjAddr: 0x2914, symBinAddr: 0x51F1C, symSize: 0x124 }
  - { offsetInCU: 0x39D1, offset: 0x662EF, size: 0x8, addend: 0x0, symName: __ZN4pyo35impl_16extract_argument19FunctionDescription28multiple_values_for_argument17he0ade5132bc56083E, symObjAddr: 0x2A38, symBinAddr: 0x52040, symSize: 0x110 }
  - { offsetInCU: 0x3A57, offset: 0x66375, size: 0x8, addend: 0x0, symName: __ZN4pyo35impl_16extract_argument19FunctionDescription29too_many_positional_arguments17h798873763321ef0cE, symObjAddr: 0x2B48, symBinAddr: 0x52150, symSize: 0x304 }
  - { offsetInCU: 0x3B6A, offset: 0x66488, size: 0x8, addend: 0x0, symName: __ZN4pyo35impl_16extract_argument19FunctionDescription33positional_only_keyword_arguments17ha1c2a0dc9b4e9c9bE, symObjAddr: 0x2E4C, symBinAddr: 0x52454, symSize: 0x148 }
  - { offsetInCU: 0x3C2D, offset: 0x6654B, size: 0x8, addend: 0x0, symName: __ZN4pyo35impl_16extract_argument19FunctionDescription34missing_required_keyword_arguments17h5b23cf813c543467E, symObjAddr: 0x2F94, symBinAddr: 0x5259C, symSize: 0x184 }
  - { offsetInCU: 0x3CC4, offset: 0x665E2, size: 0x8, addend: 0x0, symName: __ZN4pyo35impl_16extract_argument19FunctionDescription37missing_required_positional_arguments17h23fb01efdb03cd71E, symObjAddr: 0x319C, symBinAddr: 0x52720, symSize: 0x148 }
  - { offsetInCU: 0x3D0D, offset: 0x6662B, size: 0x8, addend: 0x0, symName: __ZN4pyo35impl_16extract_argument19FunctionDescription9full_name17h07acfbf3458e2199E, symObjAddr: 0x335C, symBinAddr: 0x1D518, symSize: 0x10C }
  - { offsetInCU: 0x3E80, offset: 0x6679E, size: 0x8, addend: 0x0, symName: __ZN4pyo36marker6Python15assume_attached17h0efc58f1d52132dfE, symObjAddr: 0x4EB4, symBinAddr: 0x1D790, symSize: 0x4 }
  - { offsetInCU: 0x3EA0, offset: 0x667BE, size: 0x8, addend: 0x0, symName: __ZN4pyo36marker6Python4None17hb1890f1f59606bcdE, symObjAddr: 0x5078, symBinAddr: 0x1D794, symSize: 0x28 }
  - { offsetInCU: 0x3EDC, offset: 0x667FA, size: 0x8, addend: 0x0, symName: __ZN4pyo36marker6Python6attach17h303931f7d65001f5E, symObjAddr: 0x51C0, symBinAddr: 0x1D7BC, symSize: 0xE8 }
  - { offsetInCU: 0x3F27, offset: 0x66845, size: 0x8, addend: 0x0, symName: __ZN4pyo36marker6Python6attach17h7f8121db61b9f341E, symObjAddr: 0x52A8, symBinAddr: 0x1D8A4, symSize: 0xE8 }
  - { offsetInCU: 0x3F72, offset: 0x66890, size: 0x8, addend: 0x0, symName: __ZN4pyo36marker6Python6attach17hb89c7c78a1c431c3E, symObjAddr: 0x5390, symBinAddr: 0x1D98C, symSize: 0xFC }
  - { offsetInCU: 0x3FCB, offset: 0x668E9, size: 0x8, addend: 0x0, symName: __ZN4pyo36marker6Python6detach17he8ad37ab1ff4cf0aE, symObjAddr: 0x5568, symBinAddr: 0x1DA88, symSize: 0xB0 }
  - { offsetInCU: 0x4046, offset: 0x66964, size: 0x8, addend: 0x0, symName: __ZN4pyo36marker6Python6import17h29bef3394e6baefbE, symObjAddr: 0x5618, symBinAddr: 0x1DB38, symSize: 0x24 }
  - { offsetInCU: 0x408D, offset: 0x669AB, size: 0x8, addend: 0x0, symName: __ZN4pyo36marker6Python8get_type17h1a961fd37da0c46aE, symObjAddr: 0x56B0, symBinAddr: 0x1DB5C, symSize: 0x1C }
  - { offsetInCU: 0x40C5, offset: 0x669E3, size: 0x8, addend: 0x0, symName: __ZN4pyo36marker6Python8get_type17h850dd304ccb75f14E, symObjAddr: 0x56CC, symBinAddr: 0x1DB78, symSize: 0x1C }
  - { offsetInCU: 0x3A7, offset: 0x67188, size: 0x8, addend: 0x0, symName: '__ZN87_$LT$$BP$mut$u20$pyo3_ffi..object..PyObject$u20$as$u20$pyo3..ffi_ptr_ext..FfiPtrExt$GT$12assume_owned17h685c8a02de30d544E', symObjAddr: 0x4540, symBinAddr: 0x1ED50, symSize: 0x24 }
  - { offsetInCU: 0x3EC, offset: 0x671CD, size: 0x8, addend: 0x0, symName: '__ZN87_$LT$$BP$mut$u20$pyo3_ffi..object..PyObject$u20$as$u20$pyo3..ffi_ptr_ext..FfiPtrExt$GT$19assume_owned_or_err17hbd89504b3fed6bceE', symObjAddr: 0x4588, symBinAddr: 0x1ED74, symSize: 0x24 }
  - { offsetInCU: 0x431, offset: 0x67212, size: 0x8, addend: 0x0, symName: '__ZN87_$LT$$BP$mut$u20$pyo3_ffi..object..PyObject$u20$as$u20$pyo3..ffi_ptr_ext..FfiPtrExt$GT$19assume_owned_or_opt17h5e8777c577c4014bE', symObjAddr: 0x45AC, symBinAddr: 0x1ED98, symSize: 0x24 }
  - { offsetInCU: 0x476, offset: 0x67257, size: 0x8, addend: 0x0, symName: '__ZN87_$LT$$BP$mut$u20$pyo3_ffi..object..PyObject$u20$as$u20$pyo3..ffi_ptr_ext..FfiPtrExt$GT$22assume_borrowed_or_err17h6c64af8df569f82cE', symObjAddr: 0x45D0, symBinAddr: 0x1EDBC, symSize: 0x24 }
  - { offsetInCU: 0x4BB, offset: 0x6729C, size: 0x8, addend: 0x0, symName: '__ZN87_$LT$$BP$mut$u20$pyo3_ffi..object..PyObject$u20$as$u20$pyo3..ffi_ptr_ext..FfiPtrExt$GT$25assume_borrowed_unchecked17hb5bd321a34873e83E', symObjAddr: 0x4618, symBinAddr: 0x1EDE0, symSize: 0x24 }
  - { offsetInCU: 0xCE7, offset: 0x67AC8, size: 0x8, addend: 0x0, symName: __ZN4core3ptr19copy_nonoverlapping18precondition_check17hbde27a8a44f692fbE, symObjAddr: 0xEF0, symBinAddr: 0x1E674, symSize: 0x168 }
  - { offsetInCU: 0xEA6, offset: 0x67C87, size: 0x8, addend: 0x0, symName: '__ZN4core3ptr7mut_ptr31_$LT$impl$u20$$BP$mut$u20$T$GT$7is_null17h4a8c2cac57f22a46E', symObjAddr: 0x1758, symBinAddr: 0x1E7DC, symSize: 0x18 }
  - { offsetInCU: 0x1BAD, offset: 0x6898E, size: 0x8, addend: 0x0, symName: '__ZN185_$LT$core..ops..control_flow..ControlFlow$LT$B$C$C$GT$$u20$as$u20$core..ops..try_trait..FromResidual$LT$core..ops..control_flow..ControlFlow$LT$B$C$core..convert..Infallible$GT$$GT$$GT$13from_residual17h9fc5b582be6435aaE', symObjAddr: 0x3B4, symBinAddr: 0x1E62C, symSize: 0x18 }
  - { offsetInCU: 0x1BF1, offset: 0x689D2, size: 0x8, addend: 0x0, symName: '__ZN95_$LT$core..ops..control_flow..ControlFlow$LT$B$C$C$GT$$u20$as$u20$core..ops..try_trait..Try$GT$11from_output17haa7ca611bfc67e30E', symObjAddr: 0x48D4, symBinAddr: 0x1F060, symSize: 0x10 }
  - { offsetInCU: 0x1C2F, offset: 0x68A10, size: 0x8, addend: 0x0, symName: '__ZN95_$LT$core..ops..control_flow..ControlFlow$LT$B$C$C$GT$$u20$as$u20$core..ops..try_trait..Try$GT$6branch17h80da68d97b5d48a1E', symObjAddr: 0x48E4, symBinAddr: 0x1F070, symSize: 0x54 }
  - { offsetInCU: 0x1E25, offset: 0x68C06, size: 0x8, addend: 0x0, symName: '__ZN44_$LT$$RF$T$u20$as$u20$core..fmt..Display$GT$3fmt17h6ce652025cf263aaE', symObjAddr: 0x9F0, symBinAddr: 0x1E644, symSize: 0x30 }
  - { offsetInCU: 0x1FF7, offset: 0x68DD8, size: 0x8, addend: 0x0, symName: '__ZN50_$LT$T$u20$as$u20$core..convert..Into$LT$U$GT$$GT$4into17h78427997cb7d5de4E', symObjAddr: 0x2658, symBinAddr: 0x1E7F4, symSize: 0x14 }
  - { offsetInCU: 0x2085, offset: 0x68E66, size: 0x8, addend: 0x0, symName: __ZN8pyo3_ffi6object10Py_IS_TYPE17hc1dd5b137a12e74cE, symObjAddr: 0x466C, symBinAddr: 0x1EE04, symSize: 0x38 }
  - { offsetInCU: 0x20BF, offset: 0x68EA0, size: 0x8, addend: 0x0, symName: __ZN8pyo3_ffi6object12PyType_Check17hd4e9465e372304dfE, symObjAddr: 0x46A4, symBinAddr: 0x1EE3C, symSize: 0x30 }
  - { offsetInCU: 0x20ED, offset: 0x68ECE, size: 0x8, addend: 0x0, symName: __ZN8pyo3_ffi6object17PyType_HasFeature17hc7d509f1f3e13399E, symObjAddr: 0x46D4, symBinAddr: 0x1EE6C, symSize: 0x3C }
  - { offsetInCU: 0x2148, offset: 0x68F29, size: 0x8, addend: 0x0, symName: __ZN8pyo3_ffi6object18PyObject_TypeCheck17h19ebced5d09888cdE, symObjAddr: 0x471C, symBinAddr: 0x1EEA8, symSize: 0x70 }
  - { offsetInCU: 0x2185, offset: 0x68F66, size: 0x8, addend: 0x0, symName: __ZN8pyo3_ffi6object19PyType_FastSubclass17h916a0bf97ea9a101E, symObjAddr: 0x478C, symBinAddr: 0x1EF18, symSize: 0x28 }
  - { offsetInCU: 0x21C2, offset: 0x68FA3, size: 0x8, addend: 0x0, symName: __ZN8pyo3_ffi6object7Py_None17he147eb67cad76723E, symObjAddr: 0x47B4, symBinAddr: 0x1EF40, symSize: 0xC }
  - { offsetInCU: 0x21E0, offset: 0x68FC1, size: 0x8, addend: 0x0, symName: __ZN8pyo3_ffi6object7Py_TYPE17h758190d95da949bfE, symObjAddr: 0x47C0, symBinAddr: 0x1EF4C, symSize: 0x74 }
  - { offsetInCU: 0x287E, offset: 0x6965F, size: 0x8, addend: 0x0, symName: '__ZN72_$LT$alloc..boxed..Box$LT$T$C$A$GT$$u20$as$u20$core..ops..drop..Drop$GT$4drop17h1061cf3454428ef5E', symObjAddr: 0x3B50, symBinAddr: 0x1E9A4, symSize: 0xC4 }
  - { offsetInCU: 0x29B7, offset: 0x69798, size: 0x8, addend: 0x0, symName: '__ZN72_$LT$alloc..boxed..Box$LT$T$C$A$GT$$u20$as$u20$core..ops..drop..Drop$GT$4drop17h2376e3caea7ecb7eE', symObjAddr: 0x3CD8, symBinAddr: 0x1EA68, symSize: 0xC4 }
  - { offsetInCU: 0x2AF0, offset: 0x698D1, size: 0x8, addend: 0x0, symName: '__ZN72_$LT$alloc..boxed..Box$LT$T$C$A$GT$$u20$as$u20$core..ops..drop..Drop$GT$4drop17h93d720c223858b9dE', symObjAddr: 0x3E4C, symBinAddr: 0x1EB2C, symSize: 0xB0 }
  - { offsetInCU: 0x2C29, offset: 0x69A0A, size: 0x8, addend: 0x0, symName: '__ZN72_$LT$alloc..boxed..Box$LT$T$C$A$GT$$u20$as$u20$core..ops..drop..Drop$GT$4drop17hbb55b362d0a38136E', symObjAddr: 0x4068, symBinAddr: 0x1EBDC, symSize: 0xB0 }
  - { offsetInCU: 0x2D62, offset: 0x69B43, size: 0x8, addend: 0x0, symName: '__ZN72_$LT$alloc..boxed..Box$LT$T$C$A$GT$$u20$as$u20$core..ops..drop..Drop$GT$4drop17hdd909ac37e1d00e2E', symObjAddr: 0x41C8, symBinAddr: 0x1EC8C, symSize: 0xC4 }
  - { offsetInCU: 0x2EA1, offset: 0x69C82, size: 0x8, addend: 0x0, symName: '__ZN90_$LT$alloc..boxed..Box$LT$F$C$A$GT$$u20$as$u20$core..ops..function..FnOnce$LT$Args$GT$$GT$9call_once17hd3d41ef23230ac2bE', symObjAddr: 0x4834, symBinAddr: 0x1EFC0, symSize: 0xA0 }
  - { offsetInCU: 0x2F9D, offset: 0x69D7E, size: 0x8, addend: 0x0, symName: __ZN5alloc6borrow3Cow8Borrowed17hca2275350ad23ad3E, symObjAddr: 0x2CF4, symBinAddr: 0x1E87C, symSize: 0x2C }
  - { offsetInCU: 0x2FD5, offset: 0x69DB6, size: 0x8, addend: 0x0, symName: '__ZN71_$LT$alloc..borrow..Cow$LT$B$GT$$u20$as$u20$core..ops..deref..Deref$GT$5deref17h2e8a98d32628c94dE', symObjAddr: 0x378C, symBinAddr: 0x1E92C, symSize: 0x78 }
  - { offsetInCU: 0x3030, offset: 0x69E11, size: 0x8, addend: 0x0, symName: '__ZN66_$LT$alloc..borrow..Cow$LT$B$GT$$u20$as$u20$core..fmt..Display$GT$3fmt17hb2e5a87529265d30E', symObjAddr: 0x2EF4, symBinAddr: 0x1E8A8, symSize: 0x84 }
  - { offsetInCU: 0x3422, offset: 0x6A203, size: 0x8, addend: 0x0, symName: '__ZN5alloc6borrow12Cow$LT$B$GT$10into_owned17h278fff0edc0193d9E', symObjAddr: 0x2C50, symBinAddr: 0x1E808, symSize: 0x74 }
  - { offsetInCU: 0x1E, offset: 0x6A716, size: 0x8, addend: 0x0, symName: '__ZN3std3sys4sync8once_box16OnceBox$LT$T$GT$10initialize17h4611a413cc6f93aeE', symObjAddr: 0x0, symBinAddr: 0x52A98, symSize: 0xD8 }
  - { offsetInCU: 0x7FD, offset: 0x6AEF5, size: 0x8, addend: 0x0, symName: '__ZN4core4iter6traits8iterator8Iterator8find_map5check28_$u7b$$u7b$closure$u7d$$u7d$17hecdb5229b2a389c4E', symObjAddr: 0x390, symBinAddr: 0x1F1D0, symSize: 0x7C }
  - { offsetInCU: 0x880, offset: 0x6AF78, size: 0x8, addend: 0x0, symName: '__ZN4core4iter6traits8iterator8Iterator8find_map5check28_$u7b$$u7b$closure$u7d$$u7d$17hfbcb84899a5804a7E', symObjAddr: 0x40C, symBinAddr: 0x1F24C, symSize: 0x7C }
  - { offsetInCU: 0x9F9, offset: 0x6B0F1, size: 0x8, addend: 0x0, symName: __ZN8pyo3_ffi10listobject12PyList_Check17hfe0d29a7f66d273bE, symObjAddr: 0x7F0, symBinAddr: 0x1F33C, symSize: 0x30 }
  - { offsetInCU: 0xB36, offset: 0x6B22E, size: 0x8, addend: 0x0, symName: '__ZN84_$LT$std..sys..sync..once_box..OnceBox$LT$T$GT$$u20$as$u20$core..ops..drop..Drop$GT$4drop17ha65a9fe450801d0cE', symObjAddr: 0x77C, symBinAddr: 0x1F2C8, symSize: 0x74 }
  - { offsetInCU: 0xF5E, offset: 0x6B656, size: 0x8, addend: 0x0, symName: '__ZN3std3sys4sync8once_box16OnceBox$LT$T$GT$10initialize17h4611a413cc6f93aeE', symObjAddr: 0x0, symBinAddr: 0x52A98, symSize: 0xD8 }
  - { offsetInCU: 0x1135, offset: 0x6B82D, size: 0x8, addend: 0x0, symName: '__ZN3std3sys4sync8once_box16OnceBox$LT$T$GT$11get_or_init17heef8652ed6f819c8E', symObjAddr: 0xD8, symBinAddr: 0x1F0C4, symSize: 0xB4 }
  - { offsetInCU: 0x1215, offset: 0x6B90D, size: 0x8, addend: 0x0, symName: '__ZN4core4cell13Cell$LT$T$GT$3get17h178c079aa9190bf7E', symObjAddr: 0x280, symBinAddr: 0x1F178, symSize: 0x18 }
  - { offsetInCU: 0x1269, offset: 0x6B961, size: 0x8, addend: 0x0, symName: '__ZN4core4cell13Cell$LT$T$GT$3set17h080cf55527100f4bE', symObjAddr: 0x298, symBinAddr: 0x1F190, symSize: 0x1C }
  - { offsetInCU: 0x12DF, offset: 0x6B9D7, size: 0x8, addend: 0x0, symName: '__ZN4core4cell13Cell$LT$T$GT$7replace17h2e0a21d874fdd301E', symObjAddr: 0x2B4, symBinAddr: 0x1F1AC, symSize: 0x24 }
  - { offsetInCU: 0x1E, offset: 0x6BB4F, size: 0x8, addend: 0x0, symName: '__ZN115_$LT$core..iter..adapters..filter_map..FilterMap$LT$I$C$F$GT$$u20$as$u20$core..iter..traits..iterator..Iterator$GT$4next17h77c1bb1e9620a101E', symObjAddr: 0x0, symBinAddr: 0x1F36C, symSize: 0x2C }
  - { offsetInCU: 0x52, offset: 0x6BB83, size: 0x8, addend: 0x0, symName: '__ZN3std4sync4once4Once15call_once_force28_$u7b$$u7b$closure$u7d$$u7d$17h09f91b1c6f52ed92E', symObjAddr: 0x594, symBinAddr: 0x1F728, symSize: 0x68 }
  - { offsetInCU: 0xE4, offset: 0x6BC15, size: 0x8, addend: 0x0, symName: '__ZN3std4sync4once4Once15call_once_force28_$u7b$$u7b$closure$u7d$$u7d$17h474e2d67c3b998cbE', symObjAddr: 0x704, symBinAddr: 0x1F790, symSize: 0x68 }
  - { offsetInCU: 0x176, offset: 0x6BCA7, size: 0x8, addend: 0x0, symName: '__ZN3std4sync4once4Once15call_once_force28_$u7b$$u7b$closure$u7d$$u7d$17h91adeac2d789fd50E', symObjAddr: 0x76C, symBinAddr: 0x1F7F8, symSize: 0x84 }
  - { offsetInCU: 0x20E, offset: 0x6BD3F, size: 0x8, addend: 0x0, symName: '__ZN3std4sync4once4Once9call_once28_$u7b$$u7b$closure$u7d$$u7d$17h9c6dc38b0672ac28E', symObjAddr: 0xA9C, symBinAddr: 0x1FB28, symSize: 0x60 }
  - { offsetInCU: 0x29C, offset: 0x6BDCD, size: 0x8, addend: 0x0, symName: '__ZN3std4sync4once4Once9call_once28_$u7b$$u7b$closure$u7d$$u7d$17hcb737198a83a470dE', symObjAddr: 0xAFC, symBinAddr: 0x1FB88, symSize: 0x68 }
  - { offsetInCU: 0x32A, offset: 0x6BE5B, size: 0x8, addend: 0x0, symName: '__ZN3std4sync4once4Once9call_once28_$u7b$$u7b$closure$u7d$$u7d$17he388aba6414acd65E', symObjAddr: 0xB64, symBinAddr: 0x1FBF0, symSize: 0x60 }
  - { offsetInCU: 0x1FA0, offset: 0x6DAD1, size: 0x8, addend: 0x0, symName: '__ZN115_$LT$core..iter..adapters..filter_map..FilterMap$LT$I$C$F$GT$$u20$as$u20$core..iter..traits..iterator..Iterator$GT$4next17h77c1bb1e9620a101E', symObjAddr: 0x0, symBinAddr: 0x1F36C, symSize: 0x2C }
  - { offsetInCU: 0x1FE7, offset: 0x6DB18, size: 0x8, addend: 0x0, symName: '__ZN115_$LT$core..iter..adapters..filter_map..FilterMap$LT$I$C$F$GT$$u20$as$u20$core..iter..traits..iterator..Iterator$GT$4next17hd6dcaab4e12a22e1E', symObjAddr: 0x2C, symBinAddr: 0x1F398, symSize: 0x2C }
  - { offsetInCU: 0x202E, offset: 0x6DB5F, size: 0x8, addend: 0x0, symName: '__ZN115_$LT$core..iter..adapters..filter_map..FilterMap$LT$I$C$F$GT$$u20$as$u20$core..iter..traits..iterator..Iterator$GT$9size_hint17h4d2663b5abb58e3eE', symObjAddr: 0x58, symBinAddr: 0x1F3C4, symSize: 0x4C }
  - { offsetInCU: 0x2092, offset: 0x6DBC3, size: 0x8, addend: 0x0, symName: '__ZN115_$LT$core..iter..adapters..filter_map..FilterMap$LT$I$C$F$GT$$u20$as$u20$core..iter..traits..iterator..Iterator$GT$9size_hint17h760f7e367108eb7fE', symObjAddr: 0xA4, symBinAddr: 0x1F410, symSize: 0x4C }
  - { offsetInCU: 0x223A, offset: 0x6DD6B, size: 0x8, addend: 0x0, symName: __ZN4core4iter6traits8iterator8Iterator7collect17hab4dfb34cbd2165dE, symObjAddr: 0x1564, symBinAddr: 0x1FC50, symSize: 0x14 }
  - { offsetInCU: 0x227B, offset: 0x6DDAC, size: 0x8, addend: 0x0, symName: __ZN4core4iter6traits8iterator8Iterator7collect17hb48a0eb0ede38965E, symObjAddr: 0x1578, symBinAddr: 0x1FC64, symSize: 0x14 }
  - { offsetInCU: 0x22C8, offset: 0x6DDF9, size: 0x8, addend: 0x0, symName: '__ZN63_$LT$I$u20$as$u20$core..iter..traits..collect..IntoIterator$GT$9into_iter17h518666ebb83b8bbfE', symObjAddr: 0x510C, symBinAddr: 0x200EC, symSize: 0x30 }
  - { offsetInCU: 0x2300, offset: 0x6DE31, size: 0x8, addend: 0x0, symName: '__ZN63_$LT$I$u20$as$u20$core..iter..traits..collect..IntoIterator$GT$9into_iter17h947754f43211785bE', symObjAddr: 0x513C, symBinAddr: 0x2011C, symSize: 0x30 }
  - { offsetInCU: 0x2395, offset: 0x6DEC6, size: 0x8, addend: 0x0, symName: __ZN4core5alloc6layout6Layout25from_size_align_unchecked18precondition_check17h3389156bbebdb665E, symObjAddr: 0x158C, symBinAddr: 0x1FC78, symSize: 0x70 }
  - { offsetInCU: 0x2475, offset: 0x6DFA6, size: 0x8, addend: 0x0, symName: '__ZN4core5slice29_$LT$impl$u20$$u5b$T$u5d$$GT$4iter17h955d1b83952fc70bE', symObjAddr: 0x19A4, symBinAddr: 0x1FCE8, symSize: 0x28 }
  - { offsetInCU: 0x2565, offset: 0x6E096, size: 0x8, addend: 0x0, symName: '__ZN4core7convert3num71_$LT$impl$u20$core..convert..TryFrom$LT$usize$GT$$u20$for$u20$isize$GT$8try_from17hfc36c87b38a6d3f7E', symObjAddr: 0x2234, symBinAddr: 0x1FD10, symSize: 0x5C }
  - { offsetInCU: 0x25D2, offset: 0x6E103, size: 0x8, addend: 0x0, symName: '__ZN4pyo321interpreter_lifecycle18ensure_initialized28_$u7b$$u7b$closure$u7d$$u7d$17h4c3d92d802ab5742E', symObjAddr: 0x3434, symBinAddr: 0x1FE4C, symSize: 0x90 }
  - { offsetInCU: 0x264E, offset: 0x6E17F, size: 0x8, addend: 0x0, symName: '__ZN4pyo321interpreter_lifecycle10initialize28_$u7b$$u7b$closure$u7d$$u7d$17h40be038aaa315f7eE', symObjAddr: 0x33C4, symBinAddr: 0x1FDDC, symSize: 0x38 }
  - { offsetInCU: 0x2689, offset: 0x6E1BA, size: 0x8, addend: 0x0, symName: '__ZN4pyo321interpreter_lifecycle23wait_for_initialization28_$u7b$$u7b$closure$u7d$$u7d$17ha6e77565412203a3E', symObjAddr: 0x34E8, symBinAddr: 0x1FF00, symSize: 0x78 }
  - { offsetInCU: 0x26FC, offset: 0x6E22D, size: 0x8, addend: 0x0, symName: __ZN4pyo321interpreter_lifecycle5START17h6a36fbbbeabeef3bE, symObjAddr: 0x6D60, symBinAddr: 0x80540, symSize: 0x0 }
  - { offsetInCU: 0x2709, offset: 0x6E23A, size: 0x8, addend: 0x0, symName: __ZN4pyo321interpreter_lifecycle10initialize17hf1f3d4412696d830E, symObjAddr: 0x33A8, symBinAddr: 0x1FDC0, symSize: 0x1C }
  - { offsetInCU: 0x2722, offset: 0x6E253, size: 0x8, addend: 0x0, symName: __ZN4pyo321interpreter_lifecycle18ensure_initialized17h428bddc8b61ed6ffE, symObjAddr: 0x33FC, symBinAddr: 0x1FE14, symSize: 0x38 }
  - { offsetInCU: 0x273B, offset: 0x6E26C, size: 0x8, addend: 0x0, symName: __ZN4pyo321interpreter_lifecycle23wait_for_initialization17hcb2c0c2f19a50f41E, symObjAddr: 0x34C4, symBinAddr: 0x1FEDC, symSize: 0x24 }
  - { offsetInCU: 0x2CA0, offset: 0x6E7D1, size: 0x8, addend: 0x0, symName: __ZN4pyo310conversion15IntoPyObjectExt17into_bound_py_any17he2313b50fbdc898bE, symObjAddr: 0x23C8, symBinAddr: 0x1FD6C, symSize: 0x54 }
  - { offsetInCU: 0x2EC3, offset: 0x6E9F4, size: 0x8, addend: 0x0, symName: __ZN8pyo3_ffi12methodobject17PyCFunction_NewEx17hbccbd2dc20bdb289E, symObjAddr: 0x578C, symBinAddr: 0x201B0, symSize: 0x38 }
  - { offsetInCU: 0x33EF, offset: 0x6EF20, size: 0x8, addend: 0x0, symName: '__ZN77_$LT$alloc..raw_vec..RawVec$LT$T$C$A$GT$$u20$as$u20$core..ops..drop..Drop$GT$4drop17h54996ec2617ce192E', symObjAddr: 0x5564, symBinAddr: 0x2014C, symSize: 0x30 }
  - { offsetInCU: 0x342B, offset: 0x6EF5C, size: 0x8, addend: 0x0, symName: '__ZN77_$LT$alloc..raw_vec..RawVec$LT$T$C$A$GT$$u20$as$u20$core..ops..drop..Drop$GT$4drop17h5fcc4d5ea0396fe9E', symObjAddr: 0x55FC, symBinAddr: 0x2017C, symSize: 0x34 }
  - { offsetInCU: 0x377D, offset: 0x6F2AE, size: 0x8, addend: 0x0, symName: __ZN3std4sync4once4Once12is_completed17h225bfe9d4158c1f1E, symObjAddr: 0xF0, symBinAddr: 0x1F45C, symSize: 0x38 }
  - { offsetInCU: 0x3820, offset: 0x6F351, size: 0x8, addend: 0x0, symName: __ZN3std4sync4once4Once15call_once_force17h48f1e7cf76d55776E, symObjAddr: 0x128, symBinAddr: 0x1F494, symSize: 0xD4 }
  - { offsetInCU: 0x38E5, offset: 0x6F416, size: 0x8, addend: 0x0, symName: __ZN3std4sync4once4Once15call_once_force17h59b155d86995f157E, symObjAddr: 0x1FC, symBinAddr: 0x1F568, symSize: 0xD4 }
  - { offsetInCU: 0x39AA, offset: 0x6F4DB, size: 0x8, addend: 0x0, symName: __ZN3std4sync4once4Once15call_once_force17he0d44a2f57c2cfb1E, symObjAddr: 0x4A8, symBinAddr: 0x1F63C, symSize: 0xEC }
  - { offsetInCU: 0x3B71, offset: 0x6F6A2, size: 0x8, addend: 0x0, symName: __ZN3std4sync4once4Once3new17h9d3eaa7f74485023E, symObjAddr: 0x7F0, symBinAddr: 0x1F87C, symSize: 0x28 }
  - { offsetInCU: 0x3BE9, offset: 0x6F71A, size: 0x8, addend: 0x0, symName: __ZN3std4sync4once4Once9call_once17h712ede98e57ecce9E, symObjAddr: 0x818, symBinAddr: 0x1F8A4, symSize: 0xD4 }
  - { offsetInCU: 0x3CAE, offset: 0x6F7DF, size: 0x8, addend: 0x0, symName: __ZN3std4sync4once4Once9call_once17h991b3bd14ed56d33E, symObjAddr: 0x8EC, symBinAddr: 0x1F978, symSize: 0xDC }
  - { offsetInCU: 0x3D73, offset: 0x6F8A4, size: 0x8, addend: 0x0, symName: __ZN3std4sync4once4Once9call_once17hdfee13582cf9b603E, symObjAddr: 0x9C8, symBinAddr: 0x1FA54, symSize: 0xD4 }
  - { offsetInCU: 0x403B, offset: 0x6FB6C, size: 0x8, addend: 0x0, symName: '__ZN5alloc7raw_vec19RawVec$LT$T$C$A$GT$8grow_one17h684a34ceb12f9efbE', symObjAddr: 0x4648, symBinAddr: 0x1FF78, symSize: 0x84 }
  - { offsetInCU: 0x4200, offset: 0x6FD31, size: 0x8, addend: 0x0, symName: '__ZN5alloc7raw_vec20RawVecInner$LT$A$GT$16with_capacity_in17ha88d741d23c65ef4E', symObjAddr: 0x4F64, symBinAddr: 0x1FFFC, symSize: 0xF0 }
  - { offsetInCU: 0x1E, offset: 0x6FF89, size: 0x8, addend: 0x0, symName: '__ZN100_$LT$core..array..iter..iter_inner..PolymorphicIter$LT$DATA$GT$$u20$as$u20$core..ops..drop..Drop$GT$4drop17h02f79a4b74219610E', symObjAddr: 0x0, symBinAddr: 0x201E8, symSize: 0x30 }
  - { offsetInCU: 0x119, offset: 0x70084, size: 0x8, addend: 0x0, symName: '__ZN78_$LT$std..io..error..repr_bitpacked..Repr$u20$as$u20$core..ops..drop..Drop$GT$4drop28_$u7b$$u7b$closure$u7d$$u7d$17h75275a17f181f7a7E', symObjAddr: 0x4FE4, symBinAddr: 0x21354, symSize: 0x3C }
  - { offsetInCU: 0x1CE, offset: 0x70139, size: 0x8, addend: 0x0, symName: '__ZN78_$LT$std..io..error..repr_bitpacked..Repr$u20$as$u20$core..ops..drop..Drop$GT$4drop17h637785e634210260E', symObjAddr: 0x4FAC, symBinAddr: 0x2131C, symSize: 0x38 }
  - { offsetInCU: 0x1F7, offset: 0x70162, size: 0x8, addend: 0x0, symName: __ZN3std2io5error14repr_bitpacked11decode_repr17haffd25ea45f4b314E, symObjAddr: 0x8C0, symBinAddr: 0x20360, symSize: 0x1DC }
  - { offsetInCU: 0x43C, offset: 0x703A7, size: 0x8, addend: 0x0, symName: __ZN3std2io5error14repr_bitpacked14kind_from_prim17h01c52126f88affcbE, symObjAddr: 0xC78, symBinAddr: 0x2053C, symSize: 0x4B0 }
  - { offsetInCU: 0x144C, offset: 0x713B7, size: 0x8, addend: 0x0, symName: '__ZN5alloc3str56_$LT$impl$u20$alloc..borrow..ToOwned$u20$for$u20$str$GT$8to_owned17h8acb6e24a25a2d6bE', symObjAddr: 0x4E74, symBinAddr: 0x212CC, symSize: 0x50 }
  - { offsetInCU: 0x295E, offset: 0x728C9, size: 0x8, addend: 0x0, symName: '__ZN100_$LT$core..array..iter..iter_inner..PolymorphicIter$LT$DATA$GT$$u20$as$u20$core..ops..drop..Drop$GT$4drop17h02f79a4b74219610E', symObjAddr: 0x0, symBinAddr: 0x201E8, symSize: 0x30 }
  - { offsetInCU: 0x2ACF, offset: 0x72A3A, size: 0x8, addend: 0x0, symName: '__ZN31_$LT$dyn$u20$core..any..Any$GT$12downcast_ref17h5b14e0881f7c23a3E', symObjAddr: 0x170, symBinAddr: 0x20218, symSize: 0xA4 }
  - { offsetInCU: 0x2BC0, offset: 0x72B2B, size: 0x8, addend: 0x0, symName: '__ZN31_$LT$dyn$u20$core..any..Any$GT$12downcast_ref17h7d55db92fcf39ea7E', symObjAddr: 0x214, symBinAddr: 0x202BC, symSize: 0xA4 }
  - { offsetInCU: 0x2D2B, offset: 0x72C96, size: 0x8, addend: 0x0, symName: '__ZN54_$LT$dyn$u20$core..any..Any$u2b$core..marker..Send$GT$12downcast_ref17h237c9b3a688cd96aE', symObjAddr: 0x3C6C, symBinAddr: 0x21274, symSize: 0x2C }
  - { offsetInCU: 0x2D62, offset: 0x72CCD, size: 0x8, addend: 0x0, symName: '__ZN54_$LT$dyn$u20$core..any..Any$u2b$core..marker..Send$GT$12downcast_ref17h81ba5566a337878cE', symObjAddr: 0x3C98, symBinAddr: 0x212A0, symSize: 0x2C }
  - { offsetInCU: 0x39E3, offset: 0x7394E, size: 0x8, addend: 0x0, symName: '__ZN4pyo34sync9once_lock19PyOnceLock$LT$T$GT$11get_or_init28_$u7b$$u7b$closure$u7d$$u7d$17h93639c9cde6e59dbE', symObjAddr: 0x1CFC, symBinAddr: 0x20EC4, symSize: 0x38 }
  - { offsetInCU: 0x3A42, offset: 0x739AD, size: 0x8, addend: 0x0, symName: '__ZN4pyo34sync9once_lock19PyOnceLock$LT$T$GT$11get_or_init28_$u7b$$u7b$closure$u7d$$u7d$17hb3b073b63bc1ee4dE', symObjAddr: 0x1D34, symBinAddr: 0x20EFC, symSize: 0x28 }
  - { offsetInCU: 0x3AD8, offset: 0x73A43, size: 0x8, addend: 0x0, symName: __ZN4pyo34sync9once_lock26init_once_cell_py_attached17ha7ca150668728681E, symObjAddr: 0x22B4, symBinAddr: 0x52B70, symSize: 0xAC }
  - { offsetInCU: 0x3B5A, offset: 0x73AC5, size: 0x8, addend: 0x0, symName: __ZN4pyo34sync9once_lock26init_once_cell_py_attached17hcc39faf6c45eec79E, symObjAddr: 0x2360, symBinAddr: 0x52C1C, symSize: 0xB4 }
  - { offsetInCU: 0x3BE2, offset: 0x73B4D, size: 0x8, addend: 0x0, symName: '__ZN4pyo34sync9once_lock26init_once_cell_py_attached28_$u7b$$u7b$closure$u7d$$u7d$17h76ea99daf2320e79E', symObjAddr: 0x2414, symBinAddr: 0x20F24, symSize: 0x90 }
  - { offsetInCU: 0x3C32, offset: 0x73B9D, size: 0x8, addend: 0x0, symName: '__ZN4pyo34sync9once_lock26init_once_cell_py_attached28_$u7b$$u7b$closure$u7d$$u7d$17he56f72c4bb590c7dE', symObjAddr: 0x24A4, symBinAddr: 0x20FB4, symSize: 0x80 }
  - { offsetInCU: 0x3DC5, offset: 0x73D30, size: 0x8, addend: 0x0, symName: __ZN4pyo35impl_10trampoline33panic_result_into_callback_output17h7ce2a02db677e8eaE, symObjAddr: 0x3A2C, symBinAddr: 0x21034, symSize: 0x114 }
  - { offsetInCU: 0x3E91, offset: 0x73DFC, size: 0x8, addend: 0x0, symName: __ZN4pyo35impl_10trampoline33panic_result_into_callback_output17hf26896f9ba3b63cfE, symObjAddr: 0x3B40, symBinAddr: 0x21148, symSize: 0x12C }
  - { offsetInCU: 0x43FE, offset: 0x74369, size: 0x8, addend: 0x0, symName: __ZN4core3fmt2rt8Argument11new_display17h02d671008732c343E, symObjAddr: 0x1254, symBinAddr: 0x209EC, symSize: 0x2C }
  - { offsetInCU: 0x4436, offset: 0x743A1, size: 0x8, addend: 0x0, symName: __ZN4core3fmt2rt8Argument11new_display17h1735bcfba6231ddbE, symObjAddr: 0x1280, symBinAddr: 0x20A18, symSize: 0x2C }
  - { offsetInCU: 0x447B, offset: 0x743E6, size: 0x8, addend: 0x0, symName: __ZN4core3fmt2rt8Argument11new_display17h1b6fdfcf5c078e3cE, symObjAddr: 0x12AC, symBinAddr: 0x20A44, symSize: 0x2C }
  - { offsetInCU: 0x44B3, offset: 0x7441E, size: 0x8, addend: 0x0, symName: __ZN4core3fmt2rt8Argument11new_display17h28d74c4f7a8f000bE, symObjAddr: 0x12D8, symBinAddr: 0x20A70, symSize: 0x2C }
  - { offsetInCU: 0x44EB, offset: 0x74456, size: 0x8, addend: 0x0, symName: __ZN4core3fmt2rt8Argument11new_display17h42b2a6bcf26cad13E, symObjAddr: 0x1304, symBinAddr: 0x20A9C, symSize: 0x2C }
  - { offsetInCU: 0x453D, offset: 0x744A8, size: 0x8, addend: 0x0, symName: __ZN4core3fmt2rt8Argument11new_display17h8544ee54f0957a05E, symObjAddr: 0x13B4, symBinAddr: 0x20AC8, symSize: 0x2C }
  - { offsetInCU: 0x4575, offset: 0x744E0, size: 0x8, addend: 0x0, symName: __ZN4core3fmt2rt8Argument11new_display17h8ae9bc3db6b8ef44E, symObjAddr: 0x13E0, symBinAddr: 0x20AF4, symSize: 0x2C }
  - { offsetInCU: 0x45BA, offset: 0x74525, size: 0x8, addend: 0x0, symName: __ZN4core3fmt2rt8Argument11new_display17h8d7fc5902d60706fE, symObjAddr: 0x140C, symBinAddr: 0x20B20, symSize: 0x2C }
  - { offsetInCU: 0x45E5, offset: 0x74550, size: 0x8, addend: 0x0, symName: __ZN4core3fmt2rt8Argument11new_display17h94a16755ba3e97eeE, symObjAddr: 0x1438, symBinAddr: 0x20B4C, symSize: 0x2C }
  - { offsetInCU: 0x4644, offset: 0x745AF, size: 0x8, addend: 0x0, symName: __ZN4core3fmt2rt8Argument11new_display17hbdc8100c861ed6aaE, symObjAddr: 0x1490, symBinAddr: 0x20B78, symSize: 0x2C }
  - { offsetInCU: 0x467C, offset: 0x745E7, size: 0x8, addend: 0x0, symName: __ZN4core3fmt2rt8Argument11new_display17hec102c5743f88349E, symObjAddr: 0x14BC, symBinAddr: 0x20BA4, symSize: 0x2C }
  - { offsetInCU: 0x46CE, offset: 0x74639, size: 0x8, addend: 0x0, symName: __ZN4core3fmt2rt8Argument9new_debug17hc64e126c228c903dE, symObjAddr: 0x15C4, symBinAddr: 0x20BD0, symSize: 0x2C }
  - { offsetInCU: 0x4884, offset: 0x747EF, size: 0x8, addend: 0x0, symName: '__ZN4core5array4iter10iter_inner78PolymorphicIter$LT$$u5b$core..mem..maybe_uninit..MaybeUninit$LT$T$GT$$u5d$$GT$4next17ha1bd8da06d17edcaE', symObjAddr: 0x1854, symBinAddr: 0x20BFC, symSize: 0x170 }
  - { offsetInCU: 0x4AE0, offset: 0x74A4B, size: 0x8, addend: 0x0, symName: '__ZN4pyo34sync9once_lock19PyOnceLock$LT$T$GT$11get_or_init17h9429c8904e8a297cE', symObjAddr: 0x1BA4, symBinAddr: 0x20D6C, symSize: 0xB0 }
  - { offsetInCU: 0x4B56, offset: 0x74AC1, size: 0x8, addend: 0x0, symName: '__ZN4pyo34sync9once_lock19PyOnceLock$LT$T$GT$11get_or_init17hfa2ea2992ddac0baE', symObjAddr: 0x1C54, symBinAddr: 0x20E1C, symSize: 0xA8 }
  - { offsetInCU: 0x1E, offset: 0x74CE8, size: 0x8, addend: 0x0, symName: __ZN3std6thread6thread6Thread6unpark17h640a98ff384ef4e9E, symObjAddr: 0x0, symBinAddr: 0x21390, symSize: 0x38 }
  - { offsetInCU: 0x12E, offset: 0x74DF8, size: 0x8, addend: 0x0, symName: __ZN4core4sync6atomic11atomic_load17h37bc53224bbc377aE, symObjAddr: 0x324, symBinAddr: 0x21610, symSize: 0xF8 }
  - { offsetInCU: 0x174, offset: 0x74E3E, size: 0x8, addend: 0x0, symName: __ZN4core4sync6atomic11atomic_load17h8900da7fcebe82deE, symObjAddr: 0x41C, symBinAddr: 0x21708, symSize: 0xF8 }
  - { offsetInCU: 0x1BA, offset: 0x74E84, size: 0x8, addend: 0x0, symName: __ZN4core4sync6atomic12atomic_store17h4e453b69856fd138E, symObjAddr: 0x514, symBinAddr: 0x21800, symSize: 0xFC }
  - { offsetInCU: 0x2E8, offset: 0x74FB2, size: 0x8, addend: 0x0, symName: __ZN4core4sync6atomic23atomic_compare_exchange17he702cadc9a643c24E, symObjAddr: 0x744, symBinAddr: 0x21A30, symSize: 0x4B4 }
  - { offsetInCU: 0x383, offset: 0x7504D, size: 0x8, addend: 0x0, symName: __ZN4core4sync6atomic5fence17h52b2901546ac9a6cE, symObjAddr: 0xBF8, symBinAddr: 0x21EE4, symSize: 0xB0 }
  - { offsetInCU: 0x483, offset: 0x7514D, size: 0x8, addend: 0x0, symName: '__ZN4core3ptr100drop_in_place$LT$core..cell..Cell$LT$core..option..Option$LT$std..thread..thread..Thread$GT$$GT$$GT$17h240b9b9871094eb3E', symObjAddr: 0xF8, symBinAddr: 0x213FC, symSize: 0x24 }
  - { offsetInCU: 0x4B2, offset: 0x7517C, size: 0x8, addend: 0x0, symName: '__ZN4core3ptr106drop_in_place$LT$core..cell..UnsafeCell$LT$core..option..Option$LT$std..thread..thread..Thread$GT$$GT$$GT$17hcd99c785bb3c9c8cE', symObjAddr: 0x11C, symBinAddr: 0x21420, symSize: 0x24 }
  - { offsetInCU: 0x4E1, offset: 0x751AB, size: 0x8, addend: 0x0, symName: '__ZN4core3ptr114drop_in_place$LT$core..pin..Pin$LT$alloc..sync..Arc$LT$std..thread..thread..Inner$C$std..alloc..System$GT$$GT$$GT$17hfc480534f7d359fdE', symObjAddr: 0x140, symBinAddr: 0x21444, symSize: 0x24 }
  - { offsetInCU: 0x510, offset: 0x751DA, size: 0x8, addend: 0x0, symName: '__ZN4core3ptr42drop_in_place$LT$once_cell..imp..Guard$GT$17h8a3fdefcd2aeba1bE', symObjAddr: 0x164, symBinAddr: 0x21468, symSize: 0x24 }
  - { offsetInCU: 0x53F, offset: 0x75209, size: 0x8, addend: 0x0, symName: '__ZN4core3ptr43drop_in_place$LT$once_cell..imp..Waiter$GT$17he76514927482cbdaE', symObjAddr: 0x188, symBinAddr: 0x2148C, symSize: 0x24 }
  - { offsetInCU: 0x56E, offset: 0x75238, size: 0x8, addend: 0x0, symName: '__ZN4core3ptr48drop_in_place$LT$std..thread..thread..Thread$GT$17hbe01acd33a8db94dE', symObjAddr: 0x1AC, symBinAddr: 0x214B0, symSize: 0x24 }
  - { offsetInCU: 0x59D, offset: 0x75267, size: 0x8, addend: 0x0, symName: '__ZN4core3ptr76drop_in_place$LT$core..option..Option$LT$std..thread..thread..Thread$GT$$GT$17h45694ed19c7bc492E', symObjAddr: 0x1D0, symBinAddr: 0x214D4, symSize: 0x44 }
  - { offsetInCU: 0x613, offset: 0x752DD, size: 0x8, addend: 0x0, symName: '__ZN4core3ptr7mut_ptr31_$LT$impl$u20$$BP$mut$u20$T$GT$7is_null17haf4163e4901f70afE', symObjAddr: 0x214, symBinAddr: 0x21518, symSize: 0x18 }
  - { offsetInCU: 0x6A7, offset: 0x75371, size: 0x8, addend: 0x0, symName: '__ZN4core3ptr92drop_in_place$LT$alloc..sync..Arc$LT$std..thread..thread..Inner$C$std..alloc..System$GT$$GT$17h18e9260e70eac1ebE', symObjAddr: 0x22C, symBinAddr: 0x21530, symSize: 0x24 }
  - { offsetInCU: 0x7C7, offset: 0x75491, size: 0x8, addend: 0x0, symName: '__ZN72_$LT$core..option..Option$LT$T$GT$$u20$as$u20$core..default..Default$GT$7default17h6bea89a7ca3d6fceE', symObjAddr: 0xF88, symBinAddr: 0x22274, symSize: 0x8 }
  - { offsetInCU: 0xB59, offset: 0x75823, size: 0x8, addend: 0x0, symName: '__ZN4core3ops8function5impls79_$LT$impl$u20$core..ops..function..FnMut$LT$A$GT$$u20$for$u20$$RF$mut$u20$F$GT$8call_mut17had2ba5bb0b307910E', symObjAddr: 0xC4, symBinAddr: 0x213C8, symSize: 0x34 }
  - { offsetInCU: 0xD3D, offset: 0x75A07, size: 0x8, addend: 0x0, symName: '__ZN71_$LT$alloc..sync..Arc$LT$T$C$A$GT$$u20$as$u20$core..ops..drop..Drop$GT$4drop17h2fafe20e239943d8E', symObjAddr: 0xF0C, symBinAddr: 0x221F8, symSize: 0x7C }
  - { offsetInCU: 0x108B, offset: 0x75D55, size: 0x8, addend: 0x0, symName: __ZN3std6thread6thread6Thread6unpark17h640a98ff384ef4e9E, symObjAddr: 0x0, symBinAddr: 0x21390, symSize: 0x38 }
  - { offsetInCU: 0x11F2, offset: 0x75EBC, size: 0x8, addend: 0x0, symName: '__ZN63_$LT$once_cell..imp..Guard$u20$as$u20$core..ops..drop..Drop$GT$4drop17ha80a7cb96ebdce4fE', symObjAddr: 0xCA8, symBinAddr: 0x21F94, symSize: 0x250 }
  - { offsetInCU: 0x12F2, offset: 0x75FBC, size: 0x8, addend: 0x0, symName: '__ZN63_$LT$once_cell..imp..Guard$u20$as$u20$core..ops..drop..Drop$GT$4drop28_$u7b$$u7b$closure$u7d$$u7d$17hcc3207bad9730f77E', symObjAddr: 0xEF8, symBinAddr: 0x221E4, symSize: 0x14 }
  - { offsetInCU: 0x1331, offset: 0x75FFB, size: 0x8, addend: 0x0, symName: __ZN9once_cell3imp18initialize_or_wait17hf520069d67052366E, symObjAddr: 0xF90, symBinAddr: 0x2227C, symSize: 0x18C }
  - { offsetInCU: 0x13F3, offset: 0x760BD, size: 0x8, addend: 0x0, symName: '__ZN9once_cell3imp18initialize_or_wait28_$u7b$$u7b$closure$u7d$$u7d$17h94d8c60dca521ea0E', symObjAddr: 0x111C, symBinAddr: 0x22408, symSize: 0x18 }
  - { offsetInCU: 0x1431, offset: 0x760FB, size: 0x8, addend: 0x0, symName: __ZN9once_cell3imp4wait17haa03924e3f6eed73E, symObjAddr: 0x1134, symBinAddr: 0x22420, symSize: 0x1EC }
  - { offsetInCU: 0x14D8, offset: 0x761A2, size: 0x8, addend: 0x0, symName: '__ZN9once_cell3imp4wait28_$u7b$$u7b$closure$u7d$$u7d$17hce3d4207eca69a7aE', symObjAddr: 0x1320, symBinAddr: 0x2260C, symSize: 0x14 }
  - { offsetInCU: 0x150E, offset: 0x761D8, size: 0x8, addend: 0x0, symName: '__ZN9once_cell3imp4wait28_$u7b$$u7b$closure$u7d$$u7d$17hdc2f71edfcd48283E', symObjAddr: 0x1334, symBinAddr: 0x22620, symSize: 0x20 }
  - { offsetInCU: 0x156A, offset: 0x76234, size: 0x8, addend: 0x0, symName: __ZN9once_cell3imp6strict4addr17hce61f2448058df01E, symObjAddr: 0x1354, symBinAddr: 0x22640, symSize: 0x10 }
  - { offsetInCU: 0x159F, offset: 0x76269, size: 0x8, addend: 0x0, symName: __ZN9once_cell3imp6strict8map_addr17h01a49a380a70ea26E, symObjAddr: 0x1364, symBinAddr: 0x22650, symSize: 0x88 }
  - { offsetInCU: 0x15EE, offset: 0x762B8, size: 0x8, addend: 0x0, symName: __ZN9once_cell3imp6strict8map_addr17h16cd760a2f3ebf61E, symObjAddr: 0x13EC, symBinAddr: 0x226D8, symSize: 0x94 }
  - { offsetInCU: 0x163D, offset: 0x76307, size: 0x8, addend: 0x0, symName: __ZN9once_cell3imp6strict8map_addr17h41534f2f797f6815E, symObjAddr: 0x1480, symBinAddr: 0x2276C, symSize: 0x88 }
  - { offsetInCU: 0x168C, offset: 0x76356, size: 0x8, addend: 0x0, symName: __ZN9once_cell3imp6strict8map_addr17hfc0ba6a55a098b2dE, symObjAddr: 0x1508, symBinAddr: 0x227F4, symSize: 0x88 }
  - { offsetInCU: 0x16DB, offset: 0x763A5, size: 0x8, addend: 0x0, symName: __ZN9once_cell3imp6strict9with_addr17hf4b90179e43cd3c1E, symObjAddr: 0x1590, symBinAddr: 0x2287C, symSize: 0x64 }
  - { offsetInCU: 0x17F8, offset: 0x764C2, size: 0x8, addend: 0x0, symName: '__ZN4core4cell13Cell$LT$T$GT$3new17ha119af74f3dd9c8dE', symObjAddr: 0x268, symBinAddr: 0x21554, symSize: 0x14 }
  - { offsetInCU: 0x1859, offset: 0x76523, size: 0x8, addend: 0x0, symName: '__ZN4core4cell13Cell$LT$T$GT$4take17hf709d42c8eefcc7eE', symObjAddr: 0x27C, symBinAddr: 0x21568, symSize: 0x3C }
  - { offsetInCU: 0x18C0, offset: 0x7658A, size: 0x8, addend: 0x0, symName: __ZN4core4sync6atomic10AtomicBool3new17he1984b5aa63e811cE, symObjAddr: 0x2B8, symBinAddr: 0x215A4, symSize: 0x18 }
  - { offsetInCU: 0x18F0, offset: 0x765BA, size: 0x8, addend: 0x0, symName: __ZN4core4sync6atomic10AtomicBool4load17h52386742d7149058E, symObjAddr: 0x2D0, symBinAddr: 0x215BC, symSize: 0x2C }
  - { offsetInCU: 0x1922, offset: 0x765EC, size: 0x8, addend: 0x0, symName: __ZN4core4sync6atomic10AtomicBool5store17h289f517cb215c517E, symObjAddr: 0x2FC, symBinAddr: 0x215E8, symSize: 0x28 }
  - { offsetInCU: 0x1970, offset: 0x7663A, size: 0x8, addend: 0x0, symName: '__ZN4core4sync6atomic18AtomicPtr$LT$T$GT$16compare_exchange17h97b5c59b7ec0d2cfE', symObjAddr: 0x610, symBinAddr: 0x218FC, symSize: 0x38 }
  - { offsetInCU: 0x19D8, offset: 0x766A2, size: 0x8, addend: 0x0, symName: '__ZN4core4sync6atomic18AtomicPtr$LT$T$GT$4load17hbb2fd43fddcdfecaE', symObjAddr: 0x648, symBinAddr: 0x21934, symSize: 0x24 }
  - { offsetInCU: 0x1A49, offset: 0x76713, size: 0x8, addend: 0x0, symName: '__ZN4core4sync6atomic18AtomicPtr$LT$T$GT$4swap17h33201dc84f15f19fE', symObjAddr: 0x66C, symBinAddr: 0x21958, symSize: 0xD8 }
  - { offsetInCU: 0x3A9, offset: 0x76D36, size: 0x8, addend: 0x0, symName: '__ZN4core3ptr50drop_in_place$LT$pyo3_ffi..pystate..HangThread$GT$17h596000cc17d1f343E', symObjAddr: 0x514, symBinAddr: 0x2290C, symSize: 0x24 }
  - { offsetInCU: 0x3E2, offset: 0x76D6F, size: 0x8, addend: 0x0, symName: '__ZN4core3ptr9const_ptr33_$LT$impl$u20$$BP$const$u20$T$GT$13is_aligned_to17h5e89eb660bc39c6dE', symObjAddr: 0x550, symBinAddr: 0x22930, symSize: 0x88 }
  - { offsetInCU: 0x484, offset: 0x76E11, size: 0x8, addend: 0x0, symName: __ZN4core3mem6forget17h36349c78c0e7d2f2E, symObjAddr: 0x46C, symBinAddr: 0x22900, symSize: 0xC }
  - { offsetInCU: 0x52B, offset: 0x76EB8, size: 0x8, addend: 0x0, symName: '__ZN71_$LT$pyo3_ffi..pystate..HangThread$u20$as$u20$core..ops..drop..Drop$GT$4drop17h78c10dc0fe8bcd18E', symObjAddr: 0x710, symBinAddr: 0x229B8, symSize: 0x1C }
  - { offsetInCU: 0x554, offset: 0x76EE1, size: 0x8, addend: 0x0, symName: __ZN8pyo3_ffi7pystate17PyGILState_Ensure17h01dbd527e0cd1346E, symObjAddr: 0xA00, symBinAddr: 0x22A48, symSize: 0x7C }
  - { offsetInCU: 0x5AD, offset: 0x76F3A, size: 0x8, addend: 0x0, symName: __ZN8pyo3_ffi32_cstr_from_utf8_with_nul_checked17hdbfc99da1ad91c69E, symObjAddr: 0x98C, symBinAddr: 0x229D4, symSize: 0x74 }
  - { offsetInCU: 0x700, offset: 0x7708D, size: 0x8, addend: 0x0, symName: __ZN4core3fmt9Arguments8from_str17heb2466489bc40d52E, symObjAddr: 0x44C, symBinAddr: 0x228E0, symSize: 0x20 }
  - { offsetInCU: 0x1E, offset: 0x77124, size: 0x8, addend: 0x0, symName: __RNvCshXwFllX56pT_7___rustc10rust_panic, symObjAddr: 0x0, symBinAddr: 0x52CD0, symSize: 0x48 }
  - { offsetInCU: 0x35, offset: 0x7713B, size: 0x8, addend: 0x0, symName: __RNvCshXwFllX56pT_7___rustc10rust_panic, symObjAddr: 0x0, symBinAddr: 0x52CD0, symSize: 0x48 }
  - { offsetInCU: 0x4F, offset: 0x77155, size: 0x8, addend: 0x0, symName: __RNvCshXwFllX56pT_7___rustc17___rust_drop_panic, symObjAddr: 0x174, symBinAddr: 0x22BE4, symSize: 0x118 }
  - { offsetInCU: 0x31D, offset: 0x77423, size: 0x8, addend: 0x0, symName: __RNvCshXwFllX56pT_7___rustc17rust_begin_unwind, symObjAddr: 0x28C, symBinAddr: 0x22CFC, symSize: 0x20 }
  - { offsetInCU: 0x34D, offset: 0x77453, size: 0x8, addend: 0x0, symName: __RNvCshXwFllX56pT_7___rustc24___rust_foreign_exception, symObjAddr: 0x33C, symBinAddr: 0x22DAC, symSize: 0x118 }
  - { offsetInCU: 0x685, offset: 0x7778B, size: 0x8, addend: 0x0, symName: __ZN3std9panicking11panic_count17is_zero_slow_path17h45c11ed097613adbE, symObjAddr: 0x21950, symBinAddr: 0x53704, symSize: 0x2C }
  - { offsetInCU: 0x731, offset: 0x77837, size: 0x8, addend: 0x0, symName: __ZN3std9panicking11panic_count8increase17heddce66a1a4314f9E, symObjAddr: 0x219E0, symBinAddr: 0x2D050, symSize: 0x64 }
  - { offsetInCU: 0x748, offset: 0x7784E, size: 0x8, addend: 0x0, symName: __ZN3std9panicking11panic_count8increase17heddce66a1a4314f9E, symObjAddr: 0x219E0, symBinAddr: 0x2D050, symSize: 0x64 }
  - { offsetInCU: 0x75D, offset: 0x77863, size: 0x8, addend: 0x0, symName: __ZN3std9panicking11panic_count8increase17heddce66a1a4314f9E, symObjAddr: 0x219E0, symBinAddr: 0x2D050, symSize: 0x64 }
  - { offsetInCU: 0x873, offset: 0x77979, size: 0x8, addend: 0x0, symName: __ZN3std9panicking12catch_unwind7cleanup17hba8a7797cce37d45E, symObjAddr: 0x21A68, symBinAddr: 0x53730, symSize: 0x40 }
  - { offsetInCU: 0x999, offset: 0x77A9F, size: 0x8, addend: 0x0, symName: '__ZN3std9panicking12default_hook28_$u7b$$u7b$closure$u7d$$u7d$17ha0993a93f6e4994dE', symObjAddr: 0x21BE4, symBinAddr: 0x2D1F0, symSize: 0x134 }
  - { offsetInCU: 0xAC8, offset: 0x77BCE, size: 0x8, addend: 0x0, symName: __ZN3std9panicking12default_hook17h7aae5c8c53b8a669E, symObjAddr: 0x21AA8, symBinAddr: 0x2D0B4, symSize: 0x13C }
  - { offsetInCU: 0xC51, offset: 0x77D57, size: 0x8, addend: 0x0, symName: '__ZN3std9panicking13panic_handler28_$u7b$$u7b$closure$u7d$$u7d$17hb04320f9e43192c5E', symObjAddr: 0x21D18, symBinAddr: 0x2D324, symSize: 0x9C }
  - { offsetInCU: 0xD9E, offset: 0x77EA4, size: 0x8, addend: 0x0, symName: '__ZN86_$LT$std..panicking..panic_handler..StaticStrPayload$u20$as$u20$core..fmt..Display$GT$3fmt17hc96323a81aca3b09E', symObjAddr: 0x49E20, symBinAddr: 0x40C84, symSize: 0x10 }
  - { offsetInCU: 0xDBF, offset: 0x77EC5, size: 0x8, addend: 0x0, symName: '__ZN89_$LT$std..panicking..panic_handler..FormatStringPayload$u20$as$u20$core..fmt..Display$GT$3fmt17hbfde7ce34a2fc737E', symObjAddr: 0x4A1BC, symBinAddr: 0x40CBC, symSize: 0x34 }
  - { offsetInCU: 0xEBA, offset: 0x77FC0, size: 0x8, addend: 0x0, symName: '__ZN93_$LT$std..panicking..panic_handler..StaticStrPayload$u20$as$u20$core..panic..PanicPayload$GT$3get17h8e3cf57de48a09adE', symObjAddr: 0x4A80C, symBinAddr: 0x40D58, symSize: 0xC }
  - { offsetInCU: 0xED5, offset: 0x77FDB, size: 0x8, addend: 0x0, symName: '__ZN93_$LT$std..panicking..panic_handler..StaticStrPayload$u20$as$u20$core..panic..PanicPayload$GT$6as_str17h19fa289a55d6a29fE', symObjAddr: 0x4A818, symBinAddr: 0x40D64, symSize: 0xC }
  - { offsetInCU: 0xEF0, offset: 0x77FF6, size: 0x8, addend: 0x0, symName: '__ZN93_$LT$std..panicking..panic_handler..StaticStrPayload$u20$as$u20$core..panic..PanicPayload$GT$8take_box17h469a0b8bb3e8b86bE', symObjAddr: 0x4A824, symBinAddr: 0x40D70, symSize: 0x48 }
  - { offsetInCU: 0xF98, offset: 0x7809E, size: 0x8, addend: 0x0, symName: '__ZN96_$LT$std..panicking..panic_handler..FormatStringPayload$u20$as$u20$core..panic..PanicPayload$GT$3get17h99898ee75992544dE', symObjAddr: 0x4AF48, symBinAddr: 0x411D4, symSize: 0xA0 }
  - { offsetInCU: 0x10C8, offset: 0x781CE, size: 0x8, addend: 0x0, symName: '__ZN96_$LT$std..panicking..panic_handler..FormatStringPayload$u20$as$u20$core..panic..PanicPayload$GT$8take_box17hd6f16c16bcdd9cedE', symObjAddr: 0x4AFE8, symBinAddr: 0x41274, symSize: 0x108 }
  - { offsetInCU: 0x1343, offset: 0x78449, size: 0x8, addend: 0x0, symName: __ZN3std9panicking13resume_unwind17h909a2105eea57325E, symObjAddr: 0x21DB4, symBinAddr: 0x53770, symSize: 0xB8 }
  - { offsetInCU: 0x155C, offset: 0x78662, size: 0x8, addend: 0x0, symName: __ZN3std9panicking14payload_as_str17haefdc7488caf86efE, symObjAddr: 0x21E6C, symBinAddr: 0x2D3C0, symSize: 0xC8 }
  - { offsetInCU: 0x16A0, offset: 0x787A6, size: 0x8, addend: 0x0, symName: __ZN3std9panicking15panic_with_hook17hb885411bb59bebf4E, symObjAddr: 0x21F34, symBinAddr: 0x2D488, symSize: 0x388 }
  - { offsetInCU: 0x1DDB, offset: 0x78EE1, size: 0x8, addend: 0x0, symName: '__ZN79_$LT$std..panicking..resume_unwind..RewrapBox$u20$as$u20$core..fmt..Display$GT$3fmt17hae1d30e8edc3517aE', symObjAddr: 0x48674, symBinAddr: 0x4041C, symSize: 0x14 }
  - { offsetInCU: 0x1DFC, offset: 0x78F02, size: 0x8, addend: 0x0, symName: '__ZN86_$LT$std..panicking..resume_unwind..RewrapBox$u20$as$u20$core..panic..PanicPayload$GT$3get17h2148acd8ff11c47bE', symObjAddr: 0x49E30, symBinAddr: 0x40C94, symSize: 0xC }
  - { offsetInCU: 0x1E17, offset: 0x78F1D, size: 0x8, addend: 0x0, symName: '__ZN86_$LT$std..panicking..resume_unwind..RewrapBox$u20$as$u20$core..panic..PanicPayload$GT$8take_box17h92738ebbb46ad932E', symObjAddr: 0x49E3C, symBinAddr: 0x40CA0, symSize: 0x1C }
  - { offsetInCU: 0x1E36, offset: 0x78F3C, size: 0x8, addend: 0x0, symName: '__ZN86_$LT$std..panicking..resume_unwind..RewrapBox$u20$as$u20$core..panic..PanicPayload$GT$8take_box17h92738ebbb46ad932E', symObjAddr: 0x49E3C, symBinAddr: 0x40CA0, symSize: 0x1C }
  - { offsetInCU: 0x1F31, offset: 0x79037, size: 0x8, addend: 0x0, symName: '__ZN64_$LT$std..sys..stdio..unix..Stderr$u20$as$u20$std..io..Write$GT$14write_vectored17h250ff39af684cb41E', symObjAddr: 0x445D0, symBinAddr: 0x3F67C, symSize: 0x54 }
  - { offsetInCU: 0x2006, offset: 0x7910C, size: 0x8, addend: 0x0, symName: '__ZN64_$LT$std..sys..stdio..unix..Stderr$u20$as$u20$std..io..Write$GT$17is_write_vectored17h30a94d90a8a85ab4E', symObjAddr: 0x44624, symBinAddr: 0x3F6D0, symSize: 0x8 }
  - { offsetInCU: 0x2020, offset: 0x79126, size: 0x8, addend: 0x0, symName: '__ZN64_$LT$std..sys..stdio..unix..Stderr$u20$as$u20$std..io..Write$GT$5flush17h9bac4f9e0e51b44eE', symObjAddr: 0x4462C, symBinAddr: 0x3F6D8, symSize: 0x8 }
  - { offsetInCU: 0x203A, offset: 0x79140, size: 0x8, addend: 0x0, symName: '__ZN64_$LT$std..sys..stdio..unix..Stderr$u20$as$u20$std..io..Write$GT$5write17hec38f496b3e1443cE', symObjAddr: 0x44634, symBinAddr: 0x3F6E0, symSize: 0x54 }
  - { offsetInCU: 0x219C, offset: 0x792A2, size: 0x8, addend: 0x0, symName: __ZN3std3sys3pal4unix4sync5mutex5Mutex4init17ha789dcd9cd89f57cE, symObjAddr: 0x164A0, symBinAddr: 0x2B4A0, symSize: 0x168 }
  - { offsetInCU: 0x2234, offset: 0x7933A, size: 0x8, addend: 0x0, symName: __ZN3std3sys3pal4unix4sync5mutex5Mutex4lock17h965e2ed233aabc24E, symObjAddr: 0x16608, symBinAddr: 0x2B608, symSize: 0x1C }
  - { offsetInCU: 0x2248, offset: 0x7934E, size: 0x8, addend: 0x0, symName: __ZN3std3sys3pal4unix4sync5mutex5Mutex6unlock17hddae98dc8a21c3faE, symObjAddr: 0x166F8, symBinAddr: 0x2B624, symSize: 0x4 }
  - { offsetInCU: 0x2293, offset: 0x79399, size: 0x8, addend: 0x0, symName: __ZN3std3sys3pal4unix4sync5mutex5Mutex4lock4fail17h6eba5fa01da6e203E, symObjAddr: 0x16624, symBinAddr: 0x52D3C, symSize: 0xD4 }
  - { offsetInCU: 0x24D8, offset: 0x795DE, size: 0x8, addend: 0x0, symName: '__ZN81_$LT$std..sys..pal..unix..sync..mutex..Mutex$u20$as$u20$core..ops..drop..Drop$GT$4drop17h79078ad0b916caa2E', symObjAddr: 0x49310, symBinAddr: 0x409D0, symSize: 0x4 }
  - { offsetInCU: 0x24FC, offset: 0x79602, size: 0x8, addend: 0x0, symName: __ZN3std3sys3pal4unix14abort_internal17h111ed782a3d16dc7E, symObjAddr: 0x1490C, symBinAddr: 0x52D30, symSize: 0xC }
  - { offsetInCU: 0x2517, offset: 0x7961D, size: 0x8, addend: 0x0, symName: __ZN3std3sys3pal4unix17decode_error_kind17h7eaf32abc72a6956E, symObjAddr: 0x15E2C, symBinAddr: 0x2B350, symSize: 0x150 }
  - { offsetInCU: 0x25F1, offset: 0x796F7, size: 0x8, addend: 0x0, symName: __ZN3std3sys3pal6common14small_c_string24run_with_cstr_allocating17h0990e78f13f4259dE, symObjAddr: 0x16908, symBinAddr: 0x52E10, symSize: 0xBC }
  - { offsetInCU: 0x27CD, offset: 0x798D3, size: 0x8, addend: 0x0, symName: __ZN3std3sys3pal6common14small_c_string24run_with_cstr_allocating17h47a2667b153056b9E, symObjAddr: 0x16A80, symBinAddr: 0x52ECC, symSize: 0xC0 }
  - { offsetInCU: 0x29AA, offset: 0x79AB0, size: 0x8, addend: 0x0, symName: __ZN3std3sys3pal6common14small_c_string24run_with_cstr_allocating17h4b48d2af9b68c9ebE, symObjAddr: 0x16B40, symBinAddr: 0x52F8C, symSize: 0xB4 }
  - { offsetInCU: 0x2B73, offset: 0x79C79, size: 0x8, addend: 0x0, symName: __ZN3std3sys3pal6common14small_c_string24run_with_cstr_allocating17h89b923f6c4be1283E, symObjAddr: 0x16D80, symBinAddr: 0x53040, symSize: 0xA4 }
  - { offsetInCU: 0x2CCA, offset: 0x79DD0, size: 0x8, addend: 0x0, symName: __ZN3std3sys3pal6common14small_c_string24run_with_cstr_allocating17h8cd8d1a77ef65e98E, symObjAddr: 0x16E24, symBinAddr: 0x530E4, symSize: 0xC0 }
  - { offsetInCU: 0x2ED5, offset: 0x79FDB, size: 0x8, addend: 0x0, symName: __ZN3std3sys12thread_local6native5eager7destroy17hef39cbfcdc30418cE, symObjAddr: 0xF180, symBinAddr: 0x2AC64, symSize: 0x2C }
  - { offsetInCU: 0x3071, offset: 0x7A177, size: 0x8, addend: 0x0, symName: __ZN3std3sys12thread_local5guard5apple6enable9run_dtors17hadb8cf8c638b3582E, symObjAddr: 0xF00C, symBinAddr: 0x2AB74, symSize: 0xF0 }
  - { offsetInCU: 0x3503, offset: 0x7A609, size: 0x8, addend: 0x0, symName: __ZN3std3sys12thread_local11destructors4list8register17ha25af605773d94bcE, symObjAddr: 0xEF10, symBinAddr: 0x2AA78, symSize: 0xFC }
  - { offsetInCU: 0x3802, offset: 0x7A908, size: 0x8, addend: 0x0, symName: __ZN3std3sys3env4unix13env_read_lock17h40a912cce48132b4E, symObjAddr: 0x1342C, symBinAddr: 0x2AFF0, symSize: 0x230 }
  - { offsetInCU: 0x3ECC, offset: 0x7AFD2, size: 0x8, addend: 0x0, symName: '__ZN3std3sys3env4unix6getenv28_$u7b$$u7b$closure$u7d$$u7d$17h705e6f64f10d506aE', symObjAddr: 0x1365C, symBinAddr: 0x2B220, symSize: 0x130 }
  - { offsetInCU: 0x40FD, offset: 0x7B203, size: 0x8, addend: 0x0, symName: __ZN3std3sys2fs4unix4File6open_c17h5f49f53c346fe654E, symObjAddr: 0x11CA0, symBinAddr: 0x2ACD4, symSize: 0x1A0 }
  - { offsetInCU: 0x4266, offset: 0x7B36C, size: 0x8, addend: 0x0, symName: '__ZN3std3sys2fs4unix10DirBuilder5mkdir28_$u7b$$u7b$closure$u7d$$u7d$17h721b4e0e3e92f26fE', symObjAddr: 0x117CC, symBinAddr: 0x2AC90, symSize: 0x44 }
  - { offsetInCU: 0x434D, offset: 0x7B453, size: 0x8, addend: 0x0, symName: '__ZN65_$LT$std..sys..fs..unix..Dir$u20$as$u20$core..ops..drop..Drop$GT$4drop17h5fb63eb506e6bf74E', symObjAddr: 0x44938, symBinAddr: 0x3F734, symSize: 0xB4 }
  - { offsetInCU: 0x4421, offset: 0x7B527, size: 0x8, addend: 0x0, symName: __ZN3std3sys2fs8read_dir17h302bd5d3caaeb353E, symObjAddr: 0x12CD0, symBinAddr: 0x2AE74, symSize: 0x17C }
  - { offsetInCU: 0x47D7, offset: 0x7B8DD, size: 0x8, addend: 0x0, symName: '__ZN3std3sys4sync8once_box16OnceBox$LT$T$GT$10initialize17hbbacba80bd3104baE', symObjAddr: 0x17E78, symBinAddr: 0x53424, symSize: 0xE4 }
  - { offsetInCU: 0x4A45, offset: 0x7BB4B, size: 0x8, addend: 0x0, symName: '__ZN79_$LT$std..sys..sync..mutex..pthread..Mutex$u20$as$u20$core..ops..drop..Drop$GT$4drop17hf92f835d1029afbfE', symObjAddr: 0x486DC, symBinAddr: 0x40430, symSize: 0x58 }
  - { offsetInCU: 0x4B69, offset: 0x7BC6F, size: 0x8, addend: 0x0, symName: __ZN3std3sys4sync4once5queue4Once4call17h3e41a5ec638e0eddE, symObjAddr: 0x1728C, symBinAddr: 0x531A4, symSize: 0x200 }
  - { offsetInCU: 0x4E16, offset: 0x7BF1C, size: 0x8, addend: 0x0, symName: '__ZN82_$LT$std..sys..sync..once..queue..WaiterQueue$u20$as$u20$core..ops..drop..Drop$GT$4drop17h131bf1b8f1dcf278E', symObjAddr: 0x49778, symBinAddr: 0x409D4, symSize: 0xDC }
  - { offsetInCU: 0x5005, offset: 0x7C10B, size: 0x8, addend: 0x0, symName: __ZN3std3sys4sync4once5queue4wait17h82100156577ff708E, symObjAddr: 0x17658, symBinAddr: 0x2B648, symSize: 0x184 }
  - { offsetInCU: 0x5578, offset: 0x7C67E, size: 0x8, addend: 0x0, symName: __ZN3std3sys4sync6rwlock5queue6RwLock12unlock_queue17ha229124a59838688E, symObjAddr: 0x177F0, symBinAddr: 0x2B7CC, symSize: 0x1BC }
  - { offsetInCU: 0x5BD2, offset: 0x7CCD8, size: 0x8, addend: 0x0, symName: __ZN3std3sys4sync6rwlock5queue6RwLock16unlock_contended17h5028e77bc6335836E, symObjAddr: 0x17CA8, symBinAddr: 0x533A4, symSize: 0x40 }
  - { offsetInCU: 0x5C99, offset: 0x7CD9F, size: 0x8, addend: 0x0, symName: __ZN3std3sys4sync6rwlock5queue6RwLock21read_unlock_contended17h79bf993872facf3bE, symObjAddr: 0x17CE8, symBinAddr: 0x533E4, symSize: 0x40 }
  - { offsetInCU: 0x5CB8, offset: 0x7CDBE, size: 0x8, addend: 0x0, symName: __ZN3std3sys4sync6rwlock5queue6RwLock21read_unlock_contended17h79bf993872facf3bE, symObjAddr: 0x17CE8, symBinAddr: 0x533E4, symSize: 0x40 }
  - { offsetInCU: 0x5CCD, offset: 0x7CDD3, size: 0x8, addend: 0x0, symName: __ZN3std3sys4sync6rwlock5queue6RwLock21read_unlock_contended17h79bf993872facf3bE, symObjAddr: 0x17CE8, symBinAddr: 0x533E4, symSize: 0x40 }
  - { offsetInCU: 0x5EE6, offset: 0x7CFEC, size: 0x8, addend: 0x0, symName: '__ZN83_$LT$std..sys..sync..rwlock..queue..PanicGuard$u20$as$u20$core..ops..drop..Drop$GT$4drop17h102a4575c5d48e7cE', symObjAddr: 0x499F4, symBinAddr: 0x56BA4, symSize: 0x30 }
  - { offsetInCU: 0x5F1F, offset: 0x7D025, size: 0x8, addend: 0x0, symName: __ZN3std3sys4sync14thread_parking6darwin6Parker6unpark17h8ff2d47d8375b7eaE, symObjAddr: 0x1726C, symBinAddr: 0x2B628, symSize: 0x20 }
  - { offsetInCU: 0x5F37, offset: 0x7D03D, size: 0x8, addend: 0x0, symName: __ZN3std3sys4sync14thread_parking6darwin6Parker6unpark17h8ff2d47d8375b7eaE, symObjAddr: 0x1726C, symBinAddr: 0x2B628, symSize: 0x20 }
  - { offsetInCU: 0x5F4B, offset: 0x7D051, size: 0x8, addend: 0x0, symName: __ZN3std3sys4sync14thread_parking6darwin6Parker6unpark17h8ff2d47d8375b7eaE, symObjAddr: 0x1726C, symBinAddr: 0x2B628, symSize: 0x20 }
  - { offsetInCU: 0x5FCB, offset: 0x7D0D1, size: 0x8, addend: 0x0, symName: '__ZN3std3sys11personality3gcc14find_eh_action28_$u7b$$u7b$closure$u7d$$u7d$17h407435927a582f92E', symObjAddr: 0xEDB0, symBinAddr: 0x2A918, symSize: 0xC }
  - { offsetInCU: 0x5FDF, offset: 0x7D0E5, size: 0x8, addend: 0x0, symName: '__ZN3std3sys11personality3gcc14find_eh_action28_$u7b$$u7b$closure$u7d$$u7d$17hbcd0bca45dcff645E', symObjAddr: 0xEDBC, symBinAddr: 0x2A924, symSize: 0xC }
  - { offsetInCU: 0x6027, offset: 0x7D12D, size: 0x8, addend: 0x0, symName: _rust_eh_personality, symObjAddr: 0x4DC6C, symBinAddr: 0x43C20, symSize: 0x378 }
  - { offsetInCU: 0x6352, offset: 0x7D458, size: 0x8, addend: 0x0, symName: __ZN3std3sys11personality5dwarf2eh19read_encoded_offset17hc2169b5dd02614d6E, symObjAddr: 0xEDC8, symBinAddr: 0x2A930, symSize: 0x148 }
  - { offsetInCU: 0x64A4, offset: 0x7D5AA, size: 0x8, addend: 0x0, symName: '__ZN3std3sys9backtrace10_print_fmt28_$u7b$$u7b$closure$u7d$$u7d$17h3caa4c7e5d77f84cE', symObjAddr: 0x1AF10, symBinAddr: 0x2B988, symSize: 0x134 }
  - { offsetInCU: 0x65A0, offset: 0x7D6A6, size: 0x8, addend: 0x0, symName: '__ZN3std3sys9backtrace10_print_fmt28_$u7b$$u7b$closure$u7d$$u7d$17h5f17e29e13815b81E', symObjAddr: 0x1B044, symBinAddr: 0x2BABC, symSize: 0x24 }
  - { offsetInCU: 0x65E0, offset: 0x7D6E6, size: 0x8, addend: 0x0, symName: '__ZN3std3sys9backtrace10_print_fmt28_$u7b$$u7b$closure$u7d$$u7d$28_$u7b$$u7b$closure$u7d$$u7d$17heb15e31920de2047E', symObjAddr: 0x1B068, symBinAddr: 0x2BAE0, symSize: 0x244 }
  - { offsetInCU: 0x6805, offset: 0x7D90B, size: 0x8, addend: 0x0, symName: __ZN3std3sys9backtrace15output_filename17h66d7868146cf3be5E, symObjAddr: 0x1B2AC, symBinAddr: 0x2BD24, symSize: 0xE0 }
  - { offsetInCU: 0x6945, offset: 0x7DA4B, size: 0x8, addend: 0x0, symName: __ZN3std3sys9backtrace26__rust_end_short_backtrace17h179837de08e394a0E, symObjAddr: 0x1B38C, symBinAddr: 0x53508, symSize: 0xC }
  - { offsetInCU: 0x695F, offset: 0x7DA65, size: 0x8, addend: 0x0, symName: __ZN3std3sys9backtrace26__rust_end_short_backtrace17ha3c55a1c4767eecfE, symObjAddr: 0x1B3A4, symBinAddr: 0x2BE04, symSize: 0xC }
  - { offsetInCU: 0x6979, offset: 0x7DA7F, size: 0x8, addend: 0x0, symName: __ZN3std3sys9backtrace4lock17h9eec6ffaf64fbcccE, symObjAddr: 0x1B3B0, symBinAddr: 0x2BE10, symSize: 0x70 }
  - { offsetInCU: 0x6AF5, offset: 0x7DBFB, size: 0x8, addend: 0x0, symName: '__ZN98_$LT$std..sys..backtrace..BacktraceLock..print..DisplayBacktrace$u20$as$u20$core..fmt..Display$GT$3fmt17h8c5ab870ebd4c242E', symObjAddr: 0x4B2BC, symBinAddr: 0x4137C, symSize: 0x210 }
  - { offsetInCU: 0x6FE7, offset: 0x7E0ED, size: 0x8, addend: 0x0, symName: __RNvCshXwFllX56pT_7___rustc11___rdl_alloc, symObjAddr: 0x48, symBinAddr: 0x22AC4, symSize: 0x6C }
  - { offsetInCU: 0x7064, offset: 0x7E16A, size: 0x8, addend: 0x0, symName: __RNvCshXwFllX56pT_7___rustc13___rdl_dealloc, symObjAddr: 0xC0, symBinAddr: 0x22B30, symSize: 0x4 }
  - { offsetInCU: 0x7083, offset: 0x7E189, size: 0x8, addend: 0x0, symName: __RNvCshXwFllX56pT_7___rustc13___rdl_dealloc, symObjAddr: 0xC0, symBinAddr: 0x22B30, symSize: 0x4 }
  - { offsetInCU: 0x7095, offset: 0x7E19B, size: 0x8, addend: 0x0, symName: __RNvCshXwFllX56pT_7___rustc13___rdl_realloc, symObjAddr: 0xC4, symBinAddr: 0x22B34, symSize: 0xB0 }
  - { offsetInCU: 0x7168, offset: 0x7E26E, size: 0x8, addend: 0x0, symName: __RNvCshXwFllX56pT_7___rustc18___rdl_alloc_zeroed, symObjAddr: 0x2AC, symBinAddr: 0x22D1C, symSize: 0x90 }
  - { offsetInCU: 0x720C, offset: 0x7E312, size: 0x8, addend: 0x0, symName: __RNvCshXwFllX56pT_7___rustc26___rust_alloc_error_handler, symObjAddr: 0x454, symBinAddr: 0x52D18, symSize: 0x18 }
  - { offsetInCU: 0x7251, offset: 0x7E357, size: 0x8, addend: 0x0, symName: __ZN3std5alloc24default_alloc_error_hook17hd55c569ad4145d87E, symObjAddr: 0x1F008, symBinAddr: 0x2C7FC, symSize: 0x134 }
  - { offsetInCU: 0x72C1, offset: 0x7E3C7, size: 0x8, addend: 0x0, symName: __ZN3std5alloc8rust_oom17h57ea79c83371d333E, symObjAddr: 0x1F13C, symBinAddr: 0x53514, symSize: 0x18 }
  - { offsetInCU: 0x72E0, offset: 0x7E3E6, size: 0x8, addend: 0x0, symName: '__ZN3std5alloc8rust_oom28_$u7b$$u7b$closure$u7d$$u7d$17hd4c3c732f9f12b59E', symObjAddr: 0x1F154, symBinAddr: 0x5352C, symSize: 0x34 }
  - { offsetInCU: 0x738F, offset: 0x7E495, size: 0x8, addend: 0x0, symName: __ZN3std2io5Write18write_all_vectored17h8ad69781cb013644E, symObjAddr: 0x9118, symBinAddr: 0x293D0, symSize: 0x184 }
  - { offsetInCU: 0x7593, offset: 0x7E699, size: 0x8, addend: 0x0, symName: __ZN3std2io5Write9write_all17h5556be30f395b35fE, symObjAddr: 0x929C, symBinAddr: 0x29554, symSize: 0xAC }
  - { offsetInCU: 0x7656, offset: 0x7E75C, size: 0x8, addend: 0x0, symName: __ZN3std2io5Write9write_fmt17h3e2818c92b86d99fE, symObjAddr: 0x9348, symBinAddr: 0x29600, symSize: 0x118 }
  - { offsetInCU: 0x7889, offset: 0x7E98F, size: 0x8, addend: 0x0, symName: __ZN3std2io5Write9write_fmt17h6f94f9186df343caE, symObjAddr: 0x9460, symBinAddr: 0x29718, symSize: 0x118 }
  - { offsetInCU: 0x7ABC, offset: 0x7EBC2, size: 0x8, addend: 0x0, symName: __ZN3std2io5Write9write_fmt17h947344a43c638468E, symObjAddr: 0x9578, symBinAddr: 0x29830, symSize: 0x118 }
  - { offsetInCU: 0x7D34, offset: 0x7EE3A, size: 0x8, addend: 0x0, symName: __ZN3std2io5error5Error3new17h949302c01fe11b24E, symObjAddr: 0x9768, symBinAddr: 0x29948, symSize: 0x110 }
  - { offsetInCU: 0x814E, offset: 0x7F254, size: 0x8, addend: 0x0, symName: '__ZN3std2io5error83_$LT$impl$u20$core..fmt..Debug$u20$for$u20$std..io..error..repr_bitpacked..Repr$GT$3fmt17h62fc45abe2a9bb17E', symObjAddr: 0x98F4, symBinAddr: 0x29A58, symSize: 0x280 }
  - { offsetInCU: 0x8391, offset: 0x7F497, size: 0x8, addend: 0x0, symName: '__ZN58_$LT$std..io..error..Error$u20$as$u20$core..fmt..Debug$GT$3fmt17heced06dcf81bbc5fE', symObjAddr: 0x33508, symBinAddr: 0x37980, symSize: 0x4 }
  - { offsetInCU: 0x83AB, offset: 0x7F4B1, size: 0x8, addend: 0x0, symName: '__ZN60_$LT$std..io..error..Error$u20$as$u20$core..fmt..Display$GT$3fmt17h548d231ec88e79ebE', symObjAddr: 0x40728, symBinAddr: 0x3EFF8, symSize: 0x1A8 }
  - { offsetInCU: 0x85CB, offset: 0x7F6D1, size: 0x8, addend: 0x0, symName: '__ZN62_$LT$std..io..error..ErrorKind$u20$as$u20$core..fmt..Debug$GT$3fmt17h8c52f3a66c182e0bE', symObjAddr: 0x43378, symBinAddr: 0x3F55C, symSize: 0x28 }
  - { offsetInCU: 0x8624, offset: 0x7F72A, size: 0x8, addend: 0x0, symName: __ZN3std2io5stdio22try_set_output_capture17h3c315e184c9365eeE, symObjAddr: 0xA084, symBinAddr: 0x2A0E4, symSize: 0xEC }
  - { offsetInCU: 0x88D5, offset: 0x7F9DB, size: 0x8, addend: 0x0, symName: __ZN3std2io5stdio31print_to_buffer_if_capture_used17h0661bd51b7222fbdE, symObjAddr: 0xA24C, symBinAddr: 0x2A1D0, symSize: 0x214 }
  - { offsetInCU: 0x8FAE, offset: 0x800B4, size: 0x8, addend: 0x0, symName: __ZN3std2io5stdio6Stderr4lock17hf24fbe7c90c6b1eeE, symObjAddr: 0xA6C4, symBinAddr: 0x2A3E4, symSize: 0x0 }
  - { offsetInCU: 0x9255, offset: 0x8035B, size: 0x8, addend: 0x0, symName: __ZN3std2io5stdio7_eprint17heb74b67280cb307dE, symObjAddr: 0xA8B8, symBinAddr: 0x2A4C8, symSize: 0xC0 }
  - { offsetInCU: 0x9298, offset: 0x8039E, size: 0x8, addend: 0x0, symName: '__ZN61_$LT$$RF$std..io..stdio..Stderr$u20$as$u20$std..io..Write$GT$9write_fmt17hd0f93aaa607a1d63E', symObjAddr: 0x417CC, symBinAddr: 0x3F1A0, symSize: 0x184 }
  - { offsetInCU: 0x9675, offset: 0x8077B, size: 0x8, addend: 0x0, symName: '__ZN61_$LT$std..io..stdio..StderrLock$u20$as$u20$std..io..Write$GT$9write_all17hcd53a22350fbe292E', symObjAddr: 0x420E0, symBinAddr: 0x3F324, symSize: 0x104 }
  - { offsetInCU: 0x992C, offset: 0x80A32, size: 0x8, addend: 0x0, symName: '__ZN3std2io5impls74_$LT$impl$u20$std..io..Write$u20$for$u20$alloc..vec..Vec$LT$u8$C$A$GT$$GT$14write_vectored17h5b8f1444907f4a81E', symObjAddr: 0x9B74, symBinAddr: 0x29CD8, symSize: 0x184 }
  - { offsetInCU: 0x9B7A, offset: 0x80C80, size: 0x8, addend: 0x0, symName: '__ZN3std2io5impls74_$LT$impl$u20$std..io..Write$u20$for$u20$alloc..vec..Vec$LT$u8$C$A$GT$$GT$17is_write_vectored17h4e219e106b44d2f1E', symObjAddr: 0x9CF8, symBinAddr: 0x29E5C, symSize: 0x8 }
  - { offsetInCU: 0x9BA2, offset: 0x80CA8, size: 0x8, addend: 0x0, symName: '__ZN3std2io5impls74_$LT$impl$u20$std..io..Write$u20$for$u20$alloc..vec..Vec$LT$u8$C$A$GT$$GT$18write_all_vectored17ha0be24e2310e789fE', symObjAddr: 0x9D00, symBinAddr: 0x29E64, symSize: 0x174 }
  - { offsetInCU: 0x9BC0, offset: 0x80CC6, size: 0x8, addend: 0x0, symName: '__ZN3std2io5impls74_$LT$impl$u20$std..io..Write$u20$for$u20$alloc..vec..Vec$LT$u8$C$A$GT$$GT$18write_all_vectored17ha0be24e2310e789fE', symObjAddr: 0x9D00, symBinAddr: 0x29E64, symSize: 0x174 }
  - { offsetInCU: 0x9BD5, offset: 0x80CDB, size: 0x8, addend: 0x0, symName: '__ZN3std2io5impls74_$LT$impl$u20$std..io..Write$u20$for$u20$alloc..vec..Vec$LT$u8$C$A$GT$$GT$18write_all_vectored17ha0be24e2310e789fE', symObjAddr: 0x9D00, symBinAddr: 0x29E64, symSize: 0x174 }
  - { offsetInCU: 0x9BEA, offset: 0x80CF0, size: 0x8, addend: 0x0, symName: '__ZN3std2io5impls74_$LT$impl$u20$std..io..Write$u20$for$u20$alloc..vec..Vec$LT$u8$C$A$GT$$GT$18write_all_vectored17ha0be24e2310e789fE', symObjAddr: 0x9D00, symBinAddr: 0x29E64, symSize: 0x174 }
  - { offsetInCU: 0x9BFF, offset: 0x80D05, size: 0x8, addend: 0x0, symName: '__ZN3std2io5impls74_$LT$impl$u20$std..io..Write$u20$for$u20$alloc..vec..Vec$LT$u8$C$A$GT$$GT$18write_all_vectored17ha0be24e2310e789fE', symObjAddr: 0x9D00, symBinAddr: 0x29E64, symSize: 0x174 }
  - { offsetInCU: 0x9C13, offset: 0x80D19, size: 0x8, addend: 0x0, symName: '__ZN3std2io5impls74_$LT$impl$u20$std..io..Write$u20$for$u20$alloc..vec..Vec$LT$u8$C$A$GT$$GT$18write_all_vectored17ha0be24e2310e789fE', symObjAddr: 0x9D00, symBinAddr: 0x29E64, symSize: 0x174 }
  - { offsetInCU: 0x9E45, offset: 0x80F4B, size: 0x8, addend: 0x0, symName: '__ZN3std2io5impls74_$LT$impl$u20$std..io..Write$u20$for$u20$alloc..vec..Vec$LT$u8$C$A$GT$$GT$5flush17he4ae8498fd90331eE', symObjAddr: 0x9E74, symBinAddr: 0x29FD8, symSize: 0x8 }
  - { offsetInCU: 0x9E60, offset: 0x80F66, size: 0x8, addend: 0x0, symName: '__ZN3std2io5impls74_$LT$impl$u20$std..io..Write$u20$for$u20$alloc..vec..Vec$LT$u8$C$A$GT$$GT$5write17hd7607dc1feaafa84E', symObjAddr: 0x9E7C, symBinAddr: 0x29FE0, symSize: 0x84 }
  - { offsetInCU: 0x9FA4, offset: 0x810AA, size: 0x8, addend: 0x0, symName: '__ZN3std2io5impls74_$LT$impl$u20$std..io..Write$u20$for$u20$alloc..vec..Vec$LT$u8$C$A$GT$$GT$9write_all17hcfe117cc00015cdeE', symObjAddr: 0x9F00, symBinAddr: 0x2A064, symSize: 0x80 }
  - { offsetInCU: 0xA1F9, offset: 0x812FF, size: 0x8, addend: 0x0, symName: '__ZN81_$LT$std..io..default_write_fmt..Adapter$LT$T$GT$$u20$as$u20$core..fmt..Write$GT$9write_str17h71d1902b6517020cE', symObjAddr: 0x48CE0, symBinAddr: 0x40788, symSize: 0xD8 }
  - { offsetInCU: 0xA2DF, offset: 0x813E5, size: 0x8, addend: 0x0, symName: '__ZN81_$LT$std..io..default_write_fmt..Adapter$LT$T$GT$$u20$as$u20$core..fmt..Write$GT$9write_str17hb7bfc53747f94b24E', symObjAddr: 0x48E90, symBinAddr: 0x40860, symSize: 0x50 }
  - { offsetInCU: 0xA308, offset: 0x8140E, size: 0x8, addend: 0x0, symName: '__ZN81_$LT$std..io..default_write_fmt..Adapter$LT$T$GT$$u20$as$u20$core..fmt..Write$GT$9write_str17hc0cf7e42180d9cdcE', symObjAddr: 0x48EE0, symBinAddr: 0x408B0, symSize: 0x80 }
  - { offsetInCU: 0xA453, offset: 0x81559, size: 0x8, addend: 0x0, symName: '__ZN81_$LT$std..io..default_write_fmt..Adapter$LT$T$GT$$u20$as$u20$core..fmt..Write$GT$9write_str17hebf4ee0c4ffb615dE', symObjAddr: 0x48F60, symBinAddr: 0x40930, symSize: 0xA0 }
  - { offsetInCU: 0xA65D, offset: 0x81763, size: 0x8, addend: 0x0, symName: __ZN3std4path4Path13_strip_prefix17h6a54778252633284E, symObjAddr: 0x1C220, symBinAddr: 0x2C21C, symSize: 0x21C }
  - { offsetInCU: 0xA76B, offset: 0x81871, size: 0x8, addend: 0x0, symName: __ZN3std4path4Path5_join17ha8f408dfc5576c3eE, symObjAddr: 0x1CAF0, symBinAddr: 0x2C438, symSize: 0x184 }
  - { offsetInCU: 0xABFB, offset: 0x81D01, size: 0x8, addend: 0x0, symName: __ZN3std4path4Path6is_dir17h70f322681d113b19E, symObjAddr: 0x1CC74, symBinAddr: 0x2C5BC, symSize: 0x1C8 }
  - { offsetInCU: 0xB138, offset: 0x8223E, size: 0x8, addend: 0x0, symName: __ZN3std4path10Components25parse_next_component_back17hdf417cd8d506b36cE, symObjAddr: 0x1B420, symBinAddr: 0x2BE80, symSize: 0x164 }
  - { offsetInCU: 0xB281, offset: 0x82387, size: 0x8, addend: 0x0, symName: __ZN3std4path10Components7as_path17h6e58b97ab90cc3e2E, symObjAddr: 0x1B584, symBinAddr: 0x2BFE4, symSize: 0x238 }
  - { offsetInCU: 0xB48B, offset: 0x82591, size: 0x8, addend: 0x0, symName: '__ZN61_$LT$std..path..Component$u20$as$u20$core..cmp..PartialEq$GT$2eq17hf0cb147584673330E', symObjAddr: 0x429C0, symBinAddr: 0x3F428, symSize: 0x134 }
  - { offsetInCU: 0xB5E4, offset: 0x826EA, size: 0x8, addend: 0x0, symName: '__ZN80_$LT$std..path..Components$u20$as$u20$core..iter..traits..iterator..Iterator$GT$4next17h2794890ed267533bE', symObjAddr: 0x48734, symBinAddr: 0x40488, symSize: 0x300 }
  - { offsetInCU: 0xB6F0, offset: 0x827F6, size: 0x8, addend: 0x0, symName: '__ZN95_$LT$std..path..Components$u20$as$u20$core..iter..traits..double_ended..DoubleEndedIterator$GT$9next_back17h5b30f64461d1ff12E', symObjAddr: 0x4AAF0, symBinAddr: 0x40DB8, symSize: 0x41C }
  - { offsetInCU: 0xB877, offset: 0x8297D, size: 0x8, addend: 0x0, symName: __ZN3std7process5abort17hdc01e45e25b715e8E, symObjAddr: 0x20BA4, symBinAddr: 0x536F8, symSize: 0xC }
  - { offsetInCU: 0xB8A6, offset: 0x829AC, size: 0x8, addend: 0x0, symName: '__ZN126_$LT$std..thread..thread..thread_name_string..ThreadNameString$u20$as$u20$core..convert..From$LT$alloc..string..String$GT$$GT$4from17ha64d14fb74fc8073E', symObjAddr: 0xB2C, symBinAddr: 0x22EC4, symSize: 0x128 }
  - { offsetInCU: 0xBABC, offset: 0x82BC2, size: 0x8, addend: 0x0, symName: __ZN3std6thread6thread6Thread3new17h356aa6fbdd76e3faE, symObjAddr: 0x1F470, symBinAddr: 0x2CA4C, symSize: 0x18C }
  - { offsetInCU: 0xBEA5, offset: 0x82FAB, size: 0x8, addend: 0x0, symName: __ZN3std6thread5local18panic_access_error17h814180d74b427b6aE, symObjAddr: 0x1F324, symBinAddr: 0x5358C, symSize: 0x30 }
  - { offsetInCU: 0xBEC4, offset: 0x82FCA, size: 0x8, addend: 0x0, symName: '__ZN68_$LT$std..thread..local..AccessError$u20$as$u20$core..fmt..Debug$GT$3fmt17h4bd8a5bb0097f965E', symObjAddr: 0x45374, symBinAddr: 0x3F7E8, symSize: 0x38 }
  - { offsetInCU: 0xBEFE, offset: 0x83004, size: 0x8, addend: 0x0, symName: __ZN3std6thread9functions4park17h4b143ad52af9659eE, symObjAddr: 0x1FF38, symBinAddr: 0x2CF88, symSize: 0xC8 }
  - { offsetInCU: 0xC131, offset: 0x83237, size: 0x8, addend: 0x0, symName: '__ZN76_$LT$std..thread..functions..PanicGuard$u20$as$u20$core..ops..drop..Drop$GT$4drop17hb17a4da0a68fdbe3E', symObjAddr: 0x47104, symBinAddr: 0x56B74, symSize: 0x30 }
  - { offsetInCU: 0xC22B, offset: 0x83331, size: 0x8, addend: 0x0, symName: '__ZN3std6thread7current17with_current_name28_$u7b$$u7b$closure$u7d$$u7d$17h7b122d12040cc88dE', symObjAddr: 0x1F84C, symBinAddr: 0x2CBD8, symSize: 0x368 }
  - { offsetInCU: 0xC9C8, offset: 0x83ACE, size: 0x8, addend: 0x0, symName: __ZN3std6thread7current12init_current17hcdc81205fba7079eE, symObjAddr: 0x1F710, symBinAddr: 0x535BC, symSize: 0x13C }
  - { offsetInCU: 0xCC99, offset: 0x83D9F, size: 0x8, addend: 0x0, symName: __ZN3std6thread7current7current17hc3978f02dcbb7e2bE, symObjAddr: 0x1FC70, symBinAddr: 0x2CF40, symSize: 0x48 }
  - { offsetInCU: 0xCDCA, offset: 0x83ED0, size: 0x8, addend: 0x0, symName: __ZN3std6thread2id8ThreadId3new9exhausted17h16675e7d46b2497aE, symObjAddr: 0x1F304, symBinAddr: 0x5356C, symSize: 0x20 }
  - { offsetInCU: 0xCE22, offset: 0x83F28, size: 0x8, addend: 0x0, symName: __ZN3std12backtrace_rs5print17BacktraceFrameFmt21print_raw_with_column17hca68b0fba334b35fE, symObjAddr: 0xCD4, symBinAddr: 0x23028, symSize: 0x378 }
  - { offsetInCU: 0xD03A, offset: 0x84140, size: 0x8, addend: 0x0, symName: __ZN3std12backtrace_rs9backtrace9libunwind5trace8trace_fn17ha7419652fba8bbb9E, symObjAddr: 0x104C, symBinAddr: 0x233A0, symSize: 0x48 }
  - { offsetInCU: 0xD0F0, offset: 0x841F6, size: 0x8, addend: 0x0, symName: __ZN3std12backtrace_rs9symbolize5gimli4mmap17he272169bddfd4b7fE, symObjAddr: 0x1094, symBinAddr: 0x233E8, symSize: 0x1EC }
  - { offsetInCU: 0xD5FB, offset: 0x84701, size: 0x8, addend: 0x0, symName: __ZN3std12backtrace_rs9symbolize5gimli5macho11find_header17hd33c1118ff21db4fE, symObjAddr: 0x1280, symBinAddr: 0x235D4, symSize: 0x1D4 }
  - { offsetInCU: 0xD619, offset: 0x8471F, size: 0x8, addend: 0x0, symName: __ZN3std12backtrace_rs9symbolize5gimli5macho11find_header17hd33c1118ff21db4fE, symObjAddr: 0x1280, symBinAddr: 0x235D4, symSize: 0x1D4 }
  - { offsetInCU: 0xD62D, offset: 0x84733, size: 0x8, addend: 0x0, symName: __ZN3std12backtrace_rs9symbolize5gimli5macho11find_header17hd33c1118ff21db4fE, symObjAddr: 0x1280, symBinAddr: 0x235D4, symSize: 0x1D4 }
  - { offsetInCU: 0xD641, offset: 0x84747, size: 0x8, addend: 0x0, symName: __ZN3std12backtrace_rs9symbolize5gimli5macho11find_header17hd33c1118ff21db4fE, symObjAddr: 0x1280, symBinAddr: 0x235D4, symSize: 0x1D4 }
  - { offsetInCU: 0xD655, offset: 0x8475B, size: 0x8, addend: 0x0, symName: __ZN3std12backtrace_rs9symbolize5gimli5macho11find_header17hd33c1118ff21db4fE, symObjAddr: 0x1280, symBinAddr: 0x235D4, symSize: 0x1D4 }
  - { offsetInCU: 0xD66A, offset: 0x84770, size: 0x8, addend: 0x0, symName: __ZN3std12backtrace_rs9symbolize5gimli5macho11find_header17hd33c1118ff21db4fE, symObjAddr: 0x1280, symBinAddr: 0x235D4, symSize: 0x1D4 }
  - { offsetInCU: 0xD67F, offset: 0x84785, size: 0x8, addend: 0x0, symName: __ZN3std12backtrace_rs9symbolize5gimli5macho11find_header17hd33c1118ff21db4fE, symObjAddr: 0x1280, symBinAddr: 0x235D4, symSize: 0x1D4 }
  - { offsetInCU: 0xDD67, offset: 0x84E6D, size: 0x8, addend: 0x0, symName: __ZN3std12backtrace_rs9symbolize5gimli5macho6Object5parse17hf506a1efd7ff54a3E, symObjAddr: 0x1454, symBinAddr: 0x237A8, symSize: 0xC9C }
  - { offsetInCU: 0xFA13, offset: 0x86B19, size: 0x8, addend: 0x0, symName: __ZN3std12backtrace_rs9symbolize5gimli5macho6Object7section17he17befe272a4dbdbE, symObjAddr: 0x20F0, symBinAddr: 0x24444, symSize: 0x154 }
  - { offsetInCU: 0xFDF6, offset: 0x86EFC, size: 0x8, addend: 0x0, symName: __ZN3std12backtrace_rs9symbolize5gimli7Context11find_frames17hfcdc81a34a68b91aE, symObjAddr: 0x2244, symBinAddr: 0x24598, symSize: 0x394 }
  - { offsetInCU: 0x10227, offset: 0x8732D, size: 0x8, addend: 0x0, symName: __ZN3std12backtrace_rs9symbolize5gimli7Context3new17h1ea182b05b6e0992E, symObjAddr: 0x25D8, symBinAddr: 0x2492C, symSize: 0x1F0C }
  - { offsetInCU: 0x1444A, offset: 0x8B550, size: 0x8, addend: 0x0, symName: __ZN3std12backtrace_rs9symbolize5gimli7resolve17h009ffb5bcff28cb7E, symObjAddr: 0x44E4, symBinAddr: 0x26838, symSize: 0x2580 }
  - { offsetInCU: 0x199CD, offset: 0x90AD3, size: 0x8, addend: 0x0, symName: __ZN3std12backtrace_rs9symbolize6Symbol4name17h1d15ebfcd11b71feE, symObjAddr: 0x6A9C, symBinAddr: 0x28DB8, symSize: 0xD4 }
  - { offsetInCU: 0x19B36, offset: 0x90C3C, size: 0x8, addend: 0x0, symName: '__ZN79_$LT$std..backtrace_rs..symbolize..SymbolName$u20$as$u20$core..fmt..Display$GT$3fmt17hf60cd64a13bb79e7E', symObjAddr: 0x47F2C, symBinAddr: 0x40318, symSize: 0x104 }
  - { offsetInCU: 0x19C62, offset: 0x90D68, size: 0x8, addend: 0x0, symName: __ZN3std2fs10DirBuilder14create_dir_all17hda2880a7846e9356E, symObjAddr: 0x6B70, symBinAddr: 0x28E8C, symSize: 0x47C }
  - { offsetInCU: 0x1A433, offset: 0x91539, size: 0x8, addend: 0x0, symName: __ZN3std2fs10DirBuilder7_create17h88524462c4c2be57E, symObjAddr: 0x6FEC, symBinAddr: 0x29308, symSize: 0xC8 }
  - { offsetInCU: 0x1A597, offset: 0x9169D, size: 0x8, addend: 0x0, symName: '__ZN75_$LT$std..fs..ReadDir$u20$as$u20$core..iter..traits..iterator..Iterator$GT$4next17ha39b25c774f1f642E', symObjAddr: 0x46918, symBinAddr: 0x4018C, symSize: 0x18C }
  - { offsetInCU: 0x1A9D0, offset: 0x91AD6, size: 0x8, addend: 0x0, symName: '__ZN64_$LT$std..ffi..os_str..Display$u20$as$u20$core..fmt..Display$GT$3fmt17h9b276ae677c3f105E', symObjAddr: 0x442B8, symBinAddr: 0x3F5D0, symSize: 0xAC }
  - { offsetInCU: 0x1AA52, offset: 0x91B58, size: 0x8, addend: 0x0, symName: '__ZN3std4sync6poison5mutex14Mutex$LT$T$GT$4lock17hf0cb97a4e3e2c200E', symObjAddr: 0x1E5B8, symBinAddr: 0x2C784, symSize: 0x78 }
  - { offsetInCU: 0x1AD35, offset: 0x91E3B, size: 0x8, addend: 0x0, symName: __ZN3std5panic13resume_unwind17h8649113de77584efE, symObjAddr: 0x1F188, symBinAddr: 0x53560, symSize: 0xC }
  - { offsetInCU: 0x1AD62, offset: 0x91E68, size: 0x8, addend: 0x0, symName: __ZN3std5panic19get_backtrace_style17hf1e68ecb2afa3e09E, symObjAddr: 0x1F194, symBinAddr: 0x2C930, symSize: 0x11C }
  - { offsetInCU: 0x1AD80, offset: 0x91E86, size: 0x8, addend: 0x0, symName: __ZN3std5panic19get_backtrace_style17hf1e68ecb2afa3e09E, symObjAddr: 0x1F194, symBinAddr: 0x2C930, symSize: 0x11C }
  - { offsetInCU: 0x1AD95, offset: 0x91E9B, size: 0x8, addend: 0x0, symName: __ZN3std5panic19get_backtrace_style17hf1e68ecb2afa3e09E, symObjAddr: 0x1F194, symBinAddr: 0x2C930, symSize: 0x11C }
  - { offsetInCU: 0x1B1F7, offset: 0x922FD, size: 0x8, addend: 0x0, symName: __ZN3std3env11current_dir17he7f55ba519818f7aE, symObjAddr: 0xC66C, symBinAddr: 0x2A588, symSize: 0x18C }
  - { offsetInCU: 0x1B5B3, offset: 0x926B9, size: 0x8, addend: 0x0, symName: __ZN3std3env4_var17hc9f2be1c2b77359eE, symObjAddr: 0xC8C4, symBinAddr: 0x2A714, symSize: 0x98 }
  - { offsetInCU: 0x1B6AE, offset: 0x927B4, size: 0x8, addend: 0x0, symName: __ZN3std3env7_var_os17h6bd9111edd9950c4E, symObjAddr: 0xC964, symBinAddr: 0x2A7AC, symSize: 0x16C }
  - { offsetInCU: 0x1D3EE, offset: 0x944F4, size: 0x8, addend: 0x0, symName: '__ZN4core3ptr107drop_in_place$LT$core..pin..Pin$LT$alloc..boxed..Box$LT$std..sys..pal..unix..sync..mutex..Mutex$GT$$GT$$GT$17hcdcee00700bbe8b4E', symObjAddr: 0x241D8, symBinAddr: 0x2E01C, symSize: 0x2C }
  - { offsetInCU: 0x1D484, offset: 0x9458A, size: 0x8, addend: 0x0, symName: '__ZN4core3ptr109drop_in_place$LT$alloc..sync..Arc$LT$std..sync..poison..mutex..Mutex$LT$alloc..vec..Vec$LT$u8$GT$$GT$$GT$$GT$17h6b26ae08b8d0e28dE', symObjAddr: 0x24204, symBinAddr: 0x2E048, symSize: 0x20 }
  - { offsetInCU: 0x1D49C, offset: 0x945A2, size: 0x8, addend: 0x0, symName: '__ZN4core3ptr109drop_in_place$LT$alloc..sync..Arc$LT$std..sync..poison..mutex..Mutex$LT$alloc..vec..Vec$LT$u8$GT$$GT$$GT$$GT$17h6b26ae08b8d0e28dE', symObjAddr: 0x24204, symBinAddr: 0x2E048, symSize: 0x20 }
  - { offsetInCU: 0x1D4B1, offset: 0x945B7, size: 0x8, addend: 0x0, symName: '__ZN4core3ptr109drop_in_place$LT$alloc..sync..Arc$LT$std..sync..poison..mutex..Mutex$LT$alloc..vec..Vec$LT$u8$GT$$GT$$GT$$GT$17h6b26ae08b8d0e28dE', symObjAddr: 0x24204, symBinAddr: 0x2E048, symSize: 0x20 }
  - { offsetInCU: 0x1D4C6, offset: 0x945CC, size: 0x8, addend: 0x0, symName: '__ZN4core3ptr109drop_in_place$LT$alloc..sync..Arc$LT$std..sync..poison..mutex..Mutex$LT$alloc..vec..Vec$LT$u8$GT$$GT$$GT$$GT$17h6b26ae08b8d0e28dE', symObjAddr: 0x24204, symBinAddr: 0x2E048, symSize: 0x20 }
  - { offsetInCU: 0x1D519, offset: 0x9461F, size: 0x8, addend: 0x0, symName: '__ZN4core3ptr119drop_in_place$LT$std..io..default_write_fmt..Adapter$LT$std..io..cursor..Cursor$LT$$RF$mut$u20$$u5b$u8$u5d$$GT$$GT$$GT$17h4dab32ab59ff2f01E', symObjAddr: 0x242A0, symBinAddr: 0x2E068, symSize: 0x10 }
  - { offsetInCU: 0x1D531, offset: 0x94637, size: 0x8, addend: 0x0, symName: '__ZN4core3ptr119drop_in_place$LT$std..io..default_write_fmt..Adapter$LT$std..io..cursor..Cursor$LT$$RF$mut$u20$$u5b$u8$u5d$$GT$$GT$$GT$17h4dab32ab59ff2f01E', symObjAddr: 0x242A0, symBinAddr: 0x2E068, symSize: 0x10 }
  - { offsetInCU: 0x1D543, offset: 0x94649, size: 0x8, addend: 0x0, symName: '__ZN4core3ptr123drop_in_place$LT$addr2line..Context$LT$gimli..read..endian_slice..EndianSlice$LT$gimli..endianity..LittleEndian$GT$$GT$$GT$17h9fdaa4ce67b5ffb2E', symObjAddr: 0x242B0, symBinAddr: 0x2E078, symSize: 0x70 }
  - { offsetInCU: 0x1D648, offset: 0x9474E, size: 0x8, addend: 0x0, symName: '__ZN4core3ptr129drop_in_place$LT$addr2line..unit..ResUnit$LT$gimli..read..endian_slice..EndianSlice$LT$gimli..endianity..LittleEndian$GT$$GT$$GT$17hcde32c30baa34bd7E', symObjAddr: 0x24468, symBinAddr: 0x2E0E8, symSize: 0xE4 }
  - { offsetInCU: 0x1D865, offset: 0x9496B, size: 0x8, addend: 0x0, symName: '__ZN4core3ptr129drop_in_place$LT$addr2line..unit..SupUnit$LT$gimli..read..endian_slice..EndianSlice$LT$gimli..endianity..LittleEndian$GT$$GT$$GT$17ha449f8c4cf4803a5E', symObjAddr: 0x2454C, symBinAddr: 0x2E1CC, symSize: 0x54 }
  - { offsetInCU: 0x1D922, offset: 0x94A28, size: 0x8, addend: 0x0, symName: '__ZN4core3ptr130drop_in_place$LT$addr2line..unit..ResUnits$LT$gimli..read..endian_slice..EndianSlice$LT$gimli..endianity..LittleEndian$GT$$GT$$GT$17ha3ed9411901d1ec3E', symObjAddr: 0x245A0, symBinAddr: 0x2E220, symSize: 0xD0 }
  - { offsetInCU: 0x1DAC6, offset: 0x94BCC, size: 0x8, addend: 0x0, symName: '__ZN4core3ptr130drop_in_place$LT$addr2line..unit..SupUnits$LT$gimli..read..endian_slice..EndianSlice$LT$gimli..endianity..LittleEndian$GT$$GT$$GT$17h77d10f001b1ca24cE', symObjAddr: 0x24670, symBinAddr: 0x2E2F0, symSize: 0xE4 }
  - { offsetInCU: 0x1DC75, offset: 0x94D7B, size: 0x8, addend: 0x0, symName: '__ZN4core3ptr130drop_in_place$LT$gimli..read..dwarf..Dwarf$LT$gimli..read..endian_slice..EndianSlice$LT$gimli..endianity..LittleEndian$GT$$GT$$GT$17hd42ebb4664daca92E', symObjAddr: 0x24754, symBinAddr: 0x2E3D4, symSize: 0x58 }
  - { offsetInCU: 0x1DD0A, offset: 0x94E10, size: 0x8, addend: 0x0, symName: '__ZN4core3ptr131drop_in_place$LT$$u5b$core..option..Option$LT$core..option..Option$LT$std..backtrace_rs..symbolize..gimli..Mapping$GT$$GT$$u5d$$GT$17h617d1488d1e2cf46E', symObjAddr: 0x247AC, symBinAddr: 0x2E42C, symSize: 0xCC }
  - { offsetInCU: 0x1DDB3, offset: 0x94EB9, size: 0x8, addend: 0x0, symName: '__ZN4core3ptr137drop_in_place$LT$gimli..read..dwarf..Unit$LT$gimli..read..endian_slice..EndianSlice$LT$gimli..endianity..LittleEndian$GT$$C$usize$GT$$GT$17h295291503aabf2e2E', symObjAddr: 0x24878, symBinAddr: 0x2E4F8, symSize: 0x54 }
  - { offsetInCU: 0x1DEA8, offset: 0x94FAE, size: 0x8, addend: 0x0, symName: '__ZN4core3ptr138drop_in_place$LT$addr2line..function..LazyFunction$LT$gimli..read..endian_slice..EndianSlice$LT$gimli..endianity..LittleEndian$GT$$GT$$GT$17h18c14c4f086b6082E', symObjAddr: 0x248CC, symBinAddr: 0x2E54C, symSize: 0x64 }
  - { offsetInCU: 0x1DEBF, offset: 0x94FC5, size: 0x8, addend: 0x0, symName: '__ZN4core3ptr138drop_in_place$LT$addr2line..function..LazyFunction$LT$gimli..read..endian_slice..EndianSlice$LT$gimli..endianity..LittleEndian$GT$$GT$$GT$17h18c14c4f086b6082E', symObjAddr: 0x248CC, symBinAddr: 0x2E54C, symSize: 0x64 }
  - { offsetInCU: 0x1DED4, offset: 0x94FDA, size: 0x8, addend: 0x0, symName: '__ZN4core3ptr138drop_in_place$LT$addr2line..function..LazyFunction$LT$gimli..read..endian_slice..EndianSlice$LT$gimli..endianity..LittleEndian$GT$$GT$$GT$17h18c14c4f086b6082E', symObjAddr: 0x248CC, symBinAddr: 0x2E54C, symSize: 0x64 }
  - { offsetInCU: 0x1DEE9, offset: 0x94FEF, size: 0x8, addend: 0x0, symName: '__ZN4core3ptr138drop_in_place$LT$addr2line..function..LazyFunction$LT$gimli..read..endian_slice..EndianSlice$LT$gimli..endianity..LittleEndian$GT$$GT$$GT$17h18c14c4f086b6082E', symObjAddr: 0x248CC, symBinAddr: 0x2E54C, symSize: 0x64 }
  - { offsetInCU: 0x1E01C, offset: 0x95122, size: 0x8, addend: 0x0, symName: '__ZN4core3ptr144drop_in_place$LT$alloc..vec..Vec$LT$core..option..Option$LT$core..option..Option$LT$std..backtrace_rs..symbolize..gimli..Mapping$GT$$GT$$GT$$GT$17h60d3588af6258906E', symObjAddr: 0x24930, symBinAddr: 0x2E5B0, symSize: 0x78 }
  - { offsetInCU: 0x1E175, offset: 0x9527B, size: 0x8, addend: 0x0, symName: '__ZN4core3ptr152drop_in_place$LT$alloc..vec..Vec$LT$addr2line..unit..ResUnit$LT$gimli..read..endian_slice..EndianSlice$LT$gimli..endianity..LittleEndian$GT$$GT$$GT$$GT$17he2f872fcd89771f1E', symObjAddr: 0x24A64, symBinAddr: 0x2E628, symSize: 0xC4 }
  - { offsetInCU: 0x1E2E1, offset: 0x953E7, size: 0x8, addend: 0x0, symName: '__ZN4core3ptr152drop_in_place$LT$alloc..vec..Vec$LT$addr2line..unit..SupUnit$LT$gimli..read..endian_slice..EndianSlice$LT$gimli..endianity..LittleEndian$GT$$GT$$GT$$GT$17h6e44fc5b6f04284cE', symObjAddr: 0x24B28, symBinAddr: 0x2E6EC, symSize: 0xF4 }
  - { offsetInCU: 0x1E4F7, offset: 0x955FD, size: 0x8, addend: 0x0, symName: '__ZN4core3ptr152drop_in_place$LT$core..result..Result$LT$$RF$std..thread..thread..Thread$C$$LP$$RF$std..thread..thread..Thread$C$std..thread..thread..Thread$RP$$GT$$GT$17h4d2805482ff1c9f8E', symObjAddr: 0x24C1C, symBinAddr: 0x2E7E0, symSize: 0x28 }
  - { offsetInCU: 0x1E5EB, offset: 0x956F1, size: 0x8, addend: 0x0, symName: '__ZN4core3ptr154drop_in_place$LT$alloc..boxed..Box$LT$dyn$u20$core..ops..function..FnOnce$LT$$LP$$RP$$GT$$u2b$Output$u20$$u3d$$u20$$LP$$RP$$u2b$core..marker..Send$GT$$GT$17hf0f4fd0226432ff5E', symObjAddr: 0x24C44, symBinAddr: 0x2E808, symSize: 0x78 }
  - { offsetInCU: 0x1E6E2, offset: 0x957E8, size: 0x8, addend: 0x0, symName: '__ZN4core3ptr156drop_in_place$LT$alloc..boxed..Box$LT$$u5b$core..option..Option$LT$core..option..Option$LT$std..backtrace_rs..symbolize..gimli..Mapping$GT$$GT$$u5d$$GT$$GT$17h83de759b361424e1E', symObjAddr: 0x24CBC, symBinAddr: 0x2E880, symSize: 0xF8 }
  - { offsetInCU: 0x1E809, offset: 0x9590F, size: 0x8, addend: 0x0, symName: '__ZN4core3ptr159drop_in_place$LT$alloc..sync..ArcInner$LT$gimli..read..dwarf..Dwarf$LT$gimli..read..endian_slice..EndianSlice$LT$gimli..endianity..LittleEndian$GT$$GT$$GT$$GT$17h19aa16591fbb2a4bE', symObjAddr: 0x24E30, symBinAddr: 0x2E978, symSize: 0x5C }
  - { offsetInCU: 0x1E8CA, offset: 0x959D0, size: 0x8, addend: 0x0, symName: '__ZN4core3ptr161drop_in_place$LT$alloc..vec..Vec$LT$addr2line..function..LazyFunction$LT$gimli..read..endian_slice..EndianSlice$LT$gimli..endianity..LittleEndian$GT$$GT$$GT$$GT$17h2aa2164c5ca30afbE', symObjAddr: 0x24E8C, symBinAddr: 0x2E9D4, symSize: 0xAC }
  - { offsetInCU: 0x1EB05, offset: 0x95C0B, size: 0x8, addend: 0x0, symName: '__ZN4core3ptr173drop_in_place$LT$alloc..boxed..Box$LT$$u5b$addr2line..function..LazyFunction$LT$gimli..read..endian_slice..EndianSlice$LT$gimli..endianity..LittleEndian$GT$$GT$$u5d$$GT$$GT$17hc53f1051ea076b89E', symObjAddr: 0x24FE4, symBinAddr: 0x2EA80, symSize: 0x9C }
  - { offsetInCU: 0x1EB1C, offset: 0x95C22, size: 0x8, addend: 0x0, symName: '__ZN4core3ptr173drop_in_place$LT$alloc..boxed..Box$LT$$u5b$addr2line..function..LazyFunction$LT$gimli..read..endian_slice..EndianSlice$LT$gimli..endianity..LittleEndian$GT$$GT$$u5d$$GT$$GT$17hc53f1051ea076b89E', symObjAddr: 0x24FE4, symBinAddr: 0x2EA80, symSize: 0x9C }
  - { offsetInCU: 0x1ECF0, offset: 0x95DF6, size: 0x8, addend: 0x0, symName: '__ZN4core3ptr181drop_in_place$LT$core..option..Option$LT$gimli..read..line..IncompleteLineProgram$LT$gimli..read..endian_slice..EndianSlice$LT$gimli..endianity..LittleEndian$GT$$C$usize$GT$$GT$$GT$17h826f74209a029f6dE', symObjAddr: 0x250F0, symBinAddr: 0x2EB1C, symSize: 0x98 }
  - { offsetInCU: 0x1EF48, offset: 0x9604E, size: 0x8, addend: 0x0, symName: '__ZN4core3ptr181drop_in_place$LT$core..result..Result$LT$addr2line..frame..FrameIter$LT$gimli..read..endian_slice..EndianSlice$LT$gimli..endianity..LittleEndian$GT$$GT$$C$gimli..read..Error$GT$$GT$17hd7f0f94ce7b15d64E', symObjAddr: 0x25188, symBinAddr: 0x2EBB4, symSize: 0x34 }
  - { offsetInCU: 0x1F083, offset: 0x96189, size: 0x8, addend: 0x0, symName: '__ZN4core3ptr184drop_in_place$LT$core..result..Result$LT$addr2line..function..Functions$LT$gimli..read..endian_slice..EndianSlice$LT$gimli..endianity..LittleEndian$GT$$GT$$C$gimli..read..Error$GT$$GT$17h296814b70b5346faE', symObjAddr: 0x251BC, symBinAddr: 0x2EBE8, symSize: 0xD8 }
  - { offsetInCU: 0x1F339, offset: 0x9643F, size: 0x8, addend: 0x0, symName: '__ZN4core3ptr231drop_in_place$LT$core..result..Result$LT$core..option..Option$LT$alloc..boxed..Box$LT$addr2line..unit..DwoUnit$LT$gimli..read..endian_slice..EndianSlice$LT$gimli..endianity..LittleEndian$GT$$GT$$GT$$GT$$C$gimli..read..Error$GT$$GT$17h433fbdb073f5a2b7E', symObjAddr: 0x25398, symBinAddr: 0x2ECC0, symSize: 0xD4 }
  - { offsetInCU: 0x1F512, offset: 0x96618, size: 0x8, addend: 0x0, symName: '__ZN4core3ptr238drop_in_place$LT$alloc..boxed..convert..$LT$impl$u20$core..convert..From$LT$alloc..string..String$GT$$u20$for$u20$alloc..boxed..Box$LT$dyn$u20$core..error..Error$u2b$core..marker..Sync$u2b$core..marker..Send$GT$$GT$..from..StringError$GT$17h580cc086aaf076b5E', symObjAddr: 0x2546C, symBinAddr: 0x2ED94, symSize: 0x18 }
  - { offsetInCU: 0x1F52A, offset: 0x96630, size: 0x8, addend: 0x0, symName: '__ZN4core3ptr238drop_in_place$LT$alloc..boxed..convert..$LT$impl$u20$core..convert..From$LT$alloc..string..String$GT$$u20$for$u20$alloc..boxed..Box$LT$dyn$u20$core..error..Error$u2b$core..marker..Sync$u2b$core..marker..Send$GT$$GT$..from..StringError$GT$17h580cc086aaf076b5E', symObjAddr: 0x2546C, symBinAddr: 0x2ED94, symSize: 0x18 }
  - { offsetInCU: 0x1F53F, offset: 0x96645, size: 0x8, addend: 0x0, symName: '__ZN4core3ptr238drop_in_place$LT$alloc..boxed..convert..$LT$impl$u20$core..convert..From$LT$alloc..string..String$GT$$u20$for$u20$alloc..boxed..Box$LT$dyn$u20$core..error..Error$u2b$core..marker..Sync$u2b$core..marker..Send$GT$$GT$..from..StringError$GT$17h580cc086aaf076b5E', symObjAddr: 0x2546C, symBinAddr: 0x2ED94, symSize: 0x18 }
  - { offsetInCU: 0x1F5BD, offset: 0x966C3, size: 0x8, addend: 0x0, symName: '__ZN4core3ptr275drop_in_place$LT$gimli..read..line..LineRows$LT$gimli..read..endian_slice..EndianSlice$LT$gimli..endianity..LittleEndian$GT$$C$gimli..read..line..IncompleteLineProgram$LT$gimli..read..endian_slice..EndianSlice$LT$gimli..endianity..LittleEndian$GT$$C$usize$GT$$C$usize$GT$$GT$17h83f9ebb3aeea62afE', symObjAddr: 0x25484, symBinAddr: 0x2EDAC, symSize: 0x8C }
  - { offsetInCU: 0x1F82F, offset: 0x96935, size: 0x8, addend: 0x0, symName: '__ZN4core3ptr280drop_in_place$LT$$LT$alloc..collections..btree..map..IntoIter$LT$K$C$V$C$A$GT$$u20$as$u20$core..ops..drop..Drop$GT$..drop..DropGuard$LT$u64$C$core..result..Result$LT$alloc..sync..Arc$LT$gimli..read..abbrev..Abbreviations$GT$$C$gimli..read..Error$GT$$C$alloc..alloc..Global$GT$$GT$17h63bc061c50375c15E', symObjAddr: 0x25510, symBinAddr: 0x2EE38, symSize: 0x84 }
  - { offsetInCU: 0x1F99D, offset: 0x96AA3, size: 0x8, addend: 0x0, symName: '__ZN4core3ptr284drop_in_place$LT$core..result..Result$LT$$RF$core..result..Result$LT$addr2line..line..Lines$C$gimli..read..Error$GT$$C$$LP$$RF$core..result..Result$LT$addr2line..line..Lines$C$gimli..read..Error$GT$$C$core..result..Result$LT$addr2line..line..Lines$C$gimli..read..Error$GT$$RP$$GT$$GT$17h029038b2c8cfe25dE', symObjAddr: 0x25594, symBinAddr: 0x2EEBC, symSize: 0x10 }
  - { offsetInCU: 0x1F9CE, offset: 0x96AD4, size: 0x8, addend: 0x0, symName: '__ZN4core3ptr42drop_in_place$LT$alloc..string..String$GT$17hd888f812b0218076E', symObjAddr: 0x25738, symBinAddr: 0x2EECC, symSize: 0x18 }
  - { offsetInCU: 0x1F9E6, offset: 0x96AEC, size: 0x8, addend: 0x0, symName: '__ZN4core3ptr42drop_in_place$LT$alloc..string..String$GT$17hd888f812b0218076E', symObjAddr: 0x25738, symBinAddr: 0x2EECC, symSize: 0x18 }
  - { offsetInCU: 0x1FA63, offset: 0x96B69, size: 0x8, addend: 0x0, symName: '__ZN4core3ptr42drop_in_place$LT$std..io..error..Error$GT$17h1855fe50c1c57d9cE', symObjAddr: 0x25750, symBinAddr: 0x2EEE4, symSize: 0xAC }
  - { offsetInCU: 0x1FC46, offset: 0x96D4C, size: 0x8, addend: 0x0, symName: '__ZN4core3ptr44drop_in_place$LT$object..read..ObjectMap$GT$17ha616da8bbd65ca9bE', symObjAddr: 0x257FC, symBinAddr: 0x2EF90, symSize: 0x58 }
  - { offsetInCU: 0x1FD74, offset: 0x96E7A, size: 0x8, addend: 0x0, symName: '__ZN4core3ptr46drop_in_place$LT$alloc..vec..Vec$LT$u8$GT$$GT$17h68cc23d56d456bcdE', symObjAddr: 0x25914, symBinAddr: 0x2EFE8, symSize: 0x18 }
  - { offsetInCU: 0x1FDF3, offset: 0x96EF9, size: 0x8, addend: 0x0, symName: '__ZN4core3ptr46drop_in_place$LT$std..io..stdio..StdinLock$GT$17h9ee511298e2ee894E', symObjAddr: 0x2592C, symBinAddr: 0x2F000, symSize: 0x54 }
  - { offsetInCU: 0x1FE0A, offset: 0x96F10, size: 0x8, addend: 0x0, symName: '__ZN4core3ptr46drop_in_place$LT$std..io..stdio..StdinLock$GT$17h9ee511298e2ee894E', symObjAddr: 0x2592C, symBinAddr: 0x2F000, symSize: 0x54 }
  - { offsetInCU: 0x1FE1F, offset: 0x96F25, size: 0x8, addend: 0x0, symName: '__ZN4core3ptr46drop_in_place$LT$std..io..stdio..StdinLock$GT$17h9ee511298e2ee894E', symObjAddr: 0x2592C, symBinAddr: 0x2F000, symSize: 0x54 }
  - { offsetInCU: 0x1FF00, offset: 0x97006, size: 0x8, addend: 0x0, symName: '__ZN4core3ptr48drop_in_place$LT$alloc..ffi..c_str..NulError$GT$17he07ddd5b2ccc63b8E', symObjAddr: 0x25A64, symBinAddr: 0x2F054, symSize: 0x18 }
  - { offsetInCU: 0x1FF18, offset: 0x9701E, size: 0x8, addend: 0x0, symName: '__ZN4core3ptr48drop_in_place$LT$alloc..ffi..c_str..NulError$GT$17he07ddd5b2ccc63b8E', symObjAddr: 0x25A64, symBinAddr: 0x2F054, symSize: 0x18 }
  - { offsetInCU: 0x1FFA2, offset: 0x970A8, size: 0x8, addend: 0x0, symName: '__ZN4core3ptr557drop_in_place$LT$core..result..Result$LT$$RF$core..result..Result$LT$addr2line..function..Function$LT$gimli..read..endian_slice..EndianSlice$LT$gimli..endianity..LittleEndian$GT$$GT$$C$gimli..read..Error$GT$$C$$LP$$RF$core..result..Result$LT$addr2line..function..Function$LT$gimli..read..endian_slice..EndianSlice$LT$gimli..endianity..LittleEndian$GT$$GT$$C$gimli..read..Error$GT$$C$core..result..Result$LT$addr2line..function..Function$LT$gimli..read..endian_slice..EndianSlice$LT$gimli..endianity..LittleEndian$GT$$GT$$C$gimli..read..Error$GT$$RP$$GT$$GT$17h22c92c92584c372cE', symObjAddr: 0x25D48, symBinAddr: 0x2F06C, symSize: 0x64 }
  - { offsetInCU: 0x20180, offset: 0x97286, size: 0x8, addend: 0x0, symName: '__ZN4core3ptr55drop_in_place$LT$gimli..read..abbrev..Abbreviations$GT$17h121ea134c35114e2E', symObjAddr: 0x25DAC, symBinAddr: 0x2F0D0, symSize: 0x118 }
  - { offsetInCU: 0x204E1, offset: 0x975E7, size: 0x8, addend: 0x0, symName: '__ZN4core3ptr560drop_in_place$LT$core..result..Result$LT$$RF$core..result..Result$LT$addr2line..function..Functions$LT$gimli..read..endian_slice..EndianSlice$LT$gimli..endianity..LittleEndian$GT$$GT$$C$gimli..read..Error$GT$$C$$LP$$RF$core..result..Result$LT$addr2line..function..Functions$LT$gimli..read..endian_slice..EndianSlice$LT$gimli..endianity..LittleEndian$GT$$GT$$C$gimli..read..Error$GT$$C$core..result..Result$LT$addr2line..function..Functions$LT$gimli..read..endian_slice..EndianSlice$LT$gimli..endianity..LittleEndian$GT$$GT$$C$gimli..read..Error$GT$$RP$$GT$$GT$17h4bb1354476b580beE', symObjAddr: 0x25F48, symBinAddr: 0x2F1E8, symSize: 0x10 }
  - { offsetInCU: 0x20539, offset: 0x9763F, size: 0x8, addend: 0x0, symName: '__ZN4core3ptr60drop_in_place$LT$gimli..read..abbrev..AbbreviationsCache$GT$17h274c9abad2c82b75E', symObjAddr: 0x25F58, symBinAddr: 0x2F1F8, symSize: 0xCC }
  - { offsetInCU: 0x206E3, offset: 0x977E9, size: 0x8, addend: 0x0, symName: '__ZN4core3ptr61drop_in_place$LT$std..panicking..resume_unwind..RewrapBox$GT$17h63789703fc632272E', symObjAddr: 0x26024, symBinAddr: 0x2F2C4, symSize: 0x6C }
  - { offsetInCU: 0x207DB, offset: 0x978E1, size: 0x8, addend: 0x0, symName: '__ZN4core3ptr64drop_in_place$LT$std..sys..pal..unix..sync..mutex..AttrGuard$GT$17h20d725a80b90d492E', symObjAddr: 0x26090, symBinAddr: 0x2F330, symSize: 0x44 }
  - { offsetInCU: 0x20816, offset: 0x9791C, size: 0x8, addend: 0x0, symName: '__ZN4core3ptr65drop_in_place$LT$alloc..vec..Vec$LT$alloc..string..String$GT$$GT$17hac2f56803c48dad9E', symObjAddr: 0x2614C, symBinAddr: 0x2F374, symSize: 0x80 }
  - { offsetInCU: 0x20986, offset: 0x97A8C, size: 0x8, addend: 0x0, symName: '__ZN4core3ptr65drop_in_place$LT$std..backtrace_rs..symbolize..gimli..Context$GT$17hb6a7e8b32d01fe67E', symObjAddr: 0x261CC, symBinAddr: 0x2F3F4, symSize: 0xE8 }
  - { offsetInCU: 0x20C17, offset: 0x97D1D, size: 0x8, addend: 0x0, symName: '__ZN4core3ptr66drop_in_place$LT$std..backtrace_rs..backtrace..libunwind..Bomb$GT$17h09b419520806aff3E', symObjAddr: 0x262B8, symBinAddr: 0x2F4DC, symSize: 0x28 }
  - { offsetInCU: 0x20C4C, offset: 0x97D52, size: 0x8, addend: 0x0, symName: '__ZN4core3ptr701drop_in_place$LT$core..result..Result$LT$$RF$core..result..Result$LT$core..option..Option$LT$alloc..boxed..Box$LT$addr2line..unit..DwoUnit$LT$gimli..read..endian_slice..EndianSlice$LT$gimli..endianity..LittleEndian$GT$$GT$$GT$$GT$$C$gimli..read..Error$GT$$C$$LP$$RF$core..result..Result$LT$core..option..Option$LT$alloc..boxed..Box$LT$addr2line..unit..DwoUnit$LT$gimli..read..endian_slice..EndianSlice$LT$gimli..endianity..LittleEndian$GT$$GT$$GT$$GT$$C$gimli..read..Error$GT$$C$core..result..Result$LT$core..option..Option$LT$alloc..boxed..Box$LT$addr2line..unit..DwoUnit$LT$gimli..read..endian_slice..EndianSlice$LT$gimli..endianity..LittleEndian$GT$$GT$$GT$$GT$$C$gimli..read..Error$GT$$RP$$GT$$GT$17h86f0c9b9cc30b73fE', symObjAddr: 0x262E0, symBinAddr: 0x2F504, symSize: 0x14 }
  - { offsetInCU: 0x20CE5, offset: 0x97DEB, size: 0x8, addend: 0x0, symName: '__ZN4core3ptr70drop_in_place$LT$std..backtrace_rs..symbolize..gimli..stash..Stash$GT$17h1e68cfdecc013778E', symObjAddr: 0x26374, symBinAddr: 0x2F518, symSize: 0xB8 }
  - { offsetInCU: 0x20F88, offset: 0x9808E, size: 0x8, addend: 0x0, symName: '__ZN4core3ptr71drop_in_place$LT$std..backtrace_rs..symbolize..gimli..macho..Object$GT$17h16f25c1205b4b006E', symObjAddr: 0x2642C, symBinAddr: 0x2F5D0, symSize: 0xD8 }
  - { offsetInCU: 0x2124C, offset: 0x98352, size: 0x8, addend: 0x0, symName: '__ZN4core3ptr71drop_in_place$LT$std..panicking..panic_handler..FormatStringPayload$GT$17hb2d75f1b6a4a0e61E', symObjAddr: 0x26504, symBinAddr: 0x2F6A8, symSize: 0x1C }
  - { offsetInCU: 0x21308, offset: 0x9840E, size: 0x8, addend: 0x0, symName: '__ZN4core3ptr72drop_in_place$LT$core..option..Option$LT$object..read..ObjectMap$GT$$GT$17h3669427a15d5db8eE', symObjAddr: 0x26520, symBinAddr: 0x2F6C4, symSize: 0x64 }
  - { offsetInCU: 0x21480, offset: 0x98586, size: 0x8, addend: 0x0, symName: '__ZN4core3ptr73drop_in_place$LT$alloc..vec..Vec$LT$addr2line..line..LineSequence$GT$$GT$17ha5d2e9115cb35e75E', symObjAddr: 0x26584, symBinAddr: 0x2F728, symSize: 0x84 }
  - { offsetInCU: 0x215D7, offset: 0x986DD, size: 0x8, addend: 0x0, symName: '__ZN4core3ptr77drop_in_place$LT$alloc..boxed..Box$LT$$u5b$alloc..string..String$u5d$$GT$$GT$17h24024ef1beb8ddcfE', symObjAddr: 0x26640, symBinAddr: 0x2F7AC, symSize: 0x70 }
  - { offsetInCU: 0x215EE, offset: 0x986F4, size: 0x8, addend: 0x0, symName: '__ZN4core3ptr77drop_in_place$LT$alloc..boxed..Box$LT$$u5b$alloc..string..String$u5d$$GT$$GT$17h24024ef1beb8ddcfE', symObjAddr: 0x26640, symBinAddr: 0x2F7AC, symSize: 0x70 }
  - { offsetInCU: 0x216EA, offset: 0x987F0, size: 0x8, addend: 0x0, symName: '__ZN4core3ptr79drop_in_place$LT$std..sync..poison..rwlock..RwLockReadGuard$LT$$LP$$RP$$GT$$GT$17h7fdb402a9126fa4dE', symObjAddr: 0x266E0, symBinAddr: 0x2F81C, symSize: 0x58 }
  - { offsetInCU: 0x21784, offset: 0x9888A, size: 0x8, addend: 0x0, symName: '__ZN4core3ptr81drop_in_place$LT$core..result..Result$LT$$LP$$RP$$C$std..io..error..Error$GT$$GT$17h8ea71b20ee63e279E', symObjAddr: 0x267E4, symBinAddr: 0x2F874, symSize: 0x10 }
  - { offsetInCU: 0x217B2, offset: 0x988B8, size: 0x8, addend: 0x0, symName: '__ZN4core3ptr82drop_in_place$LT$alloc..sync..ArcInner$LT$std..sys..fs..unix..InnerReadDir$GT$$GT$17hdc09d14659c54561E', symObjAddr: 0x268C8, symBinAddr: 0x2F884, symSize: 0x60 }
  - { offsetInCU: 0x2197B, offset: 0x98A81, size: 0x8, addend: 0x0, symName: '__ZN4core3ptr92drop_in_place$LT$core..result..Result$LT$addr2line..line..Lines$C$gimli..read..Error$GT$$GT$17h38b50255f608d2c2E', symObjAddr: 0x26A5C, symBinAddr: 0x2F8E4, symSize: 0xE4 }
  - { offsetInCU: 0x21BBF, offset: 0x98CC5, size: 0x8, addend: 0x0, symName: '__ZN4core3ptr93drop_in_place$LT$core..option..Option$LT$std..backtrace_rs..symbolize..gimli..Mapping$GT$$GT$17h296ac5c1080ae57aE', symObjAddr: 0x26B40, symBinAddr: 0x2F9C8, symSize: 0x6C }
  - { offsetInCU: 0x23C2B, offset: 0x9AD31, size: 0x8, addend: 0x0, symName: __ZN4core5slice4sort8unstable7ipnsort17h0818d1061040e766E, symObjAddr: 0x305F4, symBinAddr: 0x3662C, symSize: 0x1A8 }
  - { offsetInCU: 0x23EF5, offset: 0x9AFFB, size: 0x8, addend: 0x0, symName: __ZN4core5slice4sort8unstable7ipnsort17h19c62b59a725978dE, symObjAddr: 0x3079C, symBinAddr: 0x367D4, symSize: 0xEC }
  - { offsetInCU: 0x2404C, offset: 0x9B152, size: 0x8, addend: 0x0, symName: __ZN4core5slice4sort8unstable8heapsort8heapsort17h71cf3a6d9aafb841E, symObjAddr: 0x30888, symBinAddr: 0x368C0, symSize: 0x100 }
  - { offsetInCU: 0x24248, offset: 0x9B34E, size: 0x8, addend: 0x0, symName: __ZN4core5slice4sort8unstable8heapsort8heapsort17ha43d83b4df57c044E, symObjAddr: 0x30988, symBinAddr: 0x369C0, symSize: 0x160 }
  - { offsetInCU: 0x245EC, offset: 0x9B6F2, size: 0x8, addend: 0x0, symName: __ZN4core5slice4sort8unstable9quicksort9quicksort17h572db013ccdb4d77E, symObjAddr: 0x30AE8, symBinAddr: 0x36B20, symSize: 0x500 }
  - { offsetInCU: 0x25096, offset: 0x9C19C, size: 0x8, addend: 0x0, symName: __ZN4core5slice4sort8unstable9quicksort9quicksort17h61b11693a15d9cc3E, symObjAddr: 0x30FE8, symBinAddr: 0x37020, symSize: 0x3D8 }
  - { offsetInCU: 0x2584F, offset: 0x9C955, size: 0x8, addend: 0x0, symName: __ZN4core5slice4sort6stable14driftsort_main17h046f95489a491b68E, symObjAddr: 0x2B2B4, symBinAddr: 0x312EC, symSize: 0x124 }
  - { offsetInCU: 0x25B5D, offset: 0x9CC63, size: 0x8, addend: 0x0, symName: __ZN4core5slice4sort6stable14driftsort_main17h5a695e0c9a9af867E, symObjAddr: 0x2B3D8, symBinAddr: 0x31410, symSize: 0x128 }
  - { offsetInCU: 0x25DBE, offset: 0x9CEC4, size: 0x8, addend: 0x0, symName: __ZN4core5slice4sort6stable14driftsort_main17h7e1a3f80a8853d18E, symObjAddr: 0x2B500, symBinAddr: 0x31538, symSize: 0x150 }
  - { offsetInCU: 0x260EC, offset: 0x9D1F2, size: 0x8, addend: 0x0, symName: __ZN4core5slice4sort6stable14driftsort_main17hb2d9da1781019d87E, symObjAddr: 0x2B650, symBinAddr: 0x31688, symSize: 0x150 }
  - { offsetInCU: 0x2641A, offset: 0x9D520, size: 0x8, addend: 0x0, symName: __ZN4core5slice4sort6stable14driftsort_main17hb3840a8e29532d98E, symObjAddr: 0x2B7A0, symBinAddr: 0x317D8, symSize: 0x124 }
  - { offsetInCU: 0x26728, offset: 0x9D82E, size: 0x8, addend: 0x0, symName: __ZN4core5slice4sort6stable14driftsort_main17hc1644205d8b9f75bE, symObjAddr: 0x2B8C4, symBinAddr: 0x318FC, symSize: 0x124 }
  - { offsetInCU: 0x26C4A, offset: 0x9DD50, size: 0x8, addend: 0x0, symName: __ZN4core5slice4sort6stable5drift4sort17h2e78e43121980981E, symObjAddr: 0x2B9E8, symBinAddr: 0x31A20, symSize: 0x5EC }
  - { offsetInCU: 0x27333, offset: 0x9E439, size: 0x8, addend: 0x0, symName: __ZN4core5slice4sort6stable5drift4sort17h54aec5744cff0dc5E, symObjAddr: 0x2BFD4, symBinAddr: 0x3200C, symSize: 0x4D8 }
  - { offsetInCU: 0x27948, offset: 0x9EA4E, size: 0x8, addend: 0x0, symName: __ZN4core5slice4sort6stable5drift4sort17h55668fa9157404bdE, symObjAddr: 0x2C4AC, symBinAddr: 0x324E4, symSize: 0x4F4 }
  - { offsetInCU: 0x27FF3, offset: 0x9F0F9, size: 0x8, addend: 0x0, symName: __ZN4core5slice4sort6stable5drift4sort17hbaad8a7b8712e352E, symObjAddr: 0x2C9A0, symBinAddr: 0x329D8, symSize: 0x540 }
  - { offsetInCU: 0x286B4, offset: 0x9F7BA, size: 0x8, addend: 0x0, symName: __ZN4core5slice4sort6stable5drift4sort17hd7e197024e9ddc47E, symObjAddr: 0x2CEE0, symBinAddr: 0x32F18, symSize: 0x4F4 }
  - { offsetInCU: 0x28D5F, offset: 0x9FE65, size: 0x8, addend: 0x0, symName: __ZN4core5slice4sort6stable5drift4sort17he5e4346d1c1fba6aE, symObjAddr: 0x2D3D4, symBinAddr: 0x3340C, symSize: 0x538 }
  - { offsetInCU: 0x2961D, offset: 0xA0723, size: 0x8, addend: 0x0, symName: __ZN4core5slice4sort6stable9quicksort9quicksort17h02b1573bc5a9c581E, symObjAddr: 0x2D90C, symBinAddr: 0x33944, symSize: 0x7FC }
  - { offsetInCU: 0x2A1F1, offset: 0xA12F7, size: 0x8, addend: 0x0, symName: __ZN4core5slice4sort6stable9quicksort9quicksort17h1a694c4312139070E, symObjAddr: 0x2E108, symBinAddr: 0x34140, symSize: 0x730 }
  - { offsetInCU: 0x2A949, offset: 0xA1A4F, size: 0x8, addend: 0x0, symName: __ZN4core5slice4sort6stable9quicksort9quicksort17h4e36f06fc43db733E, symObjAddr: 0x2E838, symBinAddr: 0x34870, symSize: 0x80C }
  - { offsetInCU: 0x2B8F8, offset: 0xA29FE, size: 0x8, addend: 0x0, symName: __ZN4core5slice4sort6stable9quicksort9quicksort17h58c6cb561a55387aE, symObjAddr: 0x2F044, symBinAddr: 0x3507C, symSize: 0x820 }
  - { offsetInCU: 0x2C4DA, offset: 0xA35E0, size: 0x8, addend: 0x0, symName: __ZN4core5slice4sort6stable9quicksort9quicksort17h770bfef31f947321E, symObjAddr: 0x2F864, symBinAddr: 0x3589C, symSize: 0x6CC }
  - { offsetInCU: 0x2CFAA, offset: 0xA40B0, size: 0x8, addend: 0x0, symName: __ZN4core5slice4sort6stable9quicksort9quicksort17hb8c99fcc29b80e86E, symObjAddr: 0x2FF30, symBinAddr: 0x35F68, symSize: 0x6C4 }
  - { offsetInCU: 0x2DB33, offset: 0xA4C39, size: 0x8, addend: 0x0, symName: __ZN4core5slice4sort6shared9smallsort12sort4_stable17h24880dac33b85e43E, symObjAddr: 0x2A158, symBinAddr: 0x30190, symSize: 0x180 }
  - { offsetInCU: 0x2DF1B, offset: 0xA5021, size: 0x8, addend: 0x0, symName: __ZN4core5slice4sort6shared9smallsort12sort4_stable17h43c6d3d5eff72ab6E, symObjAddr: 0x2A2D8, symBinAddr: 0x30310, symSize: 0x194 }
  - { offsetInCU: 0x2E0F8, offset: 0xA51FE, size: 0x8, addend: 0x0, symName: __ZN4core5slice4sort6shared9smallsort12sort8_stable17hf311bc461e8b1dacE, symObjAddr: 0x2A46C, symBinAddr: 0x304A4, symSize: 0x2B8 }
  - { offsetInCU: 0x2E5D3, offset: 0xA56D9, size: 0x8, addend: 0x0, symName: __ZN4core5slice4sort6shared9smallsort18small_sort_general17h2cea89fa6ff7fdf7E, symObjAddr: 0x2A724, symBinAddr: 0x3075C, symSize: 0x408 }
  - { offsetInCU: 0x2EB24, offset: 0xA5C2A, size: 0x8, addend: 0x0, symName: __ZN4core5slice4sort6shared9smallsort18small_sort_general17he99bfc212231d302E, symObjAddr: 0x2AB2C, symBinAddr: 0x30B64, symSize: 0x4A0 }
  - { offsetInCU: 0x2F1F7, offset: 0xA62FD, size: 0x8, addend: 0x0, symName: __ZN4core5slice4sort6shared9smallsort25insertion_sort_shift_left17h09cf33bc0528fc85E, symObjAddr: 0x2AFCC, symBinAddr: 0x31004, symSize: 0xA8 }
  - { offsetInCU: 0x2F2CD, offset: 0xA63D3, size: 0x8, addend: 0x0, symName: __ZN4core5slice4sort6shared9smallsort25insertion_sort_shift_left17h81cfbaee86c3aabaE, symObjAddr: 0x2B074, symBinAddr: 0x310AC, symSize: 0xB8 }
  - { offsetInCU: 0x2F3F8, offset: 0xA64FE, size: 0x8, addend: 0x0, symName: __ZN4core5slice4sort6shared9smallsort25insertion_sort_shift_left17ha6c2026cf9a8637cE, symObjAddr: 0x2B12C, symBinAddr: 0x31164, symSize: 0x94 }
  - { offsetInCU: 0x2F4C1, offset: 0xA65C7, size: 0x8, addend: 0x0, symName: __ZN4core5slice4sort6shared9smallsort25insertion_sort_shift_left17hfa538f89a43629d3E, symObjAddr: 0x2B1C0, symBinAddr: 0x311F8, symSize: 0xF4 }
  - { offsetInCU: 0x2F855, offset: 0xA695B, size: 0x8, addend: 0x0, symName: __ZN4core5slice4sort6shared5pivot11median3_rec17h08fd8d14ff0a24feE, symObjAddr: 0x29A34, symBinAddr: 0x2FA6C, symSize: 0xD0 }
  - { offsetInCU: 0x2F962, offset: 0xA6A68, size: 0x8, addend: 0x0, symName: __ZN4core5slice4sort6shared5pivot11median3_rec17h6231be4f2651acd8E, symObjAddr: 0x29B04, symBinAddr: 0x2FB3C, symSize: 0xCC }
  - { offsetInCU: 0x2FA6D, offset: 0xA6B73, size: 0x8, addend: 0x0, symName: __ZN4core5slice4sort6shared5pivot11median3_rec17h643ae2da5f22a835E, symObjAddr: 0x29BD0, symBinAddr: 0x2FC08, symSize: 0xCC }
  - { offsetInCU: 0x2FB78, offset: 0xA6C7E, size: 0x8, addend: 0x0, symName: __ZN4core5slice4sort6shared5pivot11median3_rec17h8df2b5a187f42f30E, symObjAddr: 0x29C9C, symBinAddr: 0x2FCD4, symSize: 0xCC }
  - { offsetInCU: 0x2FCAF, offset: 0xA6DB5, size: 0x8, addend: 0x0, symName: __ZN4core5slice4sort6shared5pivot11median3_rec17h95b1dd6020e495adE, symObjAddr: 0x29D68, symBinAddr: 0x2FDA0, symSize: 0x11C }
  - { offsetInCU: 0x2FDBF, offset: 0xA6EC5, size: 0x8, addend: 0x0, symName: __ZN4core5slice4sort6shared5pivot11median3_rec17h9a90c9997a8958baE, symObjAddr: 0x29E84, symBinAddr: 0x2FEBC, symSize: 0xD0 }
  - { offsetInCU: 0x2FECA, offset: 0xA6FD0, size: 0x8, addend: 0x0, symName: __ZN4core5slice4sort6shared5pivot11median3_rec17h9ca555dbe63454a0E, symObjAddr: 0x29F54, symBinAddr: 0x2FF8C, symSize: 0xD0 }
  - { offsetInCU: 0x2FFD5, offset: 0xA70DB, size: 0x8, addend: 0x0, symName: __ZN4core5slice4sort6shared5pivot11median3_rec17hd94ddf2e8bee2232E, symObjAddr: 0x2A024, symBinAddr: 0x3005C, symSize: 0x134 }
  - { offsetInCU: 0x3097F, offset: 0xA7A85, size: 0x8, addend: 0x0, symName: __ZN4core5panic12PanicPayload6as_str17h1d124740c1835d29E, symObjAddr: 0x29A2C, symBinAddr: 0x2FA64, symSize: 0x8 }
  - { offsetInCU: 0x31EC0, offset: 0xA8FC6, size: 0x8, addend: 0x0, symName: '__ZN42_$LT$$RF$T$u20$as$u20$core..fmt..Debug$GT$3fmt17h1cab94a097dcd607E', symObjAddr: 0x224E4, symBinAddr: 0x2D810, symSize: 0x1C }
  - { offsetInCU: 0x31F08, offset: 0xA900E, size: 0x8, addend: 0x0, symName: '__ZN42_$LT$$RF$T$u20$as$u20$core..fmt..Debug$GT$3fmt17h239e68b07176bc46E', symObjAddr: 0x22508, symBinAddr: 0x2D82C, symSize: 0x1C }
  - { offsetInCU: 0x31F50, offset: 0xA9056, size: 0x8, addend: 0x0, symName: '__ZN42_$LT$$RF$T$u20$as$u20$core..fmt..Debug$GT$3fmt17h56eea73de4421838E', symObjAddr: 0x2282C, symBinAddr: 0x2D848, symSize: 0x10 }
  - { offsetInCU: 0x31F8E, offset: 0xA9094, size: 0x8, addend: 0x0, symName: '__ZN42_$LT$$RF$T$u20$as$u20$core..fmt..Debug$GT$3fmt17haa6ca0ce7e6569daE', symObjAddr: 0x22BD8, symBinAddr: 0x2D858, symSize: 0x10 }
  - { offsetInCU: 0x31FA2, offset: 0xA90A8, size: 0x8, addend: 0x0, symName: '__ZN42_$LT$$RF$T$u20$as$u20$core..fmt..Debug$GT$3fmt17had83cac9538e5196E', symObjAddr: 0x22BE8, symBinAddr: 0x2D868, symSize: 0x74 }
  - { offsetInCU: 0x320F8, offset: 0xA91FE, size: 0x8, addend: 0x0, symName: '__ZN4core3fmt3num50_$LT$impl$u20$core..fmt..Debug$u20$for$u20$i32$GT$3fmt17h8e04838b8e7eb0aeE', symObjAddr: 0x23310, symBinAddr: 0x2D94C, symSize: 0x18 }
  - { offsetInCU: 0x32110, offset: 0xA9216, size: 0x8, addend: 0x0, symName: '__ZN4core3fmt3num50_$LT$impl$u20$core..fmt..Debug$u20$for$u20$i32$GT$3fmt17h8e04838b8e7eb0aeE', symObjAddr: 0x23310, symBinAddr: 0x2D94C, symSize: 0x18 }
  - { offsetInCU: 0x32129, offset: 0xA922F, size: 0x8, addend: 0x0, symName: '__ZN4core3fmt3num52_$LT$impl$u20$core..fmt..Debug$u20$for$u20$usize$GT$3fmt17h0f2d15c1de89bdc6E', symObjAddr: 0x23370, symBinAddr: 0x2D964, symSize: 0x18 }
  - { offsetInCU: 0x32141, offset: 0xA9247, size: 0x8, addend: 0x0, symName: '__ZN4core3fmt3num52_$LT$impl$u20$core..fmt..Debug$u20$for$u20$usize$GT$3fmt17h0f2d15c1de89bdc6E', symObjAddr: 0x23370, symBinAddr: 0x2D964, symSize: 0x18 }
  - { offsetInCU: 0x3217C, offset: 0xA9282, size: 0x8, addend: 0x0, symName: '__ZN44_$LT$$RF$T$u20$as$u20$core..fmt..Display$GT$3fmt17h160c802f3e41e8dbE', symObjAddr: 0x22F84, symBinAddr: 0x2D8DC, symSize: 0x60 }
  - { offsetInCU: 0x321F0, offset: 0xA92F6, size: 0x8, addend: 0x0, symName: '__ZN44_$LT$$RF$T$u20$as$u20$core..fmt..Display$GT$3fmt17h5b982d671f2c011bE', symObjAddr: 0x22FE4, symBinAddr: 0x2D93C, symSize: 0x10 }
  - { offsetInCU: 0x3222B, offset: 0xA9331, size: 0x8, addend: 0x0, symName: __ZN4core3fmt5Write10write_char17h466df4adb9130376E, symObjAddr: 0x23618, symBinAddr: 0x2D97C, symSize: 0x128 }
  - { offsetInCU: 0x322A5, offset: 0xA93AB, size: 0x8, addend: 0x0, symName: __ZN4core3fmt5Write10write_char17h48a3d0478d99ff67E, symObjAddr: 0x23740, symBinAddr: 0x2DAA4, symSize: 0x138 }
  - { offsetInCU: 0x3242E, offset: 0xA9534, size: 0x8, addend: 0x0, symName: __ZN4core3fmt5Write10write_char17h9c566887cb14daf2E, symObjAddr: 0x23878, symBinAddr: 0x2DBDC, symSize: 0x110 }
  - { offsetInCU: 0x325E2, offset: 0xA96E8, size: 0x8, addend: 0x0, symName: __ZN4core3fmt5Write10write_char17haf0be188bfc5e5edE, symObjAddr: 0x23988, symBinAddr: 0x2DCEC, symSize: 0x168 }
  - { offsetInCU: 0x32779, offset: 0xA987F, size: 0x8, addend: 0x0, symName: __ZN4core3fmt5Write9write_fmt17h0e216721e767c51cE, symObjAddr: 0x23AF0, symBinAddr: 0x2DE54, symSize: 0x14 }
  - { offsetInCU: 0x327A8, offset: 0xA98AE, size: 0x8, addend: 0x0, symName: __ZN4core3fmt5Write9write_fmt17h1c3b3dc3c53b4302E, symObjAddr: 0x23B04, symBinAddr: 0x2DE68, symSize: 0x14 }
  - { offsetInCU: 0x327D7, offset: 0xA98DD, size: 0x8, addend: 0x0, symName: __ZN4core3fmt5Write9write_fmt17h23fb4e17e36c1e23E, symObjAddr: 0x23B18, symBinAddr: 0x2DE7C, symSize: 0x14 }
  - { offsetInCU: 0x32806, offset: 0xA990C, size: 0x8, addend: 0x0, symName: __ZN4core3fmt5Write9write_fmt17h7e4f8c33a08085b9E, symObjAddr: 0x23B40, symBinAddr: 0x2DE90, symSize: 0x14 }
  - { offsetInCU: 0x32835, offset: 0xA993B, size: 0x8, addend: 0x0, symName: __ZN4core3fmt5Write9write_fmt17h9f610cd215790b62E, symObjAddr: 0x23B54, symBinAddr: 0x2DEA4, symSize: 0x14 }
  - { offsetInCU: 0x32890, offset: 0xA9996, size: 0x8, addend: 0x0, symName: '__ZN50_$LT$$BP$mut$u20$T$u20$as$u20$core..fmt..Debug$GT$3fmt17hc186ff9e42e4e93bE', symObjAddr: 0x31470, symBinAddr: 0x373F8, symSize: 0x8 }
  - { offsetInCU: 0x328AF, offset: 0xA99B5, size: 0x8, addend: 0x0, symName: '__ZN50_$LT$$BP$mut$u20$T$u20$as$u20$core..fmt..Debug$GT$3fmt17hc186ff9e42e4e93bE', symObjAddr: 0x31470, symBinAddr: 0x373F8, symSize: 0x8 }
  - { offsetInCU: 0x328DD, offset: 0xA99E3, size: 0x8, addend: 0x0, symName: '__ZN52_$LT$$RF$mut$u20$T$u20$as$u20$core..fmt..Display$GT$3fmt17h1ec82cb1d895f4f2E', symObjAddr: 0x31A04, symBinAddr: 0x37400, symSize: 0x10 }
  - { offsetInCU: 0x3295D, offset: 0xA9A63, size: 0x8, addend: 0x0, symName: '__ZN4core3ops8function6FnOnce40call_once$u7b$$u7b$vtable.shim$u7d$$u7d$17h0693bd313d5ed723E', symObjAddr: 0x23E08, symBinAddr: 0x2DF64, symSize: 0x4 }
  - { offsetInCU: 0x3297B, offset: 0xA9A81, size: 0x8, addend: 0x0, symName: '__ZN4core3ops8function6FnOnce40call_once$u7b$$u7b$vtable.shim$u7d$$u7d$17h0693bd313d5ed723E', symObjAddr: 0x23E08, symBinAddr: 0x2DF64, symSize: 0x4 }
  - { offsetInCU: 0x32998, offset: 0xA9A9E, size: 0x8, addend: 0x0, symName: '__ZN4core3ops8function6FnOnce40call_once$u7b$$u7b$vtable.shim$u7d$$u7d$17h5677398c9b3c3b4bE', symObjAddr: 0x23EE4, symBinAddr: 0x2DF68, symSize: 0xC }
  - { offsetInCU: 0x329E8, offset: 0xA9AEE, size: 0x8, addend: 0x0, symName: '__ZN4core3ops8function6FnOnce40call_once$u7b$$u7b$vtable.shim$u7d$$u7d$17hbdea4484c8303e3cE', symObjAddr: 0x23F78, symBinAddr: 0x2DF74, symSize: 0xC }
  - { offsetInCU: 0x32A38, offset: 0xA9B3E, size: 0x8, addend: 0x0, symName: '__ZN4core3ops8function6FnOnce40call_once$u7b$$u7b$vtable.shim$u7d$$u7d$17hc381042ff4978e19E', symObjAddr: 0x23F8C, symBinAddr: 0x2DF80, symSize: 0x98 }
  - { offsetInCU: 0x32B7D, offset: 0xA9C83, size: 0x8, addend: 0x0, symName: '__ZN4core3ops8function6FnOnce40call_once$u7b$$u7b$vtable.shim$u7d$$u7d$17he82d6796fa97a6beE', symObjAddr: 0x24118, symBinAddr: 0x2E018, symSize: 0x4 }
  - { offsetInCU: 0x32B9B, offset: 0xA9CA1, size: 0x8, addend: 0x0, symName: '__ZN4core3ops8function6FnOnce40call_once$u7b$$u7b$vtable.shim$u7d$$u7d$17he82d6796fa97a6beE', symObjAddr: 0x24118, symBinAddr: 0x2E018, symSize: 0x4 }
  - { offsetInCU: 0x32C80, offset: 0xA9D86, size: 0x8, addend: 0x0, symName: __ZN4core3ops8function2Fn4call17hdce0ebbb102bb693E, symObjAddr: 0x23CA0, symBinAddr: 0x2DEB8, symSize: 0xAC }
  - { offsetInCU: 0x338CB, offset: 0xAA9D1, size: 0x8, addend: 0x0, symName: '__ZN36_$LT$T$u20$as$u20$core..any..Any$GT$7type_id17h39afcd6f57748867E', symObjAddr: 0xC98, symBinAddr: 0x22FEC, symSize: 0x14 }
  - { offsetInCU: 0x338E9, offset: 0xAA9EF, size: 0x8, addend: 0x0, symName: '__ZN36_$LT$T$u20$as$u20$core..any..Any$GT$7type_id17h39afcd6f57748867E', symObjAddr: 0xC98, symBinAddr: 0x22FEC, symSize: 0x14 }
  - { offsetInCU: 0x338FA, offset: 0xAAA00, size: 0x8, addend: 0x0, symName: '__ZN36_$LT$T$u20$as$u20$core..any..Any$GT$7type_id17h80469242c837387aE', symObjAddr: 0xCAC, symBinAddr: 0x23000, symSize: 0x14 }
  - { offsetInCU: 0x33918, offset: 0xAAA1E, size: 0x8, addend: 0x0, symName: '__ZN36_$LT$T$u20$as$u20$core..any..Any$GT$7type_id17h80469242c837387aE', symObjAddr: 0xCAC, symBinAddr: 0x23000, symSize: 0x14 }
  - { offsetInCU: 0x33929, offset: 0xAAA2F, size: 0x8, addend: 0x0, symName: '__ZN36_$LT$T$u20$as$u20$core..any..Any$GT$7type_id17had88c6179bb9e7a9E', symObjAddr: 0xCC0, symBinAddr: 0x23014, symSize: 0x14 }
  - { offsetInCU: 0x33947, offset: 0xAAA4D, size: 0x8, addend: 0x0, symName: '__ZN36_$LT$T$u20$as$u20$core..any..Any$GT$7type_id17had88c6179bb9e7a9E', symObjAddr: 0xCC0, symBinAddr: 0x23014, symSize: 0x14 }
  - { offsetInCU: 0x34E7E, offset: 0xABF84, size: 0x8, addend: 0x0, symName: '__ZN4core4cell4once17OnceCell$LT$T$GT$8try_init17h11f4149069b96bd3E', symObjAddr: 0x26CA4, symBinAddr: 0x53828, symSize: 0x68 }
  - { offsetInCU: 0x34F19, offset: 0xAC01F, size: 0x8, addend: 0x0, symName: '__ZN4core4cell4once17OnceCell$LT$T$GT$8try_init17h518c6e6630824955E', symObjAddr: 0x26D0C, symBinAddr: 0x53890, symSize: 0x61C }
  - { offsetInCU: 0x35AA9, offset: 0xACBAF, size: 0x8, addend: 0x0, symName: '__ZN4core4cell4once17OnceCell$LT$T$GT$8try_init17h987dba3036ece240E', symObjAddr: 0x27328, symBinAddr: 0x53EAC, symSize: 0x48 }
  - { offsetInCU: 0x35AC7, offset: 0xACBCD, size: 0x8, addend: 0x0, symName: '__ZN4core4cell4once17OnceCell$LT$T$GT$8try_init17h987dba3036ece240E', symObjAddr: 0x27328, symBinAddr: 0x53EAC, symSize: 0x48 }
  - { offsetInCU: 0x35ADC, offset: 0xACBE2, size: 0x8, addend: 0x0, symName: '__ZN4core4cell4once17OnceCell$LT$T$GT$8try_init17h987dba3036ece240E', symObjAddr: 0x27328, symBinAddr: 0x53EAC, symSize: 0x48 }
  - { offsetInCU: 0x35AF0, offset: 0xACBF6, size: 0x8, addend: 0x0, symName: '__ZN4core4cell4once17OnceCell$LT$T$GT$8try_init17h987dba3036ece240E', symObjAddr: 0x27328, symBinAddr: 0x53EAC, symSize: 0x48 }
  - { offsetInCU: 0x35B2F, offset: 0xACC35, size: 0x8, addend: 0x0, symName: '__ZN4core4cell4once17OnceCell$LT$T$GT$8try_init17hac0d35dd8f175de7E', symObjAddr: 0x27370, symBinAddr: 0x53EF4, symSize: 0x1874 }
  - { offsetInCU: 0x3905B, offset: 0xB0161, size: 0x8, addend: 0x0, symName: '__ZN4core4cell4once17OnceCell$LT$T$GT$8try_init17hb47bd011acb6e436E', symObjAddr: 0x28BE4, symBinAddr: 0x55768, symSize: 0xFC }
  - { offsetInCU: 0x3930D, offset: 0xB0413, size: 0x8, addend: 0x0, symName: '__ZN4core4cell4once17OnceCell$LT$T$GT$8try_init17hcdffa25142646f57E', symObjAddr: 0x28CE0, symBinAddr: 0x55864, symSize: 0xBF0 }
  - { offsetInCU: 0x3B0FE, offset: 0xB2204, size: 0x8, addend: 0x0, symName: '__ZN55_$LT$$RF$str$u20$as$u20$core..str..pattern..Pattern$GT$15is_contained_in17had80eb3783a1c1c4E', symObjAddr: 0x31FF0, symBinAddr: 0x37410, symSize: 0x3C0 }
  - { offsetInCU: 0x3B65E, offset: 0xB2764, size: 0x8, addend: 0x0, symName: __ZN4core5error5Error11description17h26c045cd4b366515E, symObjAddr: 0x299DC, symBinAddr: 0x2FA34, symSize: 0x10 }
  - { offsetInCU: 0x3B679, offset: 0xB277F, size: 0x8, addend: 0x0, symName: __ZN4core5error5Error5cause17h852dd4541d9ded04E, symObjAddr: 0x299EC, symBinAddr: 0x2FA44, symSize: 0x8 }
  - { offsetInCU: 0x3B694, offset: 0xB279A, size: 0x8, addend: 0x0, symName: __ZN4core5error5Error7provide17ha8d46d58e80ae7cfE, symObjAddr: 0x29A00, symBinAddr: 0x2FA4C, symSize: 0x4 }
  - { offsetInCU: 0x3B6AF, offset: 0xB27B5, size: 0x8, addend: 0x0, symName: __ZN4core5error5Error7type_id17h0237d7e5e1ecaf5bE, symObjAddr: 0x29A04, symBinAddr: 0x2FA50, symSize: 0x14 }
  - { offsetInCU: 0x3B6CE, offset: 0xB27D4, size: 0x8, addend: 0x0, symName: __ZN4core5error5Error7type_id17h0237d7e5e1ecaf5bE, symObjAddr: 0x29A04, symBinAddr: 0x2FA50, symSize: 0x14 }
  - { offsetInCU: 0x3B6E8, offset: 0xB27EE, size: 0x8, addend: 0x0, symName: __ZN4core9panicking13assert_failed17h79e72469a32bf64eE, symObjAddr: 0x313E8, symBinAddr: 0x56454, symSize: 0x28 }
  - { offsetInCU: 0x3B97A, offset: 0xB2A80, size: 0x8, addend: 0x0, symName: __ZN5alloc5alloc15exchange_malloc17h1b8af8c6814a7764E, symObjAddr: 0x38CCC, symBinAddr: 0x380F8, symSize: 0x48 }
  - { offsetInCU: 0x3C75E, offset: 0xB3864, size: 0x8, addend: 0x0, symName: '__ZN64_$LT$alloc..ffi..c_str..NulError$u20$as$u20$core..fmt..Debug$GT$3fmt17hf05551a4f3916cd6E', symObjAddr: 0x43CF4, symBinAddr: 0x3F584, symSize: 0x4C }
  - { offsetInCU: 0x3CBBC, offset: 0xB3CC2, size: 0x8, addend: 0x0, symName: '__ZN5alloc11collections5btree3map25IntoIter$LT$K$C$V$C$A$GT$10dying_next17h454d59a3d6fd8e25E', symObjAddr: 0x36504, symBinAddr: 0x37984, symSize: 0x208 }
  - { offsetInCU: 0x3CF70, offset: 0xB4076, size: 0x8, addend: 0x0, symName: '__ZN5alloc11collections5btree3map25IntoIter$LT$K$C$V$C$A$GT$10dying_next17h628cf69d104115caE', symObjAddr: 0x3670C, symBinAddr: 0x37B8C, symSize: 0x208 }
  - { offsetInCU: 0x3D97E, offset: 0xB4A84, size: 0x8, addend: 0x0, symName: '__ZN5alloc7raw_vec20RawVecInner$LT$A$GT$11finish_grow17hb7ba86db208d59a8E', symObjAddr: 0x3921C, symBinAddr: 0x5691C, symSize: 0xC4 }
  - { offsetInCU: 0x3DB0A, offset: 0xB4C10, size: 0x8, addend: 0x0, symName: '__ZN5alloc7raw_vec20RawVecInner$LT$A$GT$11finish_grow17hfa29b43b5418c4caE', symObjAddr: 0x392E0, symBinAddr: 0x569E0, symSize: 0x94 }
  - { offsetInCU: 0x3DC41, offset: 0xB4D47, size: 0x8, addend: 0x0, symName: '__ZN5alloc7raw_vec20RawVecInner$LT$A$GT$14grow_amortized17hd9f56dcd9b9f9d14E', symObjAddr: 0x39374, symBinAddr: 0x56A74, symSize: 0x74 }
  - { offsetInCU: 0x3E1EC, offset: 0xB52F2, size: 0x8, addend: 0x0, symName: '__ZN5alloc7raw_vec19RawVec$LT$T$C$A$GT$8grow_one17h04f561b8f2dea13fE', symObjAddr: 0x38D14, symBinAddr: 0x5647C, symSize: 0x0 }
  - { offsetInCU: 0x3E270, offset: 0xB5376, size: 0x8, addend: 0x0, symName: '__ZN5alloc7raw_vec19RawVec$LT$T$C$A$GT$8grow_one17h198960438fde08aeE', symObjAddr: 0x38D7C, symBinAddr: 0x564E4, symSize: 0x68 }
  - { offsetInCU: 0x3E2F4, offset: 0xB53FA, size: 0x8, addend: 0x0, symName: '__ZN5alloc7raw_vec19RawVec$LT$T$C$A$GT$8grow_one17h203b5633f2fa79beE', symObjAddr: 0x38E4C, symBinAddr: 0x5654C, symSize: 0x0 }
  - { offsetInCU: 0x3E378, offset: 0xB547E, size: 0x8, addend: 0x0, symName: '__ZN5alloc7raw_vec19RawVec$LT$T$C$A$GT$8grow_one17h3766b840d9afd937E', symObjAddr: 0x38EB4, symBinAddr: 0x565B4, symSize: 0x0 }
  - { offsetInCU: 0x3E3FC, offset: 0xB5502, size: 0x8, addend: 0x0, symName: '__ZN5alloc7raw_vec19RawVec$LT$T$C$A$GT$8grow_one17h3f8c6078a8991963E', symObjAddr: 0x38F1C, symBinAddr: 0x5661C, symSize: 0x68 }
  - { offsetInCU: 0x3E480, offset: 0xB5586, size: 0x8, addend: 0x0, symName: '__ZN5alloc7raw_vec19RawVec$LT$T$C$A$GT$8grow_one17h405ef6e2f71b866dE', symObjAddr: 0x38F84, symBinAddr: 0x56684, symSize: 0x68 }
  - { offsetInCU: 0x3E504, offset: 0xB560A, size: 0x8, addend: 0x0, symName: '__ZN5alloc7raw_vec19RawVec$LT$T$C$A$GT$8grow_one17h44ee0a6306d71035E', symObjAddr: 0x38FEC, symBinAddr: 0x566EC, symSize: 0x0 }
  - { offsetInCU: 0x3E588, offset: 0xB568E, size: 0x8, addend: 0x0, symName: '__ZN5alloc7raw_vec19RawVec$LT$T$C$A$GT$8grow_one17h6abcd35e37fb1abfE', symObjAddr: 0x39054, symBinAddr: 0x56754, symSize: 0x68 }
  - { offsetInCU: 0x3E60C, offset: 0xB5712, size: 0x8, addend: 0x0, symName: '__ZN5alloc7raw_vec19RawVec$LT$T$C$A$GT$8grow_one17h6e4d908bfa00e00aE', symObjAddr: 0x390BC, symBinAddr: 0x567BC, symSize: 0x28 }
  - { offsetInCU: 0x3E634, offset: 0xB573A, size: 0x8, addend: 0x0, symName: '__ZN5alloc7raw_vec19RawVec$LT$T$C$A$GT$8grow_one17h6f3c2dec70b6240bE', symObjAddr: 0x390E4, symBinAddr: 0x567E4, symSize: 0x68 }
  - { offsetInCU: 0x3E6B8, offset: 0xB57BE, size: 0x8, addend: 0x0, symName: '__ZN5alloc7raw_vec19RawVec$LT$T$C$A$GT$8grow_one17h79b50eb5a8f6cf6dE', symObjAddr: 0x3914C, symBinAddr: 0x5684C, symSize: 0x0 }
  - { offsetInCU: 0x3E73C, offset: 0xB5842, size: 0x8, addend: 0x0, symName: '__ZN5alloc7raw_vec19RawVec$LT$T$C$A$GT$8grow_one17h83d6cca80d6c0224E', symObjAddr: 0x391B4, symBinAddr: 0x568B4, symSize: 0x0 }
  - { offsetInCU: 0x3EA25, offset: 0xB5B2B, size: 0x8, addend: 0x0, symName: '__ZN5alloc7raw_vec20RawVecInner$LT$A$GT$7reserve21do_reserve_and_handle17h0fafcd2615a32a73E', symObjAddr: 0x393E8, symBinAddr: 0x56AE8, symSize: 0x8C }
  - { offsetInCU: 0x3EBFB, offset: 0xB5D01, size: 0x8, addend: 0x0, symName: '__ZN58_$LT$alloc..string..String$u20$as$u20$core..fmt..Debug$GT$3fmt17h78bb7a2e11f6e1baE', symObjAddr: 0x33334, symBinAddr: 0x377D0, symSize: 0x10 }
  - { offsetInCU: 0x3ECB6, offset: 0xB5DBC, size: 0x8, addend: 0x0, symName: '__ZN58_$LT$alloc..string..String$u20$as$u20$core..fmt..Write$GT$10write_char17hbd6e72c2c628145cE', symObjAddr: 0x33344, symBinAddr: 0x377E0, symSize: 0x120 }
  - { offsetInCU: 0x3EE55, offset: 0xB5F5B, size: 0x8, addend: 0x0, symName: '__ZN58_$LT$alloc..string..String$u20$as$u20$core..fmt..Write$GT$9write_str17h1b27ec6ee313d329E', symObjAddr: 0x33464, symBinAddr: 0x37900, symSize: 0x80 }
  - { offsetInCU: 0x3EFAD, offset: 0xB60B3, size: 0x8, addend: 0x0, symName: '__ZN60_$LT$alloc..string..String$u20$as$u20$core..fmt..Display$GT$3fmt17h73d3c6f60c34d661E', symObjAddr: 0x4031C, symBinAddr: 0x3EFE8, symSize: 0x10 }
  - { offsetInCU: 0x3F3D8, offset: 0xB64DE, size: 0x8, addend: 0x0, symName: '__ZN5alloc4sync16Arc$LT$T$C$A$GT$9drop_slow17h0037164df7590ac0E', symObjAddr: 0x388D0, symBinAddr: 0x37D94, symSize: 0xD0 }
  - { offsetInCU: 0x3F5F0, offset: 0xB66F6, size: 0x8, addend: 0x0, symName: '__ZN5alloc4sync16Arc$LT$T$C$A$GT$9drop_slow17h52bc04ad50f5b4b2E', symObjAddr: 0x389A0, symBinAddr: 0x37E64, symSize: 0x70 }
  - { offsetInCU: 0x3F7BC, offset: 0xB68C2, size: 0x8, addend: 0x0, symName: '__ZN5alloc4sync16Arc$LT$T$C$A$GT$9drop_slow17h78c4ac9972565606E', symObjAddr: 0x38A10, symBinAddr: 0x37ED4, symSize: 0xA0 }
  - { offsetInCU: 0x3FAB5, offset: 0xB6BBB, size: 0x8, addend: 0x0, symName: '__ZN5alloc4sync16Arc$LT$T$C$A$GT$9drop_slow17hd9ef5dd0ff7c9060E', symObjAddr: 0x38B48, symBinAddr: 0x37F74, symSize: 0x98 }
  - { offsetInCU: 0x3FC56, offset: 0xB6D5C, size: 0x8, addend: 0x0, symName: '__ZN5alloc4sync16Arc$LT$T$C$A$GT$9drop_slow17he45ed34c07342749E', symObjAddr: 0x38BE0, symBinAddr: 0x3800C, symSize: 0x2C }
  - { offsetInCU: 0x3FD34, offset: 0xB6E3A, size: 0x8, addend: 0x0, symName: '__ZN5alloc4sync16Arc$LT$T$C$A$GT$9drop_slow17heae24029bc4e532aE', symObjAddr: 0x38C0C, symBinAddr: 0x38038, symSize: 0xC0 }
  - { offsetInCU: 0x407D2, offset: 0xB78D8, size: 0x8, addend: 0x0, symName: __ZN6object4read7archive13ArchiveMember12parse_aixbig17hd57f13479d9e18d8E, symObjAddr: 0x45710, symBinAddr: 0x3FA7C, symSize: 0x14C }
  - { offsetInCU: 0x40A3E, offset: 0xB7B44, size: 0x8, addend: 0x0, symName: __ZN6object4read7archive13ArchiveMember5parse17haf9380385e5fd538E, symObjAddr: 0x4585C, symBinAddr: 0x3FBC8, symSize: 0x2F4 }
  - { offsetInCU: 0x4111A, offset: 0xB8220, size: 0x8, addend: 0x0, symName: __ZN6object4read7archive23parse_bsd_extended_name17hab3995e45e936604E, symObjAddr: 0x45B50, symBinAddr: 0x3FEBC, symSize: 0x2D0 }
  - { offsetInCU: 0x41A8B, offset: 0xB8B91, size: 0x8, addend: 0x0, symName: '__ZN6memchr6memchr6memchr28_$u7b$$u7b$closure$u7d$$u7d$17hba874a745790f837E', symObjAddr: 0x454B4, symBinAddr: 0x3F820, symSize: 0x25C }
  - { offsetInCU: 0x42244, offset: 0xB934A, size: 0x8, addend: 0x0, symName: '__ZN9addr2line4unit16ResUnit$LT$R$GT$25find_function_or_location28_$u7b$$u7b$closure$u7d$$u7d$17h95329bfc6aca3f83E', symObjAddr: 0x4BE04, symBinAddr: 0x41EC4, symSize: 0x318 }
  - { offsetInCU: 0x425D5, offset: 0xB96DB, size: 0x8, addend: 0x0, symName: '__ZN9addr2line4unit16ResUnit$LT$R$GT$25find_function_or_location17he9301a1381febfd7E', symObjAddr: 0x4BA98, symBinAddr: 0x41B58, symSize: 0x36C }
  - { offsetInCU: 0x42ACA, offset: 0xB9BD0, size: 0x8, addend: 0x0, symName: '__ZN9addr2line16Context$LT$R$GT$9find_unit17h905f3e33a3f68a3fE', symObjAddr: 0x4B4CC, symBinAddr: 0x4158C, symSize: 0x15C }
  - { offsetInCU: 0x42C4A, offset: 0xB9D50, size: 0x8, addend: 0x0, symName: '__ZN9addr2line6lookup30LoopingLookup$LT$T$C$L$C$F$GT$10new_lookup17h8fef3daba4854196E', symObjAddr: 0x4C3DC, symBinAddr: 0x4249C, symSize: 0x430 }
  - { offsetInCU: 0x431D3, offset: 0xBA2D9, size: 0x8, addend: 0x0, symName: __ZN9addr2line4line11render_file17h4d488147130add67E, symObjAddr: 0x4B628, symBinAddr: 0x416E8, symSize: 0x470 }
  - { offsetInCU: 0x43B0F, offset: 0xBAC15, size: 0x8, addend: 0x0, symName: '__ZN9addr2line8function17Function$LT$R$GT$14parse_children17hdd2371ce61a370c8E', symObjAddr: 0x4CB78, symBinAddr: 0x42C38, symSize: 0xE28 }
  - { offsetInCU: 0x4541B, offset: 0xBC521, size: 0x8, addend: 0x0, symName: __ZN9addr2line8function10name_entry17h4369c610429b83efE, symObjAddr: 0x4C80C, symBinAddr: 0x428CC, symSize: 0x36C }
  - { offsetInCU: 0x45912, offset: 0xBCA18, size: 0x8, addend: 0x0, symName: __ZN9addr2line8function9name_attr17h8331fc42aefbf803E, symObjAddr: 0x4D9A0, symBinAddr: 0x43A60, symSize: 0x1C0 }
  - { offsetInCU: 0x45AFE, offset: 0xBCC04, size: 0x8, addend: 0x0, symName: '__ZN9addr2line5frame18FrameIter$LT$R$GT$4next17h479f0f38aa0e256bE', symObjAddr: 0x4C11C, symBinAddr: 0x421DC, symSize: 0x2C0 }
  - { offsetInCU: 0x463F2, offset: 0xBD4F8, size: 0x8, addend: 0x0, symName: '__ZN5gimli4read5dwarf14Dwarf$LT$R$GT$11attr_string17h4730356adedd5219E', symObjAddr: 0x3E520, symBinAddr: 0x3D1EC, symSize: 0x220 }
  - { offsetInCU: 0x46AA5, offset: 0xBDBAB, size: 0x8, addend: 0x0, symName: '__ZN5gimli4read5dwarf13Unit$LT$R$GT$3new17h1ef95b211bccbc86E', symObjAddr: 0x3C8F0, symBinAddr: 0x3B5BC, symSize: 0x1C30 }
  - { offsetInCU: 0x4A163, offset: 0xC1269, size: 0x8, addend: 0x0, symName: '__ZN5gimli4read7aranges30ArangeHeader$LT$R$C$Offset$GT$5parse17h7c62961dd2dcdaa8E', symObjAddr: 0x3F3A0, symBinAddr: 0x3E06C, symSize: 0x2A8 }
  - { offsetInCU: 0x4AB53, offset: 0xC1C59, size: 0x8, addend: 0x0, symName: '__ZN5gimli4read4unit18Attribute$LT$R$GT$5value17h793b06d9b903f3ecE', symObjAddr: 0x3B9A4, symBinAddr: 0x3A670, symSize: 0x654 }
  - { offsetInCU: 0x4AEAD, offset: 0xC1FB3, size: 0x8, addend: 0x0, symName: '__ZN90_$LT$gimli..read..unit..AttributeValue$LT$R$C$Offset$GT$$u20$as$u20$core..clone..Clone$GT$5clone17h94ac6e39aa84965eE', symObjAddr: 0x4A1F0, symBinAddr: 0x40CF0, symSize: 0x68 }
  - { offsetInCU: 0x4AF08, offset: 0xC200E, size: 0x8, addend: 0x0, symName: '__ZN5gimli4read4unit32AttributeValue$LT$R$C$Offset$GT$8u8_value17hc84e6745ded297adE', symObjAddr: 0x3C2B0, symBinAddr: 0x3AF7C, symSize: 0x94 }
  - { offsetInCU: 0x4AF3E, offset: 0xC2044, size: 0x8, addend: 0x0, symName: '__ZN5gimli4read4unit32AttributeValue$LT$R$C$Offset$GT$9u16_value17h4a8edc8fd4f5b647E', symObjAddr: 0x3C344, symBinAddr: 0x3B010, symSize: 0x94 }
  - { offsetInCU: 0x4AFB6, offset: 0xC20BC, size: 0x8, addend: 0x0, symName: __ZN5gimli4read4unit15parse_attribute17h2d68c4420ede94e5E, symObjAddr: 0x3A5C4, symBinAddr: 0x39290, symSize: 0xF74 }
  - { offsetInCU: 0x4D81F, offset: 0xC4925, size: 0x8, addend: 0x0, symName: __ZN5gimli4read4unit15skip_attributes17h1d26270d358521aaE, symObjAddr: 0x3B538, symBinAddr: 0x3A204, symSize: 0x46C }
  - { offsetInCU: 0x4E0E9, offset: 0xC51EF, size: 0x8, addend: 0x0, symName: '__ZN5gimli4read4unit22EntriesCursor$LT$R$GT$10next_entry17h5bdf587bcf26347fE', symObjAddr: 0x3BFF8, symBinAddr: 0x3ACC4, symSize: 0x2B8 }
  - { offsetInCU: 0x4E6A1, offset: 0xC57A7, size: 0x8, addend: 0x0, symName: '__ZN5gimli4read4unit33DebugInfoUnitHeadersIter$LT$R$GT$4next17h553911b492efdc53E', symObjAddr: 0x3C3D8, symBinAddr: 0x3B0A4, symSize: 0x518 }
  - { offsetInCU: 0x4F885, offset: 0xC698B, size: 0x8, addend: 0x0, symName: __ZN5gimli4read6reader6Reader11read_offset17h5092e782813967deE, symObjAddr: 0x3EEEC, symBinAddr: 0x3DBB8, symSize: 0xB4 }
  - { offsetInCU: 0x4FA79, offset: 0xC6B7F, size: 0x8, addend: 0x0, symName: __ZN5gimli4read6reader6Reader12read_sleb12817h750a9ae63344d679E, symObjAddr: 0x3EFA0, symBinAddr: 0x3DC6C, symSize: 0x23C }
  - { offsetInCU: 0x4FB47, offset: 0xC6C4D, size: 0x8, addend: 0x0, symName: __ZN5gimli4read6reader6Reader12read_uleb12817h89f1ca61d878365eE, symObjAddr: 0x3F1DC, symBinAddr: 0x3DEA8, symSize: 0xB8 }
  - { offsetInCU: 0x4FC03, offset: 0xC6D09, size: 0x8, addend: 0x0, symName: __ZN5gimli4read6reader6Reader17read_sized_offset17h4efceaf557d0fe8fE, symObjAddr: 0x3F294, symBinAddr: 0x3DF60, symSize: 0x10C }
  - { offsetInCU: 0x50223, offset: 0xC7329, size: 0x8, addend: 0x0, symName: '__ZN5gimli4read8rnglists20RngListIter$LT$R$GT$4next17h806e83767d13a002E', symObjAddr: 0x3F648, symBinAddr: 0x3E314, symSize: 0xCD4 }
  - { offsetInCU: 0x52A09, offset: 0xC9B0F, size: 0x8, addend: 0x0, symName: '__ZN5gimli4read5index18UnitIndex$LT$R$GT$5parse17hbeaf6304ca43b167E', symObjAddr: 0x3E740, symBinAddr: 0x3D40C, symSize: 0x7AC }
  - { offsetInCU: 0x530C4, offset: 0xCA1CA, size: 0x8, addend: 0x0, symName: '__ZN5gimli4read4line27FileEntry$LT$R$C$Offset$GT$5parse17h38aa40376299856aE', symObjAddr: 0x3A3A8, symBinAddr: 0x39074, symSize: 0x21C }
  - { offsetInCU: 0x53382, offset: 0xCA488, size: 0x8, addend: 0x0, symName: __ZN5gimli4read4line13parse_file_v517hd58e7b3e88eec819E, symObjAddr: 0x39474, symBinAddr: 0x38140, symSize: 0x28C }
  - { offsetInCU: 0x53514, offset: 0xCA61A, size: 0x8, addend: 0x0, symName: __ZN5gimli4read4line15FileEntryFormat5parse17h2e227a20b4c51827E, symObjAddr: 0x39700, symBinAddr: 0x383CC, symSize: 0x350 }
  - { offsetInCU: 0x53CCC, offset: 0xCADD2, size: 0x8, addend: 0x0, symName: __ZN5gimli4read4line15parse_attribute17hd84a880deb0bba03E, symObjAddr: 0x39A50, symBinAddr: 0x3871C, symSize: 0x874 }
  - { offsetInCU: 0x55264, offset: 0xCC36A, size: 0x8, addend: 0x0, symName: __ZN5gimli4read4line18parse_directory_v517h803136f74a467f35E, symObjAddr: 0x3A2C4, symBinAddr: 0x38F90, symSize: 0xE4 }
  - { offsetInCU: 0x55337, offset: 0xCC43D, size: 0x8, addend: 0x0, symName: '__ZN85_$LT$gimli..read..line..FileEntry$LT$R$C$Offset$GT$$u20$as$u20$core..clone..Clone$GT$5clone17hc69e735d53f3f795E', symObjAddr: 0x49AF8, symBinAddr: 0x40AB0, symSize: 0x1D4 }
  - { offsetInCU: 0x55544, offset: 0xCC64A, size: 0x8, addend: 0x0, symName: _OUTLINED_FUNCTION_0, symObjAddr: 0x4DFE4, symBinAddr: 0x43F98, symSize: 0xC }
  - { offsetInCU: 0x5555C, offset: 0xCC662, size: 0x8, addend: 0x0, symName: _OUTLINED_FUNCTION_1, symObjAddr: 0x4DFF0, symBinAddr: 0x43FA4, symSize: 0x8 }
  - { offsetInCU: 0x55574, offset: 0xCC67A, size: 0x8, addend: 0x0, symName: _OUTLINED_FUNCTION_2, symObjAddr: 0x4DFF8, symBinAddr: 0x43FAC, symSize: 0xC }
  - { offsetInCU: 0x5558C, offset: 0xCC692, size: 0x8, addend: 0x0, symName: _OUTLINED_FUNCTION_3, symObjAddr: 0x4E004, symBinAddr: 0x43FB8, symSize: 0xC }
  - { offsetInCU: 0x555A4, offset: 0xCC6AA, size: 0x8, addend: 0x0, symName: _OUTLINED_FUNCTION_4, symObjAddr: 0x4E010, symBinAddr: 0x43FC4, symSize: 0xC }
  - { offsetInCU: 0x555BC, offset: 0xCC6C2, size: 0x8, addend: 0x0, symName: _OUTLINED_FUNCTION_5, symObjAddr: 0x4E01C, symBinAddr: 0x43FD0, symSize: 0xC }
  - { offsetInCU: 0x555D4, offset: 0xCC6DA, size: 0x8, addend: 0x0, symName: _OUTLINED_FUNCTION_6, symObjAddr: 0x4E028, symBinAddr: 0x43FDC, symSize: 0xC }
  - { offsetInCU: 0x555EC, offset: 0xCC6F2, size: 0x8, addend: 0x0, symName: _OUTLINED_FUNCTION_7, symObjAddr: 0x4E034, symBinAddr: 0x43FE8, symSize: 0xC }
  - { offsetInCU: 0x55604, offset: 0xCC70A, size: 0x8, addend: 0x0, symName: _OUTLINED_FUNCTION_8, symObjAddr: 0x4E040, symBinAddr: 0x43FF4, symSize: 0x10 }
  - { offsetInCU: 0x5561C, offset: 0xCC722, size: 0x8, addend: 0x0, symName: _OUTLINED_FUNCTION_9, symObjAddr: 0x4E050, symBinAddr: 0x44004, symSize: 0x10 }
  - { offsetInCU: 0x55634, offset: 0xCC73A, size: 0x8, addend: 0x0, symName: _OUTLINED_FUNCTION_10, symObjAddr: 0x4E060, symBinAddr: 0x44014, symSize: 0x18 }
  - { offsetInCU: 0x5564C, offset: 0xCC752, size: 0x8, addend: 0x0, symName: _OUTLINED_FUNCTION_11, symObjAddr: 0x4E078, symBinAddr: 0x4402C, symSize: 0x8 }
  - { offsetInCU: 0x55664, offset: 0xCC76A, size: 0x8, addend: 0x0, symName: _OUTLINED_FUNCTION_12, symObjAddr: 0x4E080, symBinAddr: 0x44034, symSize: 0x8 }
  - { offsetInCU: 0x5567C, offset: 0xCC782, size: 0x8, addend: 0x0, symName: _OUTLINED_FUNCTION_13, symObjAddr: 0x4E088, symBinAddr: 0x4403C, symSize: 0x24 }
  - { offsetInCU: 0x55694, offset: 0xCC79A, size: 0x8, addend: 0x0, symName: _OUTLINED_FUNCTION_14, symObjAddr: 0x4E0AC, symBinAddr: 0x44060, symSize: 0x14 }
  - { offsetInCU: 0x556AC, offset: 0xCC7B2, size: 0x8, addend: 0x0, symName: _OUTLINED_FUNCTION_15, symObjAddr: 0x4E0C0, symBinAddr: 0x44074, symSize: 0x8 }
  - { offsetInCU: 0x556C4, offset: 0xCC7CA, size: 0x8, addend: 0x0, symName: _OUTLINED_FUNCTION_16, symObjAddr: 0x4E0C8, symBinAddr: 0x4407C, symSize: 0x10 }
  - { offsetInCU: 0x556DC, offset: 0xCC7E2, size: 0x8, addend: 0x0, symName: _OUTLINED_FUNCTION_17, symObjAddr: 0x4E0D8, symBinAddr: 0x4408C, symSize: 0x10 }
  - { offsetInCU: 0x556F4, offset: 0xCC7FA, size: 0x8, addend: 0x0, symName: _OUTLINED_FUNCTION_18, symObjAddr: 0x4E0E8, symBinAddr: 0x4409C, symSize: 0x8 }
  - { offsetInCU: 0x5570C, offset: 0xCC812, size: 0x8, addend: 0x0, symName: _OUTLINED_FUNCTION_19, symObjAddr: 0x4E0F0, symBinAddr: 0x440A4, symSize: 0x8 }
  - { offsetInCU: 0x55724, offset: 0xCC82A, size: 0x8, addend: 0x0, symName: _OUTLINED_FUNCTION_20, symObjAddr: 0x4E0F8, symBinAddr: 0x440AC, symSize: 0xC }
  - { offsetInCU: 0x5573C, offset: 0xCC842, size: 0x8, addend: 0x0, symName: _OUTLINED_FUNCTION_21, symObjAddr: 0x4E104, symBinAddr: 0x440B8, symSize: 0x8 }
  - { offsetInCU: 0x55754, offset: 0xCC85A, size: 0x8, addend: 0x0, symName: _OUTLINED_FUNCTION_22, symObjAddr: 0x4E10C, symBinAddr: 0x440C0, symSize: 0x10 }
  - { offsetInCU: 0x5576C, offset: 0xCC872, size: 0x8, addend: 0x0, symName: _OUTLINED_FUNCTION_23, symObjAddr: 0x4E11C, symBinAddr: 0x440D0, symSize: 0x18 }
  - { offsetInCU: 0x55784, offset: 0xCC88A, size: 0x8, addend: 0x0, symName: _OUTLINED_FUNCTION_24, symObjAddr: 0x4E134, symBinAddr: 0x440E8, symSize: 0x8 }
  - { offsetInCU: 0x5579C, offset: 0xCC8A2, size: 0x8, addend: 0x0, symName: _OUTLINED_FUNCTION_25, symObjAddr: 0x4E13C, symBinAddr: 0x440F0, symSize: 0x8 }
  - { offsetInCU: 0x557B4, offset: 0xCC8BA, size: 0x8, addend: 0x0, symName: _OUTLINED_FUNCTION_26, symObjAddr: 0x4E144, symBinAddr: 0x440F8, symSize: 0xC }
  - { offsetInCU: 0x557CC, offset: 0xCC8D2, size: 0x8, addend: 0x0, symName: _OUTLINED_FUNCTION_27, symObjAddr: 0x4E150, symBinAddr: 0x44104, symSize: 0x8 }
  - { offsetInCU: 0x557E4, offset: 0xCC8EA, size: 0x8, addend: 0x0, symName: _OUTLINED_FUNCTION_28, symObjAddr: 0x4E158, symBinAddr: 0x4410C, symSize: 0xC }
  - { offsetInCU: 0x557FC, offset: 0xCC902, size: 0x8, addend: 0x0, symName: _OUTLINED_FUNCTION_30, symObjAddr: 0x4E16C, symBinAddr: 0x44118, symSize: 0xC }
  - { offsetInCU: 0x55814, offset: 0xCC91A, size: 0x8, addend: 0x0, symName: _OUTLINED_FUNCTION_31, symObjAddr: 0x4E178, symBinAddr: 0x44124, symSize: 0x8 }
  - { offsetInCU: 0x5582C, offset: 0xCC932, size: 0x8, addend: 0x0, symName: _OUTLINED_FUNCTION_32, symObjAddr: 0x4E180, symBinAddr: 0x4412C, symSize: 0xC }
  - { offsetInCU: 0x55844, offset: 0xCC94A, size: 0x8, addend: 0x0, symName: _OUTLINED_FUNCTION_33, symObjAddr: 0x4E18C, symBinAddr: 0x44138, symSize: 0xC }
  - { offsetInCU: 0x5585C, offset: 0xCC962, size: 0x8, addend: 0x0, symName: _OUTLINED_FUNCTION_34, symObjAddr: 0x4E198, symBinAddr: 0x44144, symSize: 0x8 }
  - { offsetInCU: 0x55874, offset: 0xCC97A, size: 0x8, addend: 0x0, symName: _OUTLINED_FUNCTION_35, symObjAddr: 0x4E1A0, symBinAddr: 0x4414C, symSize: 0xC }
  - { offsetInCU: 0x5588C, offset: 0xCC992, size: 0x8, addend: 0x0, symName: _OUTLINED_FUNCTION_36, symObjAddr: 0x4E1AC, symBinAddr: 0x44158, symSize: 0x10 }
  - { offsetInCU: 0x558A4, offset: 0xCC9AA, size: 0x8, addend: 0x0, symName: _OUTLINED_FUNCTION_37, symObjAddr: 0x4E1BC, symBinAddr: 0x44168, symSize: 0xC }
  - { offsetInCU: 0x558BC, offset: 0xCC9C2, size: 0x8, addend: 0x0, symName: _OUTLINED_FUNCTION_38, symObjAddr: 0x4E1C8, symBinAddr: 0x44174, symSize: 0xC }
  - { offsetInCU: 0x558D4, offset: 0xCC9DA, size: 0x8, addend: 0x0, symName: _OUTLINED_FUNCTION_39, symObjAddr: 0x4E1D4, symBinAddr: 0x44180, symSize: 0x14 }
  - { offsetInCU: 0x558EC, offset: 0xCC9F2, size: 0x8, addend: 0x0, symName: _OUTLINED_FUNCTION_40, symObjAddr: 0x4E1E8, symBinAddr: 0x44194, symSize: 0xC }
  - { offsetInCU: 0x55904, offset: 0xCCA0A, size: 0x8, addend: 0x0, symName: _OUTLINED_FUNCTION_41, symObjAddr: 0x4E1F4, symBinAddr: 0x441A0, symSize: 0x14 }
  - { offsetInCU: 0x5591C, offset: 0xCCA22, size: 0x8, addend: 0x0, symName: _OUTLINED_FUNCTION_42, symObjAddr: 0x4E208, symBinAddr: 0x441B4, symSize: 0x14 }
  - { offsetInCU: 0x55934, offset: 0xCCA3A, size: 0x8, addend: 0x0, symName: _OUTLINED_FUNCTION_43, symObjAddr: 0x4E21C, symBinAddr: 0x441C8, symSize: 0x14 }
  - { offsetInCU: 0x1E, offset: 0xCCA70, size: 0x8, addend: 0x0, symName: __RNvCshXwFllX56pT_7___rustc18___rust_start_panic, symObjAddr: 0x0, symBinAddr: 0x441DC, symSize: 0xA0 }
  - { offsetInCU: 0xED, offset: 0xCCB3F, size: 0x8, addend: 0x0, symName: __ZN12panic_unwind3imp5panic17exception_cleanup17h7bb4190b2d6c44abE, symObjAddr: 0x108, symBinAddr: 0x442E4, symSize: 0x18 }
  - { offsetInCU: 0x109, offset: 0xCCB5B, size: 0x8, addend: 0x0, symName: __RNvCshXwFllX56pT_7___rustc18___rust_start_panic, symObjAddr: 0x0, symBinAddr: 0x441DC, symSize: 0xA0 }
  - { offsetInCU: 0x193, offset: 0xCCBE5, size: 0x8, addend: 0x0, symName: __RNvCshXwFllX56pT_7___rustc20___rust_panic_cleanup, symObjAddr: 0xA0, symBinAddr: 0x4427C, symSize: 0x68 }
  - { offsetInCU: 0x284, offset: 0xCCCD6, size: 0x8, addend: 0x0, symName: '__ZN4core3ptr49drop_in_place$LT$panic_unwind..imp..Exception$GT$17h3c49e7f075fabda9E', symObjAddr: 0x120, symBinAddr: 0x442FC, symSize: 0x78 }
  - { offsetInCU: 0x389, offset: 0xCCDDB, size: 0x8, addend: 0x0, symName: '__ZN4core3ptr74drop_in_place$LT$alloc..boxed..Box$LT$panic_unwind..imp..Exception$GT$$GT$17hdb5650947743323bE', symObjAddr: 0x198, symBinAddr: 0x44374, symSize: 0x8C }
  - { offsetInCU: 0xC4, offset: 0xCD061, size: 0x8, addend: 0x0, symName: __ZN5alloc5alloc18handle_alloc_error17h77990a064974ed31E, symObjAddr: 0x2EC4, symBinAddr: 0x56D04, symSize: 0x18 }
  - { offsetInCU: 0x11A, offset: 0xCD0B7, size: 0x8, addend: 0x0, symName: '__ZN254_$LT$alloc..boxed..convert..$LT$impl$u20$core..convert..From$LT$alloc..string..String$GT$$u20$for$u20$alloc..boxed..Box$LT$dyn$u20$core..error..Error$u2b$core..marker..Sync$u2b$core..marker..Send$GT$$GT$..from..StringError$u20$as$u20$core..fmt..Debug$GT$3fmt17h7a3ed111c7d617e0E', symObjAddr: 0xD0, symBinAddr: 0x4BE34, symSize: 0x10 }
  - { offsetInCU: 0x1EB, offset: 0xCD188, size: 0x8, addend: 0x0, symName: '__ZN256_$LT$alloc..boxed..convert..$LT$impl$u20$core..convert..From$LT$alloc..string..String$GT$$u20$for$u20$alloc..boxed..Box$LT$dyn$u20$core..error..Error$u2b$core..marker..Sync$u2b$core..marker..Send$GT$$GT$..from..StringError$u20$as$u20$core..fmt..Display$GT$3fmt17hf1f0ab42584a59c4E', symObjAddr: 0xE0, symBinAddr: 0x4BE44, symSize: 0x10 }
  - { offsetInCU: 0x2CA, offset: 0xCD267, size: 0x8, addend: 0x0, symName: __ZN5alloc3ffi5c_str7CString19_from_vec_unchecked17h1836188feadd5beaE, symObjAddr: 0x930, symBinAddr: 0x4C024, symSize: 0x118 }
  - { offsetInCU: 0x5C9, offset: 0xCD566, size: 0x8, addend: 0x0, symName: '__ZN81_$LT$$RF$$u5b$u8$u5d$$u20$as$u20$alloc..ffi..c_str..CString..new..SpecNewImpl$GT$13spec_new_impl17hb987ddbe28dfb313E', symObjAddr: 0x516C, symBinAddr: 0x4C610, symSize: 0x114 }
  - { offsetInCU: 0x98E, offset: 0xCD92B, size: 0x8, addend: 0x0, symName: '__ZN5alloc7raw_vec20RawVecInner$LT$A$GT$11finish_grow17hb6fd2d02dd1b2f62E', symObjAddr: 0x484C, symBinAddr: 0x56D50, symSize: 0x8C }
  - { offsetInCU: 0xB78, offset: 0xCDB15, size: 0x8, addend: 0x0, symName: __ZN5alloc7raw_vec12handle_error17he4f6e0c101caed0fE, symObjAddr: 0x47B8, symBinAddr: 0x56D1C, symSize: 0x14 }
  - { offsetInCU: 0xBBD, offset: 0xCDB5A, size: 0x8, addend: 0x0, symName: __ZN5alloc7raw_vec17capacity_overflow17hfff3ed88f2283f35E, symObjAddr: 0x47CC, symBinAddr: 0x56D30, symSize: 0x20 }
  - { offsetInCU: 0xBEE, offset: 0xCDB8B, size: 0x8, addend: 0x0, symName: '__ZN5alloc7raw_vec20RawVecInner$LT$A$GT$7reserve21do_reserve_and_handle17h1d0a5d9416582a4fE', symObjAddr: 0x48D8, symBinAddr: 0x56DDC, symSize: 0x78 }
  - { offsetInCU: 0xEDA, offset: 0xCDE77, size: 0x8, addend: 0x0, symName: __ZN5alloc6string6String15from_utf8_lossy17hfb27054e23a2c9beE, symObjAddr: 0x3E04, symBinAddr: 0x4C364, symSize: 0x228 }
  - { offsetInCU: 0x141C, offset: 0xCE3B9, size: 0x8, addend: 0x0, symName: '__ZN58_$LT$alloc..string..String$u20$as$u20$core..fmt..Write$GT$10write_char17hbd6e72c2c628145cE', symObjAddr: 0x1EC, symBinAddr: 0x4BE94, symSize: 0x118 }
  - { offsetInCU: 0x15BB, offset: 0xCE558, size: 0x8, addend: 0x0, symName: '__ZN58_$LT$alloc..string..String$u20$as$u20$core..fmt..Write$GT$9write_str17h1b27ec6ee313d329E', symObjAddr: 0x304, symBinAddr: 0x4BFAC, symSize: 0x78 }
  - { offsetInCU: 0x1720, offset: 0xCE6BD, size: 0x8, addend: 0x0, symName: '__ZN98_$LT$alloc..string..String$u20$as$u20$core..convert..From$LT$alloc..borrow..Cow$LT$str$GT$$GT$$GT$4from17h663b74a2d196ff68E', symObjAddr: 0x58C4, symBinAddr: 0x4C724, symSize: 0x94 }
  - { offsetInCU: 0x184A, offset: 0xCE7E7, size: 0x8, addend: 0x0, symName: '__ZN60_$LT$alloc..string..String$u20$as$u20$core..clone..Clone$GT$5clone17hfc6f4ae15fab6299E', symObjAddr: 0x49CC, symBinAddr: 0x4C58C, symSize: 0x70 }
  - { offsetInCU: 0x19A3, offset: 0xCE940, size: 0x8, addend: 0x0, symName: __ZN5alloc3fmt6format12format_inner17h63985d1d6aa0fe33E, symObjAddr: 0xB18, symBinAddr: 0x4C13C, symSize: 0x1B4 }
  - { offsetInCU: 0x1C56, offset: 0xCEBF3, size: 0x8, addend: 0x0, symName: __ZN5alloc4sync32arcinner_layout_for_value_layout17he7a50cf134bde959E, symObjAddr: 0x2070, symBinAddr: 0x4C2F0, symSize: 0x74 }
  - { offsetInCU: 0x1DF7, offset: 0xCED94, size: 0x8, addend: 0x0, symName: '__ZN4core3ptr42drop_in_place$LT$alloc..string..String$GT$17h7c77494002ee655bE', symObjAddr: 0x12C, symBinAddr: 0x4BE68, symSize: 0x18 }
  - { offsetInCU: 0x1F7E, offset: 0xCEF1B, size: 0x8, addend: 0x0, symName: __ZN4core3fmt5Write9write_fmt17h5dd2e215e699d574E, symObjAddr: 0x100, symBinAddr: 0x4BE54, symSize: 0x14 }
  - { offsetInCU: 0x1FBF, offset: 0xCEF5C, size: 0x8, addend: 0x0, symName: '__ZN53_$LT$core..fmt..Error$u20$as$u20$core..fmt..Debug$GT$3fmt17hceb889f78a2a29b6E', symObjAddr: 0x174, symBinAddr: 0x4BE80, symSize: 0x14 }
  - { offsetInCU: 0x214B, offset: 0xCF0E8, size: 0x8, addend: 0x0, symName: '__ZN69_$LT$core..alloc..layout..LayoutError$u20$as$u20$core..fmt..Debug$GT$3fmt17hd2fc890758120e4fE', symObjAddr: 0x4C30, symBinAddr: 0x4C5FC, symSize: 0x14 }
  - { offsetInCU: 0x3F, offset: 0xCF18C, size: 0x8, addend: 0x0, symName: '__ZN71_$LT$core..ops..range..Range$LT$Idx$GT$$u20$as$u20$core..fmt..Debug$GT$3fmt17hf0deada47b1f352aE', symObjAddr: 0x1BEDC, symBinAddr: 0x511C0, symSize: 0x5C }
  - { offsetInCU: 0x268, offset: 0xCF3B5, size: 0x8, addend: 0x0, symName: '__ZN4core4char7methods22_$LT$impl$u20$char$GT$16escape_debug_ext17h4c16b89dabeccf7cE', symObjAddr: 0x15128, symBinAddr: 0x50730, symSize: 0x284 }
  - { offsetInCU: 0x861, offset: 0xCF9AE, size: 0x8, addend: 0x0, symName: __ZN4core6option13expect_failed17h0c7474fae24b826bE, symObjAddr: 0x15908, symBinAddr: 0x56FF8, symSize: 0x30 }
  - { offsetInCU: 0x891, offset: 0xCF9DE, size: 0x8, addend: 0x0, symName: __ZN4core6option13unwrap_failed17h6f284828446285e6E, symObjAddr: 0x15938, symBinAddr: 0x57028, symSize: 0x1C }
  - { offsetInCU: 0xC74, offset: 0xCFDC1, size: 0x8, addend: 0x0, symName: __ZN4core5slice5index16slice_index_fail8do_panic7runtime17h1eecf9f5a38d05efE, symObjAddr: 0x15664, symBinAddr: 0x56F50, symSize: 0x0 }
  - { offsetInCU: 0xC8E, offset: 0xCFDDB, size: 0x8, addend: 0x0, symName: __ZN4core5slice5index16slice_index_fail8do_panic7runtime17ha161725312810c5cE, symObjAddr: 0x1569C, symBinAddr: 0x56F88, symSize: 0x38 }
  - { offsetInCU: 0xCA8, offset: 0xCFDF5, size: 0x8, addend: 0x0, symName: __ZN4core5slice5index16slice_index_fail8do_panic7runtime17hb94d300c34d34b93E, symObjAddr: 0x156D4, symBinAddr: 0x56FC0, symSize: 0x38 }
  - { offsetInCU: 0xCC4, offset: 0xCFE11, size: 0x8, addend: 0x0, symName: __ZN4core5slice5index16slice_index_fail17h29aa2edd8429fa12E, symObjAddr: 0x15620, symBinAddr: 0x56F0C, symSize: 0x44 }
  - { offsetInCU: 0xD75, offset: 0xCFEC2, size: 0x8, addend: 0x0, symName: __ZN4core5slice6memchr14memchr_aligned17h5505eeecba6e215aE, symObjAddr: 0x1570C, symBinAddr: 0x50A00, symSize: 0xDC }
  - { offsetInCU: 0xD8D, offset: 0xCFEDA, size: 0x8, addend: 0x0, symName: __ZN4core5slice6memchr14memchr_aligned17h5505eeecba6e215aE, symObjAddr: 0x1570C, symBinAddr: 0x50A00, symSize: 0xDC }
  - { offsetInCU: 0xDA2, offset: 0xCFEEF, size: 0x8, addend: 0x0, symName: __ZN4core5slice6memchr14memchr_aligned17h5505eeecba6e215aE, symObjAddr: 0x1570C, symBinAddr: 0x50A00, symSize: 0xDC }
  - { offsetInCU: 0xDB6, offset: 0xCFF03, size: 0x8, addend: 0x0, symName: __ZN4core5slice6memchr14memchr_aligned17h5505eeecba6e215aE, symObjAddr: 0x1570C, symBinAddr: 0x50A00, symSize: 0xDC }
  - { offsetInCU: 0xDCB, offset: 0xCFF18, size: 0x8, addend: 0x0, symName: __ZN4core5slice6memchr14memchr_aligned17h5505eeecba6e215aE, symObjAddr: 0x1570C, symBinAddr: 0x50A00, symSize: 0xDC }
  - { offsetInCU: 0xEE3, offset: 0xD0030, size: 0x8, addend: 0x0, symName: __ZN4core5slice20copy_from_slice_impl17len_mismatch_fail8do_panic7runtime17hd316e5ae2eb26e57E, symObjAddr: 0x154CC, symBinAddr: 0x56EB4, symSize: 0x38 }
  - { offsetInCU: 0xEFF, offset: 0xD004C, size: 0x8, addend: 0x0, symName: __ZN4core5slice20copy_from_slice_impl17len_mismatch_fail17hc73689387cb22c5aE, symObjAddr: 0x154B4, symBinAddr: 0x56E9C, symSize: 0x18 }
  - { offsetInCU: 0xF3E, offset: 0xD008B, size: 0x8, addend: 0x0, symName: __ZN4core5slice4sort6shared9smallsort22panic_on_ord_violation17h7d8e6153c5d32400E, symObjAddr: 0x15524, symBinAddr: 0x56EEC, symSize: 0x20 }
  - { offsetInCU: 0xF64, offset: 0xD00B1, size: 0x8, addend: 0x0, symName: __ZN4core5slice4sort6stable5drift11sqrt_approx17h06c87c8d90ff9c46E, symObjAddr: 0x15544, symBinAddr: 0x509D4, symSize: 0x2C }
  - { offsetInCU: 0x1052, offset: 0xD019F, size: 0x8, addend: 0x0, symName: __ZN4core3fmt9Formatter10debug_list17h395cd15156f16653E, symObjAddr: 0x96D4, symBinAddr: 0x4E2D8, symSize: 0x48 }
  - { offsetInCU: 0x1091, offset: 0xD01DE, size: 0x8, addend: 0x0, symName: __ZN4core3fmt9Formatter11debug_tuple17hde1d8ea216d0169aE, symObjAddr: 0x971C, symBinAddr: 0x4E320, symSize: 0x50 }
  - { offsetInCU: 0x10DD, offset: 0xD022A, size: 0x8, addend: 0x0, symName: __ZN4core3fmt9Formatter12debug_struct17h9026b03fc9492b76E, symObjAddr: 0x976C, symBinAddr: 0x4E370, symSize: 0x3C }
  - { offsetInCU: 0x1142, offset: 0xD028F, size: 0x8, addend: 0x0, symName: __ZN4core3fmt9Formatter12pad_integral17h3ce8c974c7a8a604E, symObjAddr: 0x9824, symBinAddr: 0x4E428, symSize: 0x3B4 }
  - { offsetInCU: 0x1456, offset: 0xD05A3, size: 0x8, addend: 0x0, symName: __ZN4core3fmt9Formatter25debug_tuple_field1_finish17hddb8899bf22f5bc8E, symObjAddr: 0xA030, symBinAddr: 0x4E7DC, symSize: 0x160 }
  - { offsetInCU: 0x1650, offset: 0xD079D, size: 0x8, addend: 0x0, symName: __ZN4core3fmt9Formatter25debug_tuple_field2_finish17hc0e59394541b7469E, symObjAddr: 0xA190, symBinAddr: 0x4E93C, symSize: 0x1D8 }
  - { offsetInCU: 0x1947, offset: 0xD0A94, size: 0x8, addend: 0x0, symName: __ZN4core3fmt9Formatter26debug_struct_field1_finish17h75f2deabd831dd93E, symObjAddr: 0xAF48, symBinAddr: 0x4EB14, symSize: 0xD0 }
  - { offsetInCU: 0x1A1D, offset: 0xD0B6A, size: 0x8, addend: 0x0, symName: __ZN4core3fmt9Formatter26debug_struct_field2_finish17hab300bfeda785df5E, symObjAddr: 0xB018, symBinAddr: 0x4EBE4, symSize: 0x104 }
  - { offsetInCU: 0x1AF3, offset: 0xD0C40, size: 0x8, addend: 0x0, symName: __ZN4core3fmt9Formatter3pad17h9af9e8f45d670087E, symObjAddr: 0xB62C, symBinAddr: 0x4ECE8, symSize: 0x304 }
  - { offsetInCU: 0x1E50, offset: 0xD0F9D, size: 0x8, addend: 0x0, symName: __ZN4core3fmt9Formatter9write_str17h0a2531327af07633E, symObjAddr: 0xB9DC, symBinAddr: 0x4EFEC, symSize: 0x0 }
  - { offsetInCU: 0x1EAF, offset: 0xD0FFC, size: 0x8, addend: 0x0, symName: __ZN4core3fmt8builders11DebugStruct21finish_non_exhaustive17h778f1eb7ce741ee6E, symObjAddr: 0x8B7C, symBinAddr: 0x4DE50, symSize: 0xC4 }
  - { offsetInCU: 0x1FD6, offset: 0xD1123, size: 0x8, addend: 0x0, symName: __ZN4core3fmt8builders11DebugStruct5field17h58caabf81ace0911E, symObjAddr: 0x8C40, symBinAddr: 0x4DF14, symSize: 0x1B4 }
  - { offsetInCU: 0x21E1, offset: 0xD132E, size: 0x8, addend: 0x0, symName: __ZN4core3fmt8builders11DebugStruct6finish17hf5d8147ab0af7304E, symObjAddr: 0x8DF4, symBinAddr: 0x4E0C8, symSize: 0x7C }
  - { offsetInCU: 0x2312, offset: 0xD145F, size: 0x8, addend: 0x0, symName: __ZN4core3fmt8builders10DebugTuple5field17h8cf7638994ba1cdeE, symObjAddr: 0x895C, symBinAddr: 0x4DC54, symSize: 0x148 }
  - { offsetInCU: 0x248F, offset: 0xD15DC, size: 0x8, addend: 0x0, symName: __ZN4core3fmt8builders10DebugTuple6finish17ha83c0a3a3a8264beE, symObjAddr: 0x8AA4, symBinAddr: 0x4DD9C, symSize: 0xB4 }
  - { offsetInCU: 0x25CD, offset: 0xD171A, size: 0x8, addend: 0x0, symName: __ZN4core3fmt8builders8DebugSet5entry17h8549c21c9400d406E, symObjAddr: 0x942C, symBinAddr: 0x4E144, symSize: 0x0 }
  - { offsetInCU: 0x27A9, offset: 0xD18F6, size: 0x8, addend: 0x0, symName: __ZN4core3fmt8builders9DebugList6finish17h2cba8fbe7a4497f8E, symObjAddr: 0x9688, symBinAddr: 0x4E28C, symSize: 0x4C }
  - { offsetInCU: 0x2823, offset: 0xD1970, size: 0x8, addend: 0x0, symName: '__ZN68_$LT$core..fmt..builders..PadAdapter$u20$as$u20$core..fmt..Write$GT$10write_char17h415daf5e83f5a71cE', symObjAddr: 0x1AC9C, symBinAddr: 0x50EFC, symSize: 0x80 }
  - { offsetInCU: 0x284B, offset: 0xD1998, size: 0x8, addend: 0x0, symName: '__ZN68_$LT$core..fmt..builders..PadAdapter$u20$as$u20$core..fmt..Write$GT$9write_str17h0a67632c7cefcdb4E', symObjAddr: 0x1AD1C, symBinAddr: 0x50F7C, symSize: 0x244 }
  - { offsetInCU: 0x2B08, offset: 0xD1C55, size: 0x8, addend: 0x0, symName: '__ZN57_$LT$core..fmt..Formatter$u20$as$u20$core..fmt..Write$GT$10write_char17h06dc63d8655c93f2E', symObjAddr: 0x176E0, symBinAddr: 0x50EC8, symSize: 0x10 }
  - { offsetInCU: 0x2B42, offset: 0xD1C8F, size: 0x8, addend: 0x0, symName: '__ZN40_$LT$str$u20$as$u20$core..fmt..Debug$GT$3fmt17h2bb9f3519979c641E', symObjAddr: 0x2F4, symBinAddr: 0x4C7B8, symSize: 0x398 }
  - { offsetInCU: 0x2F4B, offset: 0xD2098, size: 0x8, addend: 0x0, symName: '__ZN41_$LT$char$u20$as$u20$core..fmt..Debug$GT$3fmt17h7f8903e70721d93bE', symObjAddr: 0x68C, symBinAddr: 0x4CB50, symSize: 0xA8 }
  - { offsetInCU: 0x3052, offset: 0xD219F, size: 0x8, addend: 0x0, symName: '__ZN42_$LT$$RF$T$u20$as$u20$core..fmt..Debug$GT$3fmt17h39e57ae1dd449601E', symObjAddr: 0x734, symBinAddr: 0x4CBF8, symSize: 0x10 }
  - { offsetInCU: 0x3066, offset: 0xD21B3, size: 0x8, addend: 0x0, symName: '__ZN42_$LT$$RF$T$u20$as$u20$core..fmt..Debug$GT$3fmt17h461836f21654eac1E', symObjAddr: 0x744, symBinAddr: 0x4CC08, symSize: 0xC }
  - { offsetInCU: 0x3081, offset: 0xD21CE, size: 0x8, addend: 0x0, symName: '__ZN42_$LT$$RF$T$u20$as$u20$core..fmt..Debug$GT$3fmt17hc786ecc190a42d41E', symObjAddr: 0x768, symBinAddr: 0x4CC14, symSize: 0x8 }
  - { offsetInCU: 0x30A2, offset: 0xD21EF, size: 0x8, addend: 0x0, symName: '__ZN42_$LT$$RF$T$u20$as$u20$core..fmt..Debug$GT$3fmt17hf0878fe9d983b480E', symObjAddr: 0x770, symBinAddr: 0x4CC1C, symSize: 0x164 }
  - { offsetInCU: 0x32D9, offset: 0xD2426, size: 0x8, addend: 0x0, symName: '__ZN42_$LT$str$u20$as$u20$core..fmt..Display$GT$3fmt17h3dadcd149a82289cE', symObjAddr: 0x8E4, symBinAddr: 0x4CD80, symSize: 0x14 }
  - { offsetInCU: 0x3300, offset: 0xD244D, size: 0x8, addend: 0x0, symName: '__ZN43_$LT$char$u20$as$u20$core..fmt..Display$GT$3fmt17hccc65653b32ebe4fE', symObjAddr: 0x92C, symBinAddr: 0x4CD94, symSize: 0xD4 }
  - { offsetInCU: 0x3374, offset: 0xD24C1, size: 0x8, addend: 0x0, symName: '__ZN44_$LT$$RF$T$u20$as$u20$core..fmt..Display$GT$3fmt17h93f82a851ab08097E', symObjAddr: 0xA10, symBinAddr: 0x4CE68, symSize: 0x10 }
  - { offsetInCU: 0x33FA, offset: 0xD2547, size: 0x8, addend: 0x0, symName: '__ZN4core3fmt3num3imp21_$LT$impl$u20$u32$GT$10_fmt_inner17h94157436147dabcfE', symObjAddr: 0x1D60, symBinAddr: 0x4D01C, symSize: 0x1F0 }
  - { offsetInCU: 0x34B4, offset: 0xD2601, size: 0x8, addend: 0x0, symName: '__ZN4core3fmt3num3imp21_$LT$impl$u20$u64$GT$10_fmt_inner17hf78fa1016b9d59f9E', symObjAddr: 0x1FAC, symBinAddr: 0x4D20C, symSize: 0x1F8 }
  - { offsetInCU: 0x356E, offset: 0xD26BB, size: 0x8, addend: 0x0, symName: '__ZN4core3fmt3num3imp51_$LT$impl$u20$core..fmt..Display$u20$for$u20$u8$GT$3fmt17haf97c475cbbdc210E', symObjAddr: 0x22D0, symBinAddr: 0x4D404, symSize: 0xB0 }
  - { offsetInCU: 0x3652, offset: 0xD279F, size: 0x8, addend: 0x0, symName: '__ZN4core3fmt3num3imp52_$LT$impl$u20$core..fmt..Display$u20$for$u20$i32$GT$3fmt17hc1020c4dffdb8fa5E', symObjAddr: 0x24A0, symBinAddr: 0x4D4B4, symSize: 0x6C }
  - { offsetInCU: 0x36FB, offset: 0xD2848, size: 0x8, addend: 0x0, symName: '__ZN4core3fmt3num3imp52_$LT$impl$u20$core..fmt..Display$u20$for$u20$u32$GT$3fmt17hb2a64ebb0d1cc5d2E', symObjAddr: 0x2680, symBinAddr: 0x4D520, symSize: 0x60 }
  - { offsetInCU: 0x37A2, offset: 0xD28EF, size: 0x8, addend: 0x0, symName: '__ZN4core3fmt3num3imp52_$LT$impl$u20$core..fmt..Display$u20$for$u20$u64$GT$3fmt17he597d29ee05c004eE', symObjAddr: 0x26E0, symBinAddr: 0x4D580, symSize: 0x0 }
  - { offsetInCU: 0x3876, offset: 0xD29C3, size: 0x8, addend: 0x0, symName: '__ZN4core3fmt3num52_$LT$impl$u20$core..fmt..LowerHex$u20$for$u20$u8$GT$3fmt17h1af3ec5dbe43683cE', symObjAddr: 0x459C, symBinAddr: 0x4D7D4, symSize: 0x74 }
  - { offsetInCU: 0x38E6, offset: 0xD2A33, size: 0x8, addend: 0x0, symName: '__ZN4core3fmt3num52_$LT$impl$u20$core..fmt..UpperHex$u20$for$u20$u8$GT$3fmt17h658fc9863ee21a29E', symObjAddr: 0x4684, symBinAddr: 0x4D848, symSize: 0x74 }
  - { offsetInCU: 0x3969, offset: 0xD2AB6, size: 0x8, addend: 0x0, symName: '__ZN4core3fmt3num53_$LT$impl$u20$core..fmt..LowerHex$u20$for$u20$i32$GT$3fmt17h827c9f3ef9226293E', symObjAddr: 0x4844, symBinAddr: 0x4D8BC, symSize: 0x74 }
  - { offsetInCU: 0x3A01, offset: 0xD2B4E, size: 0x8, addend: 0x0, symName: '__ZN4core3fmt3num53_$LT$impl$u20$core..fmt..UpperHex$u20$for$u20$i32$GT$3fmt17h9343e4ea521ef469E', symObjAddr: 0x4AFC, symBinAddr: 0x4D9A4, symSize: 0x74 }
  - { offsetInCU: 0x3A86, offset: 0xD2BD3, size: 0x8, addend: 0x0, symName: '__ZN4core3fmt3num53_$LT$impl$u20$core..fmt..LowerHex$u20$for$u20$u64$GT$3fmt17h622e344edadcc297E', symObjAddr: 0x4A14, symBinAddr: 0x4D930, symSize: 0x0 }
  - { offsetInCU: 0x3AF6, offset: 0xD2C43, size: 0x8, addend: 0x0, symName: '__ZN4core3fmt3num53_$LT$impl$u20$core..fmt..UpperHex$u20$for$u20$u64$GT$3fmt17h3101836b29e6a00aE', symObjAddr: 0x4CCC, symBinAddr: 0x4DA18, symSize: 0x0 }
  - { offsetInCU: 0x3B59, offset: 0xD2CA6, size: 0x8, addend: 0x0, symName: '__ZN4core3fmt3num50_$LT$impl$u20$core..fmt..Debug$u20$for$u20$u64$GT$3fmt17h26839409ee8d7cfaE', symObjAddr: 0x398C, symBinAddr: 0x4D5E0, symSize: 0xF4 }
  - { offsetInCU: 0x3C88, offset: 0xD2DD5, size: 0x8, addend: 0x0, symName: '__ZN4core3fmt3num52_$LT$impl$u20$core..fmt..Debug$u20$for$u20$usize$GT$3fmt17h0f2d15c1de89bdc6E', symObjAddr: 0x4428, symBinAddr: 0x4D6D4, symSize: 0x100 }
  - { offsetInCU: 0x3E0E, offset: 0xD2F5B, size: 0x8, addend: 0x0, symName: __ZN4core3fmt17pointer_fmt_inner17hb3d81a6b5a782bd8E, symObjAddr: 0xF8C, symBinAddr: 0x4CF68, symSize: 0xB4 }
  - { offsetInCU: 0x3EDD, offset: 0xD302A, size: 0x8, addend: 0x0, symName: __ZN4core3fmt5Write9write_fmt17h7f301659e7a515e5E, symObjAddr: 0x5DC8, symBinAddr: 0x4DA8C, symSize: 0x14 }
  - { offsetInCU: 0x3F6B, offset: 0xD30B8, size: 0x8, addend: 0x0, symName: __ZN4core3fmt5write17h64810b21425781ecE, symObjAddr: 0x86E8, symBinAddr: 0x4DAA0, symSize: 0x1B4 }
  - { offsetInCU: 0x41AD, offset: 0xD32FA, size: 0x8, addend: 0x0, symName: __ZN4core3fmt9Formatter12pad_integral12write_prefix17h2c4870e86a0170cbE, symObjAddr: 0x97A8, symBinAddr: 0x4E3AC, symSize: 0x7C }
  - { offsetInCU: 0x4211, offset: 0xD335E, size: 0x8, addend: 0x0, symName: '__ZN59_$LT$core..fmt..Arguments$u20$as$u20$core..fmt..Display$GT$3fmt17h37475dbdb5fb4019E', symObjAddr: 0x182DC, symBinAddr: 0x50ED8, symSize: 0x10 }
  - { offsetInCU: 0x433C, offset: 0xD3489, size: 0x8, addend: 0x0, symName: __ZN4core6result13unwrap_failed17h1f9c817951eee5c5E, symObjAddr: 0x15954, symBinAddr: 0x57044, symSize: 0x48 }
  - { offsetInCU: 0x452E, offset: 0xD367B, size: 0x8, addend: 0x0, symName: __ZN4core3str5count14do_count_chars17haf03aa108601295cE, symObjAddr: 0x13880, symBinAddr: 0x4F250, symSize: 0x72C }
  - { offsetInCU: 0x4936, offset: 0xD3A83, size: 0x8, addend: 0x0, symName: __ZN4core3str5count23char_count_general_case17h481f16b9dee532cfE, symObjAddr: 0x13FAC, symBinAddr: 0x4F97C, symSize: 0x2A8 }
  - { offsetInCU: 0x49DF, offset: 0xD3B2C, size: 0x8, addend: 0x0, symName: __ZN4core3str16slice_error_fail17h7d5f7302866db666E, symObjAddr: 0x134D8, symBinAddr: 0x56E54, symSize: 0xC }
  - { offsetInCU: 0x49F9, offset: 0xD3B46, size: 0x8, addend: 0x0, symName: __ZN4core3str19slice_error_fail_rt17h57a92e6672f97372E, symObjAddr: 0x13500, symBinAddr: 0x4EFFC, symSize: 0x254 }
  - { offsetInCU: 0x4B36, offset: 0xD3C83, size: 0x8, addend: 0x0, symName: __ZN4core3str7pattern11StrSearcher3new17h644cd50388149c5cE, symObjAddr: 0x14270, symBinAddr: 0x4FC24, symSize: 0x898 }
  - { offsetInCU: 0x4DF3, offset: 0xD3F40, size: 0x8, addend: 0x0, symName: __ZN4core3str8converts9from_utf817h2a788292d4279601E, symObjAddr: 0x14D7C, symBinAddr: 0x504BC, symSize: 0x274 }
  - { offsetInCU: 0x4E11, offset: 0xD3F5E, size: 0x8, addend: 0x0, symName: __ZN4core3str8converts9from_utf817h2a788292d4279601E, symObjAddr: 0x14D7C, symBinAddr: 0x504BC, symSize: 0x274 }
  - { offsetInCU: 0x4E90, offset: 0xD3FDD, size: 0x8, addend: 0x0, symName: '__ZN87_$LT$core..str..lossy..Utf8Chunks$u20$as$u20$core..iter..traits..iterator..Iterator$GT$4next17h3c53a7c0d3887375E', symObjAddr: 0x1DDFC, symBinAddr: 0x5121C, symSize: 0x1C0 }
  - { offsetInCU: 0x50A5, offset: 0xD41F2, size: 0x8, addend: 0x0, symName: __ZN4core3ffi5c_str4CStr19from_bytes_with_nul17h3eb41042a4761af1E, symObjAddr: 0xDAC, symBinAddr: 0x4CE78, symSize: 0xF0 }
  - { offsetInCU: 0x50C4, offset: 0xD4211, size: 0x8, addend: 0x0, symName: __ZN4core3ffi5c_str4CStr19from_bytes_with_nul17h3eb41042a4761af1E, symObjAddr: 0xDAC, symBinAddr: 0x4CE78, symSize: 0xF0 }
  - { offsetInCU: 0x5200, offset: 0xD434D, size: 0x8, addend: 0x0, symName: __ZN4core4cell22panic_already_borrowed8do_panic7runtime17h8939eb485ef592bbE, symObjAddr: 0x14FFC, symBinAddr: 0x56E6C, symSize: 0x30 }
  - { offsetInCU: 0x521C, offset: 0xD4369, size: 0x8, addend: 0x0, symName: __ZN4core4cell22panic_already_borrowed17he8deaa52232869b2E, symObjAddr: 0x14FF0, symBinAddr: 0x56E60, symSize: 0xC }
  - { offsetInCU: 0x5250, offset: 0xD439D, size: 0x8, addend: 0x0, symName: '__ZN65_$LT$core..cell..BorrowMutError$u20$as$u20$core..fmt..Display$GT$3fmt17h4c1c74d48b5b5b86E', symObjAddr: 0x197F4, symBinAddr: 0x50EE8, symSize: 0x14 }
  - { offsetInCU: 0x529F, offset: 0xD43EC, size: 0x8, addend: 0x0, symName: __ZN4core7unicode12unicode_data15grapheme_extend11lookup_slow17h0aeaca650ed90bbeE, symObjAddr: 0x15EE0, symBinAddr: 0x50ADC, symSize: 0x108 }
  - { offsetInCU: 0x5480, offset: 0xD45CD, size: 0x8, addend: 0x0, symName: __ZN4core7unicode9printable12is_printable17ha327fc6030662728E, symObjAddr: 0x163FC, symBinAddr: 0x50BE4, symSize: 0x2E4 }
  - { offsetInCU: 0x5721, offset: 0xD486E, size: 0x8, addend: 0x0, symName: __ZN4core5alloc6layout6Layout19is_size_align_valid17h536214074413be3eE, symObjAddr: 0x15420, symBinAddr: 0x509B4, symSize: 0x20 }
  - { offsetInCU: 0x573F, offset: 0xD488C, size: 0x8, addend: 0x0, symName: __ZN4core5alloc6layout6Layout19is_size_align_valid17h536214074413be3eE, symObjAddr: 0x15420, symBinAddr: 0x509B4, symSize: 0x20 }
  - { offsetInCU: 0x5779, offset: 0xD48C6, size: 0x8, addend: 0x0, symName: __ZN4core9panicking11panic_const23panic_const_div_by_zero17hb1dd333295147004E, symObjAddr: 0x166E0, symBinAddr: 0x5708C, symSize: 0x1C }
  - { offsetInCU: 0x5793, offset: 0xD48E0, size: 0x8, addend: 0x0, symName: __ZN4core9panicking11panic_const23panic_const_rem_by_zero17h11ee5fec2018f001E, symObjAddr: 0x16718, symBinAddr: 0x570A8, symSize: 0x1C }
  - { offsetInCU: 0x57AD, offset: 0xD48FA, size: 0x8, addend: 0x0, symName: __ZN4core9panicking11panic_const24panic_const_add_overflow17hc9770482551148b1E, symObjAddr: 0x16734, symBinAddr: 0x570C4, symSize: 0x1C }
  - { offsetInCU: 0x57C7, offset: 0xD4914, size: 0x8, addend: 0x0, symName: __ZN4core9panicking11panic_const24panic_const_sub_overflow17h8d29f75955ff6ac2E, symObjAddr: 0x167F8, symBinAddr: 0x570E0, symSize: 0x1C }
  - { offsetInCU: 0x57E2, offset: 0xD492F, size: 0x8, addend: 0x0, symName: __ZN4core9panicking13assert_failed17h2c4a26a306db510cE, symObjAddr: 0x16948, symBinAddr: 0x570FC, symSize: 0x28 }
  - { offsetInCU: 0x57FD, offset: 0xD494A, size: 0x8, addend: 0x0, symName: __ZN4core9panicking13assert_failed17h6b8349776e01e47aE, symObjAddr: 0x16970, symBinAddr: 0x57124, symSize: 0x28 }
  - { offsetInCU: 0x5818, offset: 0xD4965, size: 0x8, addend: 0x0, symName: __ZN4core9panicking13assert_failed17hd12d85ed0814a598E, symObjAddr: 0x16998, symBinAddr: 0x5714C, symSize: 0x28 }
  - { offsetInCU: 0x5833, offset: 0xD4980, size: 0x8, addend: 0x0, symName: __ZN4core9panicking14panic_nounwind17h7d65473595109eb7E, symObjAddr: 0x169C0, symBinAddr: 0x57174, symSize: 0x20 }
  - { offsetInCU: 0x5861, offset: 0xD49AE, size: 0x8, addend: 0x0, symName: __ZN4core9panicking16panic_in_cleanup17h7835a2d0cfa083fcE, symObjAddr: 0x16A1C, symBinAddr: 0x57194, symSize: 0x18 }
  - { offsetInCU: 0x587B, offset: 0xD49C8, size: 0x8, addend: 0x0, symName: __ZN4core9panicking18panic_bounds_check17h6c2a8f4f22099848E, symObjAddr: 0x16A34, symBinAddr: 0x571AC, symSize: 0x38 }
  - { offsetInCU: 0x58A9, offset: 0xD49F6, size: 0x8, addend: 0x0, symName: __ZN4core9panicking18panic_nounwind_fmt17hbf0afcf6d5b364a7E, symObjAddr: 0x16A6C, symBinAddr: 0x571E4, symSize: 0x30 }
  - { offsetInCU: 0x58ED, offset: 0xD4A3A, size: 0x8, addend: 0x0, symName: __ZN4core9panicking19assert_failed_inner17hee377df488a177d4E, symObjAddr: 0x16A9C, symBinAddr: 0x57214, symSize: 0xBC }
  - { offsetInCU: 0x5907, offset: 0xD4A54, size: 0x8, addend: 0x0, symName: __ZN4core9panicking19panic_cannot_unwind17h3992364626a126abE, symObjAddr: 0x16B58, symBinAddr: 0x572D0, symSize: 0x18 }
  - { offsetInCU: 0x5921, offset: 0xD4A6E, size: 0x8, addend: 0x0, symName: __ZN4core9panicking26panic_nounwind_nobacktrace17h1a38f8b6f861f6a0E, symObjAddr: 0x16B70, symBinAddr: 0x572E8, symSize: 0x20 }
  - { offsetInCU: 0x594F, offset: 0xD4A9C, size: 0x8, addend: 0x0, symName: __ZN4core9panicking30panic_null_pointer_dereference17h00a2ee1256c98d21E, symObjAddr: 0x16B90, symBinAddr: 0x57308, symSize: 0x1C }
  - { offsetInCU: 0x5969, offset: 0xD4AB6, size: 0x8, addend: 0x0, symName: __ZN4core9panicking36panic_misaligned_pointer_dereference17he5986221e21b0614E, symObjAddr: 0x16BE0, symBinAddr: 0x57324, symSize: 0x3C }
  - { offsetInCU: 0x5983, offset: 0xD4AD0, size: 0x8, addend: 0x0, symName: __ZN4core9panicking5panic17h30f5ec71e3af4326E, symObjAddr: 0x16C1C, symBinAddr: 0x57360, symSize: 0x14 }
  - { offsetInCU: 0x59B1, offset: 0xD4AFE, size: 0x8, addend: 0x0, symName: __ZN4core9panicking9panic_fmt17h6f8816b337451651E, symObjAddr: 0x16C30, symBinAddr: 0x57374, symSize: 0x28 }
  - { offsetInCU: 0x5A1E, offset: 0xD4B6B, size: 0x8, addend: 0x0, symName: _OUTLINED_FUNCTION_0, symObjAddr: 0x1E020, symBinAddr: 0x513DC, symSize: 0x10 }
  - { offsetInCU: 0x5A36, offset: 0xD4B83, size: 0x8, addend: 0x0, symName: _OUTLINED_FUNCTION_1, symObjAddr: 0x1E030, symBinAddr: 0x513EC, symSize: 0x8 }
...
